
AVRASM ver. 2.1.30  D:\JavierJr\Documents\ISD\FebJun20\LabMicrocontroladores\CodeVision\P03_Scope\Debug\List\scope.asm Tue Mar 10 17:13:18 2020

D:\JavierJr\Documents\ISD\FebJun20\LabMicrocontroladores\CodeVision\P03_Scope\Debug\List\scope.asm(1101): warning: Register r4 already defined by the .DEF directive
D:\JavierJr\Documents\ISD\FebJun20\LabMicrocontroladores\CodeVision\P03_Scope\Debug\List\scope.asm(1102): warning: Register r5 already defined by the .DEF directive
D:\JavierJr\Documents\ISD\FebJun20\LabMicrocontroladores\CodeVision\P03_Scope\Debug\List\scope.asm(1103): warning: Register r6 already defined by the .DEF directive
D:\JavierJr\Documents\ISD\FebJun20\LabMicrocontroladores\CodeVision\P03_Scope\Debug\List\scope.asm(1104): warning: Register r7 already defined by the .DEF directive
D:\JavierJr\Documents\ISD\FebJun20\LabMicrocontroladores\CodeVision\P03_Scope\Debug\List\scope.asm(1105): warning: Register r8 already defined by the .DEF directive
D:\JavierJr\Documents\ISD\FebJun20\LabMicrocontroladores\CodeVision\P03_Scope\Debug\List\scope.asm(1106): warning: Register r3 already defined by the .DEF directive
D:\JavierJr\Documents\ISD\FebJun20\LabMicrocontroladores\CodeVision\P03_Scope\Debug\List\scope.asm(1107): warning: Register r9 already defined by the .DEF directive
D:\JavierJr\Documents\ISD\FebJun20\LabMicrocontroladores\CodeVision\P03_Scope\Debug\List\scope.asm(1108): warning: Register r10 already defined by the .DEF directive
D:\JavierJr\Documents\ISD\FebJun20\LabMicrocontroladores\CodeVision\P03_Scope\Debug\List\scope.asm(1109): warning: Register r12 already defined by the .DEF directive
D:\JavierJr\Documents\ISD\FebJun20\LabMicrocontroladores\CodeVision\P03_Scope\Debug\List\scope.asm(1110): warning: Register r11 already defined by the .DEF directive
D:\JavierJr\Documents\ISD\FebJun20\LabMicrocontroladores\CodeVision\P03_Scope\Debug\List\scope.asm(1111): warning: Register r14 already defined by the .DEF directive
                 
                 
                 ;CodeVisionAVR C Compiler V3.12 Advanced
                 ;(C) Copyright 1998-2014 Pavel Haiduc, HP InfoTech s.r.l.
                 ;http://www.hpinfotech.com
                 
                 ;Build configuration    : Debug
                 ;Chip type              : AT90USB1286
                 ;Program type           : Application
                 ;Clock frequency        : 16.000000 MHz
                 ;Memory model           : Medium
                 ;Optimize for           : Size
                 ;(s)printf features     : int, width
                 ;(s)scanf features      : int, width
                 ;External RAM size      : 0
                 ;Data Stack size        : 2048 byte(s)
                 ;Heap size              : 0 byte(s)
                 ;Promote 'char' to 'int': Yes
                 ;'char' is unsigned     : Yes
                 ;8 bit enums            : Yes
                 ;Global 'const' stored in FLASH: No
                 ;Enhanced function parameter passing: Yes
                 ;Enhanced core instructions: On
                 ;Automatic register allocation for global variables: On
                 ;Smart register allocation: On
                 
                 	#define _MODEL_MEDIUM_
                 
                 	#pragma AVRPART ADMIN PART_NAME AT90USB1286
                 	#pragma AVRPART MEMORY PROG_FLASH 131072
                 	#pragma AVRPART MEMORY EEPROM 4096
                 	#pragma AVRPART MEMORY INT_SRAM SIZE 8192
                 	#pragma AVRPART MEMORY INT_SRAM START_ADDR 0x100
                 
                 	#define CALL_SUPPORTED 1
                 
                 	.LISTMAC
                 	.EQU EERE=0x0
                 	.EQU EEWE=0x1
                 	.EQU EEMWE=0x2
                 	.EQU UDRE=0x5
                 	.EQU RXC=0x7
                 	.EQU EECR=0x1F
                 	.EQU EEDR=0x20
                 	.EQU EEARL=0x21
                 	.EQU EEARH=0x22
                 	.EQU SPSR=0x2D
                 	.EQU SPDR=0x2E
                 	.EQU SMCR=0x33
                 	.EQU MCUSR=0x34
                 	.EQU MCUCR=0x35
                 	.EQU RAMPZ=0x3B
                 	.EQU WDTCSR=0x60
                 	.EQU UCSR1A=0xC8
                 	.EQU UDR1=0xCE
                 	.EQU SPL=0x3D
                 	.EQU SPH=0x3E
                 	.EQU SREG=0x3F
                 	.EQU GPIOR0=0x1E
                 
                 	.DEF R0X0=R0
                 	.DEF R0X1=R1
                 	.DEF R0X2=R2
                 	.DEF R0X3=R3
                 	.DEF R0X4=R4
                 	.DEF R0X5=R5
                 	.DEF R0X6=R6
                 	.DEF R0X7=R7
                 	.DEF R0X8=R8
                 	.DEF R0X9=R9
                 	.DEF R0XA=R10
                 	.DEF R0XB=R11
                 	.DEF R0XC=R12
                 	.DEF R0XD=R13
                 	.DEF R0XE=R14
                 	.DEF R0XF=R15
                 	.DEF R0X10=R16
                 	.DEF R0X11=R17
                 	.DEF R0X12=R18
                 	.DEF R0X13=R19
                 	.DEF R0X14=R20
                 	.DEF R0X15=R21
                 	.DEF R0X16=R22
                 	.DEF R0X17=R23
                 	.DEF R0X18=R24
                 	.DEF R0X19=R25
                 	.DEF R0X1A=R26
                 	.DEF R0X1B=R27
                 	.DEF R0X1C=R28
                 	.DEF R0X1D=R29
                 	.DEF R0X1E=R30
                 	.DEF R0X1F=R31
                 
                 	.EQU __SRAM_START=0x0100
                 	.EQU __SRAM_END=0x20FF
                 	.EQU __DSTACK_SIZE=0x0800
                 	.EQU __HEAP_SIZE=0x0000
                 	.EQU __CLEAR_SRAM_SIZE=__SRAM_END-__SRAM_START+1
                 
                 	.MACRO __CPD1N
                 	CPI  R30,LOW(@0)
                 	LDI  R26,HIGH(@0)
                 	CPC  R31,R26
                 	LDI  R26,BYTE3(@0)
                 	CPC  R22,R26
                 	LDI  R26,BYTE4(@0)
                 	CPC  R23,R26
                 	.ENDM
                 
                 	.MACRO __CPD2N
                 	CPI  R26,LOW(@0)
                 	LDI  R30,HIGH(@0)
                 	CPC  R27,R30
                 	LDI  R30,BYTE3(@0)
                 	CPC  R24,R30
                 	LDI  R30,BYTE4(@0)
                 	CPC  R25,R30
                 	.ENDM
                 
                 	.MACRO __CPWRR
                 	CP   R@0,R@2
                 	CPC  R@1,R@3
                 	.ENDM
                 
                 	.MACRO __CPWRN
                 	CPI  R@0,LOW(@2)
                 	LDI  R30,HIGH(@2)
                 	CPC  R@1,R30
                 	.ENDM
                 
                 	.MACRO __ADDB1MN
                 	SUBI R30,LOW(-@0-(@1))
                 	.ENDM
                 
                 	.MACRO __ADDB2MN
                 	SUBI R26,LOW(-@0-(@1))
                 	.ENDM
                 
                 	.MACRO __ADDW1MN
                 	SUBI R30,LOW(-@0-(@1))
                 	SBCI R31,HIGH(-@0-(@1))
                 	.ENDM
                 
                 	.MACRO __ADDW2MN
                 	SUBI R26,LOW(-@0-(@1))
                 	SBCI R27,HIGH(-@0-(@1))
                 	.ENDM
                 
                 	.MACRO __ADDW1FN
                 	SUBI R30,LOW(-2*@0-(@1))
                 	SBCI R31,HIGH(-2*@0-(@1))
                 	.ENDM
                 
                 	.MACRO __ADDD1FN
                 	SUBI R30,LOW(-2*@0-(@1))
                 	SBCI R31,HIGH(-2*@0-(@1))
                 	SBCI R22,BYTE3(-2*@0-(@1))
                 	.ENDM
                 
                 	.MACRO __ADDD1N
                 	SUBI R30,LOW(-@0)
                 	SBCI R31,HIGH(-@0)
                 	SBCI R22,BYTE3(-@0)
                 	SBCI R23,BYTE4(-@0)
                 	.ENDM
                 
                 	.MACRO __ADDD2N
                 	SUBI R26,LOW(-@0)
                 	SBCI R27,HIGH(-@0)
                 	SBCI R24,BYTE3(-@0)
                 	SBCI R25,BYTE4(-@0)
                 	.ENDM
                 
                 	.MACRO __SUBD1N
                 	SUBI R30,LOW(@0)
                 	SBCI R31,HIGH(@0)
                 	SBCI R22,BYTE3(@0)
                 	SBCI R23,BYTE4(@0)
                 	.ENDM
                 
                 	.MACRO __SUBD2N
                 	SUBI R26,LOW(@0)
                 	SBCI R27,HIGH(@0)
                 	SBCI R24,BYTE3(@0)
                 	SBCI R25,BYTE4(@0)
                 	.ENDM
                 
                 	.MACRO __ANDBMNN
                 	LDS  R30,@0+(@1)
                 	ANDI R30,LOW(@2)
                 	STS  @0+(@1),R30
                 	.ENDM
                 
                 	.MACRO __ANDWMNN
                 	LDS  R30,@0+(@1)
                 	ANDI R30,LOW(@2)
                 	STS  @0+(@1),R30
                 	LDS  R30,@0+(@1)+1
                 	ANDI R30,HIGH(@2)
                 	STS  @0+(@1)+1,R30
                 	.ENDM
                 
                 	.MACRO __ANDD1N
                 	ANDI R30,LOW(@0)
                 	ANDI R31,HIGH(@0)
                 	ANDI R22,BYTE3(@0)
                 	ANDI R23,BYTE4(@0)
                 	.ENDM
                 
                 	.MACRO __ANDD2N
                 	ANDI R26,LOW(@0)
                 	ANDI R27,HIGH(@0)
                 	ANDI R24,BYTE3(@0)
                 	ANDI R25,BYTE4(@0)
                 	.ENDM
                 
                 	.MACRO __ORBMNN
                 	LDS  R30,@0+(@1)
                 	ORI  R30,LOW(@2)
                 	STS  @0+(@1),R30
                 	.ENDM
                 
                 	.MACRO __ORWMNN
                 	LDS  R30,@0+(@1)
                 	ORI  R30,LOW(@2)
                 	STS  @0+(@1),R30
                 	LDS  R30,@0+(@1)+1
                 	ORI  R30,HIGH(@2)
                 	STS  @0+(@1)+1,R30
                 	.ENDM
                 
                 	.MACRO __ORD1N
                 	ORI  R30,LOW(@0)
                 	ORI  R31,HIGH(@0)
                 	ORI  R22,BYTE3(@0)
                 	ORI  R23,BYTE4(@0)
                 	.ENDM
                 
                 	.MACRO __ORD2N
                 	ORI  R26,LOW(@0)
                 	ORI  R27,HIGH(@0)
                 	ORI  R24,BYTE3(@0)
                 	ORI  R25,BYTE4(@0)
                 	.ENDM
                 
                 	.MACRO __DELAY_USB
                 	LDI  R24,LOW(@0)
                 __DELAY_USB_LOOP:
                 	DEC  R24
                 	BRNE __DELAY_USB_LOOP
                 	.ENDM
                 
                 	.MACRO __DELAY_USW
                 	LDI  R24,LOW(@0)
                 	LDI  R25,HIGH(@0)
                 __DELAY_USW_LOOP:
                 	SBIW R24,1
                 	BRNE __DELAY_USW_LOOP
                 	.ENDM
                 
                 	.MACRO __GETD1S
                 	LDD  R30,Y+@0
                 	LDD  R31,Y+@0+1
                 	LDD  R22,Y+@0+2
                 	LDD  R23,Y+@0+3
                 	.ENDM
                 
                 	.MACRO __GETD2S
                 	LDD  R26,Y+@0
                 	LDD  R27,Y+@0+1
                 	LDD  R24,Y+@0+2
                 	LDD  R25,Y+@0+3
                 	.ENDM
                 
                 	.MACRO __PUTD1S
                 	STD  Y+@0,R30
                 	STD  Y+@0+1,R31
                 	STD  Y+@0+2,R22
                 	STD  Y+@0+3,R23
                 	.ENDM
                 
                 	.MACRO __PUTD2S
                 	STD  Y+@0,R26
                 	STD  Y+@0+1,R27
                 	STD  Y+@0+2,R24
                 	STD  Y+@0+3,R25
                 	.ENDM
                 
                 	.MACRO __PUTDZ2
                 	STD  Z+@0,R26
                 	STD  Z+@0+1,R27
                 	STD  Z+@0+2,R24
                 	STD  Z+@0+3,R25
                 	.ENDM
                 
                 	.MACRO __CLRD1S
                 	STD  Y+@0,R30
                 	STD  Y+@0+1,R30
                 	STD  Y+@0+2,R30
                 	STD  Y+@0+3,R30
                 	.ENDM
                 
                 	.MACRO __POINTB1MN
                 	LDI  R30,LOW(@0+(@1))
                 	.ENDM
                 
                 	.MACRO __POINTW1MN
                 	LDI  R30,LOW(@0+(@1))
                 	LDI  R31,HIGH(@0+(@1))
                 	.ENDM
                 
                 	.MACRO __POINTD1M
                 	LDI  R30,LOW(@0)
                 	LDI  R31,HIGH(@0)
                 	LDI  R22,BYTE3(@0)
                 	LDI  R23,BYTE4(@0)
                 	.ENDM
                 
                 	.MACRO __POINTW1FN
                 	LDI  R30,LOW(2*@0+(@1))
                 	LDI  R31,HIGH(2*@0+(@1))
                 	.ENDM
                 
                 	.MACRO __POINTD1FN
                 	LDI  R30,LOW(2*@0+(@1))
                 	LDI  R31,HIGH(2*@0+(@1))
                 	LDI  R22,BYTE3(2*@0+(@1))
                 	LDI  R23,BYTE4(2*@0+(@1))
                 	.ENDM
                 
                 	.MACRO __POINTB2MN
                 	LDI  R26,LOW(@0+(@1))
                 	.ENDM
                 
                 	.MACRO __POINTW2MN
                 	LDI  R26,LOW(@0+(@1))
                 	LDI  R27,HIGH(@0+(@1))
                 	.ENDM
                 
                 	.MACRO __POINTW2FN
                 	LDI  R26,LOW(2*@0+(@1))
                 	LDI  R27,HIGH(2*@0+(@1))
                 	.ENDM
                 
                 	.MACRO __POINTD2FN
                 	LDI  R26,LOW(2*@0+(@1))
                 	LDI  R27,HIGH(2*@0+(@1))
                 	LDI  R24,BYTE3(2*@0+(@1))
                 	LDI  R25,BYTE4(2*@0+(@1))
                 	.ENDM
                 
                 	.MACRO __POINTBRM
                 	LDI  R@0,LOW(@1)
                 	.ENDM
                 
                 	.MACRO __POINTWRM
                 	LDI  R@0,LOW(@2)
                 	LDI  R@1,HIGH(@2)
                 	.ENDM
                 
                 	.MACRO __POINTBRMN
                 	LDI  R@0,LOW(@1+(@2))
                 	.ENDM
                 
                 	.MACRO __POINTWRMN
                 	LDI  R@0,LOW(@2+(@3))
                 	LDI  R@1,HIGH(@2+(@3))
                 	.ENDM
                 
                 	.MACRO __POINTWRFN
                 	LDI  R@0,LOW(@2*2+(@3))
                 	LDI  R@1,HIGH(@2*2+(@3))
                 	.ENDM
                 
                 	.MACRO __GETD1N
                 	LDI  R30,LOW(@0)
                 	LDI  R31,HIGH(@0)
                 	LDI  R22,BYTE3(@0)
                 	LDI  R23,BYTE4(@0)
                 	.ENDM
                 
                 	.MACRO __GETD2N
                 	LDI  R26,LOW(@0)
                 	LDI  R27,HIGH(@0)
                 	LDI  R24,BYTE3(@0)
                 	LDI  R25,BYTE4(@0)
                 	.ENDM
                 
                 	.MACRO __GETB1MN
                 	LDS  R30,@0+(@1)
                 	.ENDM
                 
                 	.MACRO __GETB1HMN
                 	LDS  R31,@0+(@1)
                 	.ENDM
                 
                 	.MACRO __GETW1MN
                 	LDS  R30,@0+(@1)
                 	LDS  R31,@0+(@1)+1
                 	.ENDM
                 
                 	.MACRO __GETD1MN
                 	LDS  R30,@0+(@1)
                 	LDS  R31,@0+(@1)+1
                 	LDS  R22,@0+(@1)+2
                 	LDS  R23,@0+(@1)+3
                 	.ENDM
                 
                 	.MACRO __GETBRMN
                 	LDS  R@0,@1+(@2)
                 	.ENDM
                 
                 	.MACRO __GETWRMN
                 	LDS  R@0,@2+(@3)
                 	LDS  R@1,@2+(@3)+1
                 	.ENDM
                 
                 	.MACRO __GETWRZ
                 	LDD  R@0,Z+@2
                 	LDD  R@1,Z+@2+1
                 	.ENDM
                 
                 	.MACRO __GETD2Z
                 	LDD  R26,Z+@0
                 	LDD  R27,Z+@0+1
                 	LDD  R24,Z+@0+2
                 	LDD  R25,Z+@0+3
                 	.ENDM
                 
                 	.MACRO __GETB2MN
                 	LDS  R26,@0+(@1)
                 	.ENDM
                 
                 	.MACRO __GETW2MN
                 	LDS  R26,@0+(@1)
                 	LDS  R27,@0+(@1)+1
                 	.ENDM
                 
                 	.MACRO __GETD2MN
                 	LDS  R26,@0+(@1)
                 	LDS  R27,@0+(@1)+1
                 	LDS  R24,@0+(@1)+2
                 	LDS  R25,@0+(@1)+3
                 	.ENDM
                 
                 	.MACRO __PUTB1MN
                 	STS  @0+(@1),R30
                 	.ENDM
                 
                 	.MACRO __PUTW1MN
                 	STS  @0+(@1),R30
                 	STS  @0+(@1)+1,R31
                 	.ENDM
                 
                 	.MACRO __PUTD1MN
                 	STS  @0+(@1),R30
                 	STS  @0+(@1)+1,R31
                 	STS  @0+(@1)+2,R22
                 	STS  @0+(@1)+3,R23
                 	.ENDM
                 
                 	.MACRO __PUTB1EN
                 	LDI  R26,LOW(@0+(@1))
                 	LDI  R27,HIGH(@0+(@1))
                 	CALL __EEPROMWRB
                 	.ENDM
                 
                 	.MACRO __PUTW1EN
                 	LDI  R26,LOW(@0+(@1))
                 	LDI  R27,HIGH(@0+(@1))
                 	CALL __EEPROMWRW
                 	.ENDM
                 
                 	.MACRO __PUTD1EN
                 	LDI  R26,LOW(@0+(@1))
                 	LDI  R27,HIGH(@0+(@1))
                 	CALL __EEPROMWRD
                 	.ENDM
                 
                 	.MACRO __PUTBR0MN
                 	STS  @0+(@1),R0
                 	.ENDM
                 
                 	.MACRO __PUTBMRN
                 	STS  @0+(@1),R@2
                 	.ENDM
                 
                 	.MACRO __PUTWMRN
                 	STS  @0+(@1),R@2
                 	STS  @0+(@1)+1,R@3
                 	.ENDM
                 
                 	.MACRO __PUTBZR
                 	STD  Z+@1,R@0
                 	.ENDM
                 
                 	.MACRO __PUTWZR
                 	STD  Z+@2,R@0
                 	STD  Z+@2+1,R@1
                 	.ENDM
                 
                 	.MACRO __GETW1R
                 	MOV  R30,R@0
                 	MOV  R31,R@1
                 	.ENDM
                 
                 	.MACRO __GETW2R
                 	MOV  R26,R@0
                 	MOV  R27,R@1
                 	.ENDM
                 
                 	.MACRO __GETWRN
                 	LDI  R@0,LOW(@2)
                 	LDI  R@1,HIGH(@2)
                 	.ENDM
                 
                 	.MACRO __PUTW1R
                 	MOV  R@0,R30
                 	MOV  R@1,R31
                 	.ENDM
                 
                 	.MACRO __PUTW2R
                 	MOV  R@0,R26
                 	MOV  R@1,R27
                 	.ENDM
                 
                 	.MACRO __ADDWRN
                 	SUBI R@0,LOW(-@2)
                 	SBCI R@1,HIGH(-@2)
                 	.ENDM
                 
                 	.MACRO __ADDWRR
                 	ADD  R@0,R@2
                 	ADC  R@1,R@3
                 	.ENDM
                 
                 	.MACRO __SUBWRN
                 	SUBI R@0,LOW(@2)
                 	SBCI R@1,HIGH(@2)
                 	.ENDM
                 
                 	.MACRO __SUBWRR
                 	SUB  R@0,R@2
                 	SBC  R@1,R@3
                 	.ENDM
                 
                 	.MACRO __ANDWRN
                 	ANDI R@0,LOW(@2)
                 	ANDI R@1,HIGH(@2)
                 	.ENDM
                 
                 	.MACRO __ANDWRR
                 	AND  R@0,R@2
                 	AND  R@1,R@3
                 	.ENDM
                 
                 	.MACRO __ORWRN
                 	ORI  R@0,LOW(@2)
                 	ORI  R@1,HIGH(@2)
                 	.ENDM
                 
                 	.MACRO __ORWRR
                 	OR   R@0,R@2
                 	OR   R@1,R@3
                 	.ENDM
                 
                 	.MACRO __EORWRR
                 	EOR  R@0,R@2
                 	EOR  R@1,R@3
                 	.ENDM
                 
                 	.MACRO __GETWRS
                 	LDD  R@0,Y+@2
                 	LDD  R@1,Y+@2+1
                 	.ENDM
                 
                 	.MACRO __PUTBSR
                 	STD  Y+@1,R@0
                 	.ENDM
                 
                 	.MACRO __PUTWSR
                 	STD  Y+@2,R@0
                 	STD  Y+@2+1,R@1
                 	.ENDM
                 
                 	.MACRO __MOVEWRR
                 	MOV  R@0,R@2
                 	MOV  R@1,R@3
                 	.ENDM
                 
                 	.MACRO __INWR
                 	IN   R@0,@2
                 	IN   R@1,@2+1
                 	.ENDM
                 
                 	.MACRO __OUTWR
                 	OUT  @2+1,R@1
                 	OUT  @2,R@0
                 	.ENDM
                 
                 	.MACRO __GETBRPF
                 	OUT  RAMPZ,R22
                 	ELPM R@0,Z
                 	.ENDM
                 
                 	.MACRO __GETBRPF_INC
                 	OUT  RAMPZ,R22
                 	ELPM R@0,Z+
                 	.ENDM
                 
                 	.MACRO __CALL1MN
                 	LDS  R30,@0+(@1)
                 	LDS  R31,@0+(@1)+1
                 	ICALL
                 	.ENDM
                 
                 	.MACRO __CALL1FN
                 	LDI  R30,LOW(2*@0+(@1))
                 	LDI  R31,HIGH(2*@0+(@1))
                 	CALL __GETW1PF
                 	ICALL
                 	.ENDM
                 
                 	.MACRO __CALL2EN
                 	PUSH R26
                 	PUSH R27
                 	LDI  R26,LOW(@0+(@1))
                 	LDI  R27,HIGH(@0+(@1))
                 	CALL __EEPROMRDW
                 	POP  R27
                 	POP  R26
                 	ICALL
                 	.ENDM
                 
                 	.MACRO __CALL2EX
                 	SUBI R26,LOW(-@0)
                 	SBCI R27,HIGH(-@0)
                 	CALL __EEPROMRDD
                 	ICALL
                 	.ENDM
                 
                 	.MACRO __GETW1STACK
                 	IN   R30,SPL
                 	IN   R31,SPH
                 	ADIW R30,@0+1
                 	LD   R0,Z+
                 	LD   R31,Z
                 	MOV  R30,R0
                 	.ENDM
                 
                 	.MACRO __GETD1STACK
                 	IN   R30,SPL
                 	IN   R31,SPH
                 	ADIW R30,@0+1
                 	LD   R0,Z+
                 	LD   R1,Z+
                 	LD   R22,Z
                 	MOVW R30,R0
                 	.ENDM
                 
                 	.MACRO __NBST
                 	BST  R@0,@1
                 	IN   R30,SREG
                 	LDI  R31,0x40
                 	EOR  R30,R31
                 	OUT  SREG,R30
                 	.ENDM
                 
                 
                 	.MACRO __PUTB1SN
                 	LDD  R26,Y+@0
                 	LDD  R27,Y+@0+1
                 	SUBI R26,LOW(-@1)
                 	SBCI R27,HIGH(-@1)
                 	ST   X,R30
                 	.ENDM
                 
                 	.MACRO __PUTW1SN
                 	LDD  R26,Y+@0
                 	LDD  R27,Y+@0+1
                 	SUBI R26,LOW(-@1)
                 	SBCI R27,HIGH(-@1)
                 	ST   X+,R30
                 	ST   X,R31
                 	.ENDM
                 
                 	.MACRO __PUTD1SN
                 	LDD  R26,Y+@0
                 	LDD  R27,Y+@0+1
                 	SUBI R26,LOW(-@1)
                 	SBCI R27,HIGH(-@1)
                 	CALL __PUTDP1
                 	.ENDM
                 
                 	.MACRO __PUTB1SNS
                 	LDD  R26,Y+@0
                 	LDD  R27,Y+@0+1
                 	ADIW R26,@1
                 	ST   X,R30
                 	.ENDM
                 
                 	.MACRO __PUTW1SNS
                 	LDD  R26,Y+@0
                 	LDD  R27,Y+@0+1
                 	ADIW R26,@1
                 	ST   X+,R30
                 	ST   X,R31
                 	.ENDM
                 
                 	.MACRO __PUTD1SNS
                 	LDD  R26,Y+@0
                 	LDD  R27,Y+@0+1
                 	ADIW R26,@1
                 	CALL __PUTDP1
                 	.ENDM
                 
                 	.MACRO __PUTB1PMN
                 	LDS  R26,@0
                 	LDS  R27,@0+1
                 	SUBI R26,LOW(-@1)
                 	SBCI R27,HIGH(-@1)
                 	ST   X,R30
                 	.ENDM
                 
                 	.MACRO __PUTW1PMN
                 	LDS  R26,@0
                 	LDS  R27,@0+1
                 	SUBI R26,LOW(-@1)
                 	SBCI R27,HIGH(-@1)
                 	ST   X+,R30
                 	ST   X,R31
                 	.ENDM
                 
                 	.MACRO __PUTD1PMN
                 	LDS  R26,@0
                 	LDS  R27,@0+1
                 	SUBI R26,LOW(-@1)
                 	SBCI R27,HIGH(-@1)
                 	CALL __PUTDP1
                 	.ENDM
                 
                 	.MACRO __PUTB1PMNS
                 	LDS  R26,@0
                 	LDS  R27,@0+1
                 	ADIW R26,@1
                 	ST   X,R30
                 	.ENDM
                 
                 	.MACRO __PUTW1PMNS
                 	LDS  R26,@0
                 	LDS  R27,@0+1
                 	ADIW R26,@1
                 	ST   X+,R30
                 	ST   X,R31
                 	.ENDM
                 
                 	.MACRO __PUTD1PMNS
                 	LDS  R26,@0
                 	LDS  R27,@0+1
                 	ADIW R26,@1
                 	CALL __PUTDP1
                 	.ENDM
                 
                 	.MACRO __PUTB1RN
                 	MOVW R26,R@0
                 	SUBI R26,LOW(-@1)
                 	SBCI R27,HIGH(-@1)
                 	ST   X,R30
                 	.ENDM
                 
                 	.MACRO __PUTW1RN
                 	MOVW R26,R@0
                 	SUBI R26,LOW(-@1)
                 	SBCI R27,HIGH(-@1)
                 	ST   X+,R30
                 	ST   X,R31
                 	.ENDM
                 
                 	.MACRO __PUTD1RN
                 	MOVW R26,R@0
                 	SUBI R26,LOW(-@1)
                 	SBCI R27,HIGH(-@1)
                 	CALL __PUTDP1
                 	.ENDM
                 
                 	.MACRO __PUTB1RNS
                 	MOVW R26,R@0
                 	ADIW R26,@1
                 	ST   X,R30
                 	.ENDM
                 
                 	.MACRO __PUTW1RNS
                 	MOVW R26,R@0
                 	ADIW R26,@1
                 	ST   X+,R30
                 	ST   X,R31
                 	.ENDM
                 
                 	.MACRO __PUTD1RNS
                 	MOVW R26,R@0
                 	ADIW R26,@1
                 	CALL __PUTDP1
                 	.ENDM
                 
                 	.MACRO __PUTB1RON
                 	MOV  R26,R@0
                 	MOV  R27,R@1
                 	SUBI R26,LOW(-@2)
                 	SBCI R27,HIGH(-@2)
                 	ST   X,R30
                 	.ENDM
                 
                 	.MACRO __PUTW1RON
                 	MOV  R26,R@0
                 	MOV  R27,R@1
                 	SUBI R26,LOW(-@2)
                 	SBCI R27,HIGH(-@2)
                 	ST   X+,R30
                 	ST   X,R31
                 	.ENDM
                 
                 	.MACRO __PUTD1RON
                 	MOV  R26,R@0
                 	MOV  R27,R@1
                 	SUBI R26,LOW(-@2)
                 	SBCI R27,HIGH(-@2)
                 	CALL __PUTDP1
                 	.ENDM
                 
                 	.MACRO __PUTB1RONS
                 	MOV  R26,R@0
                 	MOV  R27,R@1
                 	ADIW R26,@2
                 	ST   X,R30
                 	.ENDM
                 
                 	.MACRO __PUTW1RONS
                 	MOV  R26,R@0
                 	MOV  R27,R@1
                 	ADIW R26,@2
                 	ST   X+,R30
                 	ST   X,R31
                 	.ENDM
                 
                 	.MACRO __PUTD1RONS
                 	MOV  R26,R@0
                 	MOV  R27,R@1
                 	ADIW R26,@2
                 	CALL __PUTDP1
                 	.ENDM
                 
                 
                 	.MACRO __GETB1SX
                 	MOVW R30,R28
                 	SUBI R30,LOW(-@0)
                 	SBCI R31,HIGH(-@0)
                 	LD   R30,Z
                 	.ENDM
                 
                 	.MACRO __GETB1HSX
                 	MOVW R30,R28
                 	SUBI R30,LOW(-@0)
                 	SBCI R31,HIGH(-@0)
                 	LD   R31,Z
                 	.ENDM
                 
                 	.MACRO __GETW1SX
                 	MOVW R30,R28
                 	SUBI R30,LOW(-@0)
                 	SBCI R31,HIGH(-@0)
                 	LD   R0,Z+
                 	LD   R31,Z
                 	MOV  R30,R0
                 	.ENDM
                 
                 	.MACRO __GETD1SX
                 	MOVW R30,R28
                 	SUBI R30,LOW(-@0)
                 	SBCI R31,HIGH(-@0)
                 	LD   R0,Z+
                 	LD   R1,Z+
                 	LD   R22,Z+
                 	LD   R23,Z
                 	MOVW R30,R0
                 	.ENDM
                 
                 	.MACRO __GETB2SX
                 	MOVW R26,R28
                 	SUBI R26,LOW(-@0)
                 	SBCI R27,HIGH(-@0)
                 	LD   R26,X
                 	.ENDM
                 
                 	.MACRO __GETW2SX
                 	MOVW R26,R28
                 	SUBI R26,LOW(-@0)
                 	SBCI R27,HIGH(-@0)
                 	LD   R0,X+
                 	LD   R27,X
                 	MOV  R26,R0
                 	.ENDM
                 
                 	.MACRO __GETD2SX
                 	MOVW R26,R28
                 	SUBI R26,LOW(-@0)
                 	SBCI R27,HIGH(-@0)
                 	LD   R0,X+
                 	LD   R1,X+
                 	LD   R24,X+
                 	LD   R25,X
                 	MOVW R26,R0
                 	.ENDM
                 
                 	.MACRO __GETBRSX
                 	MOVW R30,R28
                 	SUBI R30,LOW(-@1)
                 	SBCI R31,HIGH(-@1)
                 	LD   R@0,Z
                 	.ENDM
                 
                 	.MACRO __GETWRSX
                 	MOVW R30,R28
                 	SUBI R30,LOW(-@2)
                 	SBCI R31,HIGH(-@2)
                 	LD   R@0,Z+
                 	LD   R@1,Z
                 	.ENDM
                 
                 	.MACRO __GETBRSX2
                 	MOVW R26,R28
                 	SUBI R26,LOW(-@1)
                 	SBCI R27,HIGH(-@1)
                 	LD   R@0,X
                 	.ENDM
                 
                 	.MACRO __GETWRSX2
                 	MOVW R26,R28
                 	SUBI R26,LOW(-@2)
                 	SBCI R27,HIGH(-@2)
                 	LD   R@0,X+
                 	LD   R@1,X
                 	.ENDM
                 
                 	.MACRO __LSLW8SX
                 	MOVW R30,R28
                 	SUBI R30,LOW(-@0)
                 	SBCI R31,HIGH(-@0)
                 	LD   R31,Z
                 	CLR  R30
                 	.ENDM
                 
                 	.MACRO __PUTB1SX
                 	MOVW R26,R28
                 	SUBI R26,LOW(-@0)
                 	SBCI R27,HIGH(-@0)
                 	ST   X,R30
                 	.ENDM
                 
                 	.MACRO __PUTW1SX
                 	MOVW R26,R28
                 	SUBI R26,LOW(-@0)
                 	SBCI R27,HIGH(-@0)
                 	ST   X+,R30
                 	ST   X,R31
                 	.ENDM
                 
                 	.MACRO __PUTD1SX
                 	MOVW R26,R28
                 	SUBI R26,LOW(-@0)
                 	SBCI R27,HIGH(-@0)
                 	ST   X+,R30
                 	ST   X+,R31
                 	ST   X+,R22
                 	ST   X,R23
                 	.ENDM
                 
                 	.MACRO __CLRW1SX
                 	MOVW R26,R28
                 	SUBI R26,LOW(-@0)
                 	SBCI R27,HIGH(-@0)
                 	ST   X+,R30
                 	ST   X,R30
                 	.ENDM
                 
                 	.MACRO __CLRD1SX
                 	MOVW R26,R28
                 	SUBI R26,LOW(-@0)
                 	SBCI R27,HIGH(-@0)
                 	ST   X+,R30
                 	ST   X+,R30
                 	ST   X+,R30
                 	ST   X,R30
                 	.ENDM
                 
                 	.MACRO __PUTB2SX
                 	MOVW R30,R28
                 	SUBI R30,LOW(-@0)
                 	SBCI R31,HIGH(-@0)
                 	ST   Z,R26
                 	.ENDM
                 
                 	.MACRO __PUTW2SX
                 	MOVW R30,R28
                 	SUBI R30,LOW(-@0)
                 	SBCI R31,HIGH(-@0)
                 	ST   Z+,R26
                 	ST   Z,R27
                 	.ENDM
                 
                 	.MACRO __PUTD2SX
                 	MOVW R30,R28
                 	SUBI R30,LOW(-@0)
                 	SBCI R31,HIGH(-@0)
                 	ST   Z+,R26
                 	ST   Z+,R27
                 	ST   Z+,R24
                 	ST   Z,R25
                 	.ENDM
                 
                 	.MACRO __PUTBSRX
                 	MOVW R30,R28
                 	SUBI R30,LOW(-@1)
                 	SBCI R31,HIGH(-@1)
                 	ST   Z,R@0
                 	.ENDM
                 
                 	.MACRO __PUTWSRX
                 	MOVW R30,R28
                 	SUBI R30,LOW(-@2)
                 	SBCI R31,HIGH(-@2)
                 	ST   Z+,R@0
                 	ST   Z,R@1
                 	.ENDM
                 
                 	.MACRO __PUTB1SNX
                 	MOVW R26,R28
                 	SUBI R26,LOW(-@0)
                 	SBCI R27,HIGH(-@0)
                 	LD   R0,X+
                 	LD   R27,X
                 	MOV  R26,R0
                 	SUBI R26,LOW(-@1)
                 	SBCI R27,HIGH(-@1)
                 	ST   X,R30
                 	.ENDM
                 
                 	.MACRO __PUTW1SNX
                 	MOVW R26,R28
                 	SUBI R26,LOW(-@0)
                 	SBCI R27,HIGH(-@0)
                 	LD   R0,X+
                 	LD   R27,X
                 	MOV  R26,R0
                 	SUBI R26,LOW(-@1)
                 	SBCI R27,HIGH(-@1)
                 	ST   X+,R30
                 	ST   X,R31
                 	.ENDM
                 
                 	.MACRO __PUTD1SNX
                 	MOVW R26,R28
                 	SUBI R26,LOW(-@0)
                 	SBCI R27,HIGH(-@0)
                 	LD   R0,X+
                 	LD   R27,X
                 	MOV  R26,R0
                 	SUBI R26,LOW(-@1)
                 	SBCI R27,HIGH(-@1)
                 	ST   X+,R30
                 	ST   X+,R31
                 	ST   X+,R22
                 	ST   X,R23
                 	.ENDM
                 
                 	.MACRO __MULBRR
                 	MULS R@0,R@1
                 	MOVW R30,R0
                 	.ENDM
                 
                 	.MACRO __MULBRRU
                 	MUL  R@0,R@1
                 	MOVW R30,R0
                 	.ENDM
                 
                 	.MACRO __MULBRR0
                 	MULS R@0,R@1
                 	.ENDM
                 
                 	.MACRO __MULBRRU0
                 	MUL  R@0,R@1
                 	.ENDM
                 
                 	.MACRO __MULBNWRU
                 	LDI  R26,@2
                 	MUL  R26,R@0
                 	MOVW R30,R0
                 	MUL  R26,R@1
                 	ADD  R31,R0
                 	.ENDM
                 
                 ;NAME DEFINITIONS FOR GLOBAL VARIABLES ALLOCATED TO REGISTERS
                 	.DEF _cursor=R4
                 	.DEF _freq=R5
                 	.DEF _freq_msb=R6
                 	.DEF _br=R7
                 	.DEF _br_msb=R8
                 	.DEF _j=R3
                 	.DEF _i=R9
                 	.DEF _i_msb=R10
                 	.DEF _d=R12
                 	.DEF _c=R11
                 	.DEF _u=R14
                 
                 ;GPIOR0 INITIALIZATION VALUE
                 	.EQU __GPIOR0_INIT=0x00
                 
                 	.CSEG
                 	.ORG 0x00
                 
                 ;START OF CODE MARKER
                 __START_OF_CODE:
                 
                 ;INTERRUPT VECTORS
000000 940c 011c 	JMP  __RESET
000002 940c 0000 	JMP  0x00
000004 940c 0000 	JMP  0x00
000006 940c 0000 	JMP  0x00
000008 940c 0000 	JMP  0x00
00000a 940c 0000 	JMP  0x00
00000c 940c 0000 	JMP  0x00
00000e 940c 0000 	JMP  0x00
000010 940c 0000 	JMP  0x00
000012 940c 0000 	JMP  0x00
000014 940c 0000 	JMP  0x00
000016 940c 0000 	JMP  0x00
000018 940c 0000 	JMP  0x00
00001a 940c 0000 	JMP  0x00
00001c 940c 0000 	JMP  0x00
00001e 940c 0000 	JMP  0x00
000020 940c 0000 	JMP  0x00
000022 940c 0269 	JMP  _timer1_compa_isr
000024 940c 0000 	JMP  0x00
000026 940c 0000 	JMP  0x00
000028 940c 0000 	JMP  0x00
00002a 940c 0000 	JMP  0x00
00002c 940c 0000 	JMP  0x00
00002e 940c 0000 	JMP  0x00
000030 940c 0000 	JMP  0x00
000032 940c 0000 	JMP  0x00
000034 940c 0000 	JMP  0x00
000036 940c 0000 	JMP  0x00
000038 940c 0000 	JMP  0x00
00003a 940c 0000 	JMP  0x00
00003c 940c 0000 	JMP  0x00
00003e 940c 0000 	JMP  0x00
000040 940c 0000 	JMP  0x00
000042 940c 0000 	JMP  0x00
000044 940c 0000 	JMP  0x00
000046 940c 0000 	JMP  0x00
000048 940c 0000 	JMP  0x00
00004a 940c 0000 	JMP  0x00
                 
                 _Letra0:
00004c bbc7
00004d bbbb
00004e bbbb
00004f bbbb      	.DB  0xC7,0xBB,0xBB,0xBB,0xBB,0xBB,0xBB,0xBB
D:\JavierJr\Documents\ISD\FebJun20\LabMicrocontroladores\CodeVision\P03_Scope\Debug\List\scope.asm(1164): warning: .cseg .db misalignment - padding zero byte
000050 00c7      	.DB  0xC7
                 _Letra1:
000051 8fef
000052 efef
000053 efef
000054 efef      	.DB  0xEF,0x8F,0xEF,0xEF,0xEF,0xEF,0xEF,0xEF
D:\JavierJr\Documents\ISD\FebJun20\LabMicrocontroladores\CodeVision\P03_Scope\Debug\List\scope.asm(1167): warning: .cseg .db misalignment - padding zero byte
000055 0083      	.DB  0x83
                 _Letra2:
000056 bbc7
000057 fbfb
000058 eff7
000059 bfdf      	.DB  0xC7,0xBB,0xFB,0xFB,0xF7,0xEF,0xDF,0xBF
D:\JavierJr\Documents\ISD\FebJun20\LabMicrocontroladores\CodeVision\P03_Scope\Debug\List\scope.asm(1170): warning: .cseg .db misalignment - padding zero byte
00005a 0083      	.DB  0x83
                 _Letra3:
00005b bbc7
00005c fbfb
00005d fbe7
00005e bbfb      	.DB  0xC7,0xBB,0xFB,0xFB,0xE7,0xFB,0xFB,0xBB
D:\JavierJr\Documents\ISD\FebJun20\LabMicrocontroladores\CodeVision\P03_Scope\Debug\List\scope.asm(1173): warning: .cseg .db misalignment - padding zero byte
00005f 00c7      	.DB  0xC7
                 _Letra4:
000060 e7f7
000061 d7e7
000062 b7d7
000063 f783      	.DB  0xF7,0xE7,0xE7,0xD7,0xD7,0xB7,0x83,0xF7
D:\JavierJr\Documents\ISD\FebJun20\LabMicrocontroladores\CodeVision\P03_Scope\Debug\List\scope.asm(1176): warning: .cseg .db misalignment - padding zero byte
000064 00e3      	.DB  0xE3
                 _Letra5:
000065 bf83
000066 bfbf
000067 fb87
000068 bbfb      	.DB  0x83,0xBF,0xBF,0xBF,0x87,0xFB,0xFB,0xBB
D:\JavierJr\Documents\ISD\FebJun20\LabMicrocontroladores\CodeVision\P03_Scope\Debug\List\scope.asm(1179): warning: .cseg .db misalignment - padding zero byte
000069 00c7      	.DB  0xC7
                 _Letra6:
00006a dfe7
00006b bfbf
00006c bb87
00006d bbbb      	.DB  0xE7,0xDF,0xBF,0xBF,0x87,0xBB,0xBB,0xBB
D:\JavierJr\Documents\ISD\FebJun20\LabMicrocontroladores\CodeVision\P03_Scope\Debug\List\scope.asm(1182): warning: .cseg .db misalignment - padding zero byte
00006e 00c7      	.DB  0xC7
                 _Letra7:
00006f bb83
000070 f7fb
000071 eff7
000072 dfef      	.DB  0x83,0xBB,0xFB,0xF7,0xF7,0xEF,0xEF,0xDF
D:\JavierJr\Documents\ISD\FebJun20\LabMicrocontroladores\CodeVision\P03_Scope\Debug\List\scope.asm(1185): warning: .cseg .db misalignment - padding zero byte
000073 00df      	.DB  0xDF
                 _Letra8:
000074 bbc7
000075 bbbb
000076 bbc7
000077 bbbb      	.DB  0xC7,0xBB,0xBB,0xBB,0xC7,0xBB,0xBB,0xBB
D:\JavierJr\Documents\ISD\FebJun20\LabMicrocontroladores\CodeVision\P03_Scope\Debug\List\scope.asm(1188): warning: .cseg .db misalignment - padding zero byte
000078 00c7      	.DB  0xC7
                 _Letra9:
000079 bbc7
00007a bbbb
00007b fbc3
00007c f7fb      	.DB  0xC7,0xBB,0xBB,0xBB,0xC3,0xFB,0xFB,0xF7
D:\JavierJr\Documents\ISD\FebJun20\LabMicrocontroladores\CodeVision\P03_Scope\Debug\List\scope.asm(1191): warning: .cseg .db misalignment - padding zero byte
00007d 00cf      	.DB  0xCF
                 _LetraH:
00007e dd88
00007f dddd
000080 ddc1
000081 dddd      	.DB  0x88,0xDD,0xDD,0xDD,0xC1,0xDD,0xDD,0xDD
D:\JavierJr\Documents\ISD\FebJun20\LabMicrocontroladores\CodeVision\P03_Scope\Debug\List\scope.asm(1194): warning: .cseg .db misalignment - padding zero byte
000082 0088      	.DB  0x88
                 _LetraZ:
000083 ffff
000084 81ff
000085 f7bb
000086 ddef      	.DB  0xFF,0xFF,0xFF,0x81,0xBB,0xF7,0xEF,0xDD
D:\JavierJr\Documents\ISD\FebJun20\LabMicrocontroladores\CodeVision\P03_Scope\Debug\List\scope.asm(1197): warning: .cseg .db misalignment - padding zero byte
000087 0081      	.DB  0x81
                 _k1:
000088 2220
000089 2b2a
00008a 5b2c
00008b 5d3d      	.DB  0x20,0x22,0x2A,0x2B,0x2C,0x5B,0x3D,0x5D
00008c 7f7c
D:\JavierJr\Documents\ISD\FebJun20\LabMicrocontroladores\CodeVision\P03_Scope\Debug\List\scope.asm(1200): warning: .cseg .db misalignment - padding zero byte
00008d 0000      	.DB  0x7C,0x7F,0x0
                 _vst_G101:
00008e 0400
00008f 0200
000090 0100
000091 0080      	.DB  0x0,0x4,0x0,0x2,0x0,0x1,0x80,0x0
000092 0040
000093 0020
000094 0010
000095 0008      	.DB  0x40,0x0,0x20,0x0,0x10,0x0,0x8,0x0
000096 0004
000097 0002
000098 0000      	.DB  0x4,0x0,0x2,0x0,0x0,0x0
                 _cst_G101:
000099 8000
00009a 4000
00009b 2000
00009c 1000      	.DB  0x0,0x80,0x0,0x40,0x0,0x20,0x0,0x10
00009d 0800
00009e 4000
00009f 2000
0000a0 1000      	.DB  0x0,0x8,0x0,0x40,0x0,0x20,0x0,0x10
0000a1 0800
0000a2 0400
0000a3 0200      	.DB  0x0,0x8,0x0,0x4,0x0,0x2
                 _tbl10_G102:
0000a4 2710
0000a5 03e8
0000a6 0064
0000a7 000a      	.DB  0x10,0x27,0xE8,0x3,0x64,0x0,0xA,0x0
0000a8 0001      	.DB  0x1,0x0
                 _tbl16_G102:
0000a9 1000
0000aa 0100
0000ab 0010
0000ac 0001      	.DB  0x0,0x10,0x0,0x1,0x10,0x0,0x1,0x0
                 
                 _0x3:
0000ad 0303
0000ae 0203
0000af 0c02
0000b0 0800      	.DB  0x3,0x3,0x3,0x2,0x2,0xC,0x0,0x8
0000b1 0100
0000b2 0600      	.DB  0x0,0x1,0x0,0x6
                 _0x2D:
0000b3 3a30
0000b4 4d49
0000b5 3030
0000b6 2e30      	.DB  0x30,0x3A,0x49,0x4D,0x30,0x30,0x30,0x2E
0000b7 4d42
D:\JavierJr\Documents\ISD\FebJun20\LabMicrocontroladores\CodeVision\P03_Scope\Debug\List\scope.asm(1220): warning: .cseg .db misalignment - padding zero byte
0000b8 0050      	.DB  0x42,0x4D,0x50
                 _0x0:
0000b9 7244
0000ba 7669
0000bb 2065
0000bc 6f6e      	.DB  0x44,0x72,0x69,0x76,0x65,0x20,0x6E,0x6F
0000bd 6420
0000be 7465
0000bf 6365
0000c0 6174      	.DB  0x20,0x64,0x65,0x74,0x65,0x63,0x74,0x61
0000c1 6f64
0000c2 4400
0000c3 6972
0000c4 6576      	.DB  0x64,0x6F,0x0,0x44,0x72,0x69,0x76,0x65
0000c5 6320
0000c6 7265
0000c7 6172
0000c8 6f64      	.DB  0x20,0x63,0x65,0x72,0x72,0x61,0x64,0x6F
0000c9 2e00
0000ca 2e2e
0000cb 5700
0000cc 6c65      	.DB  0x0,0x2E,0x2E,0x2E,0x0,0x57,0x65,0x6C
0000cd 6f63
0000ce 656d
0000cf 5300
0000d0 6174      	.DB  0x63,0x6F,0x6D,0x65,0x0,0x53,0x74,0x61
0000d1 7472
0000d2 6e69
0000d3 2067
0000d4 2020      	.DB  0x72,0x74,0x69,0x6E,0x67,0x20,0x20,0x20
0000d5 2020
0000d6 3000
0000d7 423a
0000d8 5341      	.DB  0x20,0x20,0x0,0x30,0x3A,0x42,0x41,0x53
0000d9 2e45
0000da 4d42
0000db 0050
0000dc 694c      	.DB  0x45,0x2E,0x42,0x4D,0x50,0x0,0x4C,0x69
0000dd 7473
0000de 206f
0000df 2020
0000e0 2020      	.DB  0x73,0x74,0x6F,0x20,0x20,0x20,0x20,0x20
0000e1 0020
0000e2 6946
0000e3 656c
0000e4 6520      	.DB  0x20,0x0,0x46,0x69,0x6C,0x65,0x20,0x65
0000e5 7272
0000e6 726f
0000e7 6200
0000e8 7361      	.DB  0x72,0x72,0x6F,0x72,0x0,0x62,0x61,0x73
0000e9 2e65
0000ea 6d62
0000eb 2070
0000ec 7265      	.DB  0x65,0x2E,0x62,0x6D,0x70,0x20,0x65,0x72
0000ed 6f72
0000ee 0072      	.DB  0x72,0x6F,0x72,0x0
                 _0x2000003:
D:\JavierJr\Documents\ISD\FebJun20\LabMicrocontroladores\CodeVision\P03_Scope\Debug\List\scope.asm(1237): warning: .cseg .db misalignment - padding zero byte
0000ef 0001      	.DB  0x1
                 _0x20000FE:
D:\JavierJr\Documents\ISD\FebJun20\LabMicrocontroladores\CodeVision\P03_Scope\Debug\List\scope.asm(1239): warning: .cseg .db misalignment - padding zero byte
0000f0 0004      	.DB  0x4
                 _0x2020000:
0000f1 feeb
0000f2 4d90
0000f3 4453
0000f4 534f      	.DB  0xEB,0xFE,0x90,0x4D,0x53,0x44,0x4F,0x53
0000f5 2e35
0000f6 0030
0000f7 4f4e
0000f8 4e20      	.DB  0x35,0x2E,0x30,0x0,0x4E,0x4F,0x20,0x4E
0000f9 4d41
0000fa 2045
0000fb 2020
0000fc 4620      	.DB  0x41,0x4D,0x45,0x20,0x20,0x20,0x20,0x46
0000fd 5441
0000fe 3233
0000ff 2020
000100 0020      	.DB  0x41,0x54,0x33,0x32,0x20,0x20,0x20,0x0
000101 4f4e
000102 4e20
000103 4d41
000104 2045      	.DB  0x4E,0x4F,0x20,0x4E,0x41,0x4D,0x45,0x20
000105 2020
000106 4620
000107 5441
000108 2020      	.DB  0x20,0x20,0x20,0x46,0x41,0x54,0x20,0x20
000109 2020
00010a 0020      	.DB  0x20,0x20,0x20,0x0
                 
                 __GLOBAL_INI_TBL:
00010b 000b      	.DW  0x0B
00010c 0a0f      	.DW  _fileName
00010d 0166 0000 	.DD  _0x2D*2
                 
00010f 000b      	.DW  0x0B
000110 0900      	.DW  _0x6D
000111 01ad 0000 	.DD  _0x0*2+59
                 
000113 0001      	.DW  0x01
000114 0ef4      	.DW  _status_G100
000115 01de 0000 	.DD  _0x2000003*2
                 
000117 0001      	.DW  0x01
000118 0ef8      	.DW  _flags_S100000C000
000119 01e0 0000 	.DD  _0x20000FE*2
                 
                 _0xFFFFFFFF:
00011b 0000      	.DW  0
                 
                 #define __GLOBAL_INI_TBL_PRESENT 1
                 
                 __RESET:
00011c 94f8      	CLI
00011d 27ee      	CLR  R30
00011e bbef      	OUT  EECR,R30
                 
                 ;INTERRUPT VECTORS ARE PLACED
                 ;AT THE START OF FLASH
00011f e0f1      	LDI  R31,1
000120 bff5      	OUT  MCUCR,R31
000121 bfe5      	OUT  MCUCR,R30
                 
                 ;CLEAR R2-R14
000122 e08d      	LDI  R24,(14-2)+1
000123 e0a2      	LDI  R26,2
000124 27bb      	CLR  R27
                 __CLEAR_REG:
000125 93ed      	ST   X+,R30
000126 958a      	DEC  R24
000127 f7e9      	BRNE __CLEAR_REG
                 
                 ;CLEAR SRAM
000128 e080      	LDI  R24,LOW(__CLEAR_SRAM_SIZE)
000129 e290      	LDI  R25,HIGH(__CLEAR_SRAM_SIZE)
00012a e0a0      	LDI  R26,LOW(__SRAM_START)
00012b e0b1      	LDI  R27,HIGH(__SRAM_START)
                 __CLEAR_SRAM:
00012c 93ed      	ST   X+,R30
00012d 9701      	SBIW R24,1
00012e f7e9      	BRNE __CLEAR_SRAM
                 
                 ;GLOBAL VARIABLES INITIALIZATION
00012f e1e6      	LDI  R30,LOW(__GLOBAL_INI_TBL*2)
000130 e0f2      	LDI  R31,HIGH(__GLOBAL_INI_TBL*2)
000131 e0d0      	LDI  R29,BYTE3(__GLOBAL_INI_TBL*2)
                 __GLOBAL_INI_NEXT:
000132 bfdb      	OUT  RAMPZ,R29
000133 9187      	ELPM R24,Z+
000134 9197      	ELPM R25,Z+
000135 9700      	SBIW R24,0
000136 f081      	BREQ __GLOBAL_INI_END
000137 91a7      	ELPM R26,Z+
000138 91b7      	ELPM R27,Z+
000139 9007      	ELPM R0,Z+
00013a 9017      	ELPM R1,Z+
00013b 91c7      	ELPM R28,Z+
00013c 91d7      	ELPM R29,Z+
00013d 01bf      	MOVW R22,R30
00013e b7db      	IN   R29,RAMPZ
00013f 01f0      	MOVW R30,R0
000140 bfcb      	OUT  RAMPZ,R28
                 __GLOBAL_INI_LOOP:
000141 9007      	ELPM R0,Z+
000142 920d      	ST   X+,R0
000143 9701      	SBIW R24,1
000144 f7e1      	BRNE __GLOBAL_INI_LOOP
000145 01fb      	MOVW R30,R22
000146 cfeb      	RJMP __GLOBAL_INI_NEXT
                 __GLOBAL_INI_END:
                 
                 ;GPIOR0 INITIALIZATION
000147 e0e0      	LDI  R30,__GPIOR0_INIT
000148 bbee      	OUT  GPIOR0,R30
                 
                 ;HARDWARE STACK POINTER INITIALIZATION
000149 efef      	LDI  R30,LOW(__SRAM_END-__HEAP_SIZE)
00014a bfed      	OUT  SPL,R30
00014b e2e0      	LDI  R30,HIGH(__SRAM_END-__HEAP_SIZE)
00014c bfee      	OUT  SPH,R30
                 
                 ;DATA STACK POINTER INITIALIZATION
00014d e0c0      	LDI  R28,LOW(__SRAM_START+__DSTACK_SIZE)
00014e e0d9      	LDI  R29,HIGH(__SRAM_START+__DSTACK_SIZE)
                 
00014f 940c 03af 	JMP  _main
                 
                 	.ESEG
                 	.ORG 0
                 
                 	.DSEG
                 	.ORG 0x900
                 
                 	.CSEG
                 ;/*
                 ; * scope.c
                 ; *
                 ; * Created: 08/03/2020 06:58:19 p. m.
                 ; * Author: Chucho López Ortega
                 ; */
                 ;
                 ;// LCD config
                 ;#asm
                     .equ __lcd_port=0x11
                     .equ __lcd_EN=4
                     .equ __lcd_RS=5
                     .equ __lcd_D4=0
                     .equ __lcd_D5=1
                     .equ __lcd_D6=2
                     .equ __lcd_D7=3
                 ; 0000 0011 #endasm
                 ;
                 ;#include <90usb1286.h>
                 	#ifndef __SLEEP_DEFINED__
                 	#define __SLEEP_DEFINED__
                 	.EQU __se_bit=0x01
                 	.EQU __sm_mask=0x0E
                 	.EQU __sm_powerdown=0x04
                 	.EQU __sm_powersave=0x06
                 	.EQU __sm_standby=0x0C
                 	.EQU __sm_ext_standby=0x0E
                 	.EQU __sm_adc_noise_red=0x02
                 	.SET power_ctrl_reg=smcr
                 	#endif
                 ;#include <display.h>
                 
                 	.CSEG
                 _SetupLCD:
                 ; .FSTART _SetupLCD
000151 972c      	SBIW R28,12
000152 e08c      	LDI  R24,12
000153 e0a0      	LDI  R26,LOW(0)
000154 e0b0      	LDI  R27,HIGH(0)
000155 e5ea      	LDI  R30,LOW(_0x3*2)
000156 e0f1      	LDI  R31,HIGH(_0x3*2)
000157 e060      	LDI  R22,BYTE3(_0x3*2)
000158 940e 1eab 	CALL __INITLOCB
00015a 931a      	ST   -Y,R17
                 ;	TableSetup -> Y+1
                 ;	i -> R17
                 ; 0000 0014     SBI __lcd_port-1,__lcd_EN
00015b 9a84          SBI __lcd_port-1,__lcd_EN
00015c 9a85          SBI __lcd_port-1,__lcd_RS
00015d 9a80          SBI __lcd_port-1,__lcd_D4
00015e 9a81          SBI __lcd_port-1,__lcd_D5
00015f 9a82          SBI __lcd_port-1,__lcd_D6
000160 9a83          SBI __lcd_port-1,__lcd_D7
000161 e3a2      	LDI  R26,LOW(50)
000162 e0b0      	LDI  R27,0
000163 940e 1c26 	CALL _delay_ms
000165 e010      	LDI  R17,LOW(0)
                 _0x5:
000166 301c      	CPI  R17,12
000167 f468      	BRSH _0x6
000168 940e 183b 	CALL SUBOPT_0x0
00016a 2fe1      	MOV  R30,R17
00016b e0f0      	LDI  R31,0
00016c 01de      	MOVW R26,R28
00016d 9611      	ADIW R26,1
00016e 0fae      	ADD  R26,R30
00016f 1fbf      	ADC  R27,R31
000170 91ac      	LD   R26,X
000171 940e 183f 	CALL SUBOPT_0x1
000173 5f1f      	SUBI R17,-1
000174 cff1      	RJMP _0x5
                 _0x6:
000175 e0ec      	LDI  R30,LOW(12)
000176 2e4e      	MOV  R4,R30
000177 2da4      	MOV  R26,R4
000178 d021      	RCALL _WriteComandLCD
000179 8118      	LDD  R17,Y+0
00017a 962d      	ADIW R28,13
00017b 9508      	RET
                 ; .FEND
                 _PulseEn:
                 ; .FSTART _PulseEn
00017c 9a8c          SBI __lcd_port,__lcd_EN  // EN=1;
00017d 988c          CBI __lcd_port,__lcd_EN // EN=0;
00017e 9508      	RET
                 ; .FEND
                 _SendDataBitsLCD:
                 ; .FSTART _SendDataBitsLCD
00017f 93aa      	ST   -Y,R26
                 ;	dato -> Y+0
000180 81e8      	LD   R30,Y
000181 70e8      	ANDI R30,LOW(0x8)
000182 f011      	BREQ _0x7
000183 9a8b      	SBI __lcd_port,__lcd_D7
000184 c001      	RJMP _0x8
                 _0x7:
000185 988b      	CBI __lcd_port,__lcd_D7
                 _0x8:
000186 81e8      	LD   R30,Y
000187 70e4      	ANDI R30,LOW(0x4)
000188 f011      	BREQ _0x9
000189 9a8a      	SBI __lcd_port,__lcd_D6
00018a c001      	RJMP _0xA
                 _0x9:
00018b 988a      	CBI __lcd_port,__lcd_D6
                 _0xA:
00018c 81e8      	LD   R30,Y
00018d 70e2      	ANDI R30,LOW(0x2)
00018e f011      	BREQ _0xB
00018f 9a89      	SBI __lcd_port,__lcd_D5
000190 c001      	RJMP _0xC
                 _0xB:
000191 9889      	CBI __lcd_port,__lcd_D5
                 _0xC:
000192 81e8      	LD   R30,Y
000193 70e1      	ANDI R30,LOW(0x1)
000194 f011      	BREQ _0xD
000195 9a88      	SBI __lcd_port,__lcd_D4
000196 c001      	RJMP _0xE
                 _0xD:
000197 9888      	CBI __lcd_port,__lcd_D4
                 _0xE:
000198 940c 06ee 	JMP  _0x20A0017
                 ; .FEND
                 _WriteComandLCD:
                 ; .FSTART _WriteComandLCD
00019a 93aa      	ST   -Y,R26
00019b 931a      	ST   -Y,R17
                 ;	Comando -> Y+1
                 ;	tempComando -> R17
00019c 988d      	CBI __lcd_port,__lcd_RS
00019d 940e 183b 	CALL SUBOPT_0x0
00019f 940e 1843 	CALL SUBOPT_0x2
0001a1 940e 184a 	CALL SUBOPT_0x3
0001a3 dfd8      	RCALL _PulseEn
0001a4 8118      	LDD  R17,Y+0
0001a5 c041      	RJMP _0x20A001B
                 ; .FEND
                 _CharLCD:
                 ; .FSTART _CharLCD
0001a6 93aa      	ST   -Y,R26
0001a7 931a      	ST   -Y,R17
                 ;	dato -> Y+1
                 ;	tempdato -> R17
0001a8 9a8d      	SBI __lcd_port,__lcd_RS
0001a9 940e 183b 	CALL SUBOPT_0x0
0001ab 940e 1843 	CALL SUBOPT_0x2
0001ad 940e 184a 	CALL SUBOPT_0x3
0001af dfcc      	RCALL _PulseEn
0001b0 8118      	LDD  R17,Y+0
0001b1 c035      	RJMP _0x20A001B
                 ; .FEND
                 _StringLCD:
                 ; .FSTART _StringLCD
0001b2 940e 1e77 	CALL __PUTPARD2
0001b4 931a      	ST   -Y,R17
                 ;	i -> R17
0001b5 e010      	LDI  R17,LOW(0)
                 _0x10:
0001b6 2fe1      	MOV  R30,R17
0001b7 5f1f      	SUBI R17,-1
0001b8 940e 1851 	CALL SUBOPT_0x4
                +
0001ba bf6b     +OUT RAMPZ , R22
0001bb 91a6     +ELPM R26 , Z
                 	__GETBRPF 26
0001bc dfe9      	RCALL _CharLCD
0001bd 2fe1      	MOV  R30,R17
0001be 940e 1851 	CALL SUBOPT_0x4
                +
0001c0 bf6b     +OUT RAMPZ , R22
0001c1 91e6     +ELPM R30 , Z
                 	__GETBRPF 30
0001c2 30e0      	CPI  R30,0
0001c3 f791      	BRNE _0x10
0001c4 8118      	LDD  R17,Y+0
0001c5 9625      	ADIW R28,5
0001c6 9508      	RET
                 ; .FEND
                 ;	tiempo -> Y+1
                 ;	i -> R17
                 ;	Mensaje -> Y+1
                 ;	i -> R17
                 _EraseLCD:
                 ; .FSTART _EraseLCD
0001c7 e0a1      	LDI  R26,LOW(1)
0001c8 dfd1      	RCALL _WriteComandLCD
0001c9 9508      	RET
                 ; .FEND
                 _MoveCursor:
                 ; .FSTART _MoveCursor
0001ca 93aa      	ST   -Y,R26
                 ;	x -> Y+1
                 ;	y -> Y+0
0001cb 81e8      	LD   R30,Y
0001cc e0f0      	LDI  R31,0
0001cd 9730      	SBIW R30,0
0001ce f419      	BRNE _0x1B
0001cf 81a9      	LDD  R26,Y+1
0001d0 58a0      	SUBI R26,-LOW(128)
0001d1 c014      	RJMP _0x7F
                 _0x1B:
0001d2 30e1      	CPI  R30,LOW(0x1)
0001d3 e0a0      	LDI  R26,HIGH(0x1)
0001d4 07fa      	CPC  R31,R26
0001d5 f419      	BRNE _0x1C
0001d6 81a9      	LDD  R26,Y+1
0001d7 54a0      	SUBI R26,-LOW(192)
0001d8 c00d      	RJMP _0x7F
                 _0x1C:
0001d9 30e2      	CPI  R30,LOW(0x2)
0001da e0a0      	LDI  R26,HIGH(0x2)
0001db 07fa      	CPC  R31,R26
0001dc f419      	BRNE _0x1D
0001dd 81a9      	LDD  R26,Y+1
0001de 56ac      	SUBI R26,-LOW(148)
0001df c006      	RJMP _0x7F
                 _0x1D:
0001e0 30e3      	CPI  R30,LOW(0x3)
0001e1 e0a0      	LDI  R26,HIGH(0x3)
0001e2 07fa      	CPC  R31,R26
0001e3 f419      	BRNE _0x1A
0001e4 81a9      	LDD  R26,Y+1
0001e5 52ac      	SUBI R26,-LOW(212)
                 _0x7F:
0001e6 dfb3      	RCALL _WriteComandLCD
                 _0x1A:
                 _0x20A001B:
0001e7 9622      	ADIW R28,2
0001e8 9508      	RET
                 ; .FEND
                 ;	NoCaracter -> Y+3
                 ;	datos -> Y+1
                 ;	i -> R17
                 ;#include <delay.h>
                 ;#include <stdio.h>
                 ;#include <ff.h>
                 ;
                 ;// Voltage Reference: Int., cap. on AREF
                 ;#define ADC_VREF_TYPE ((1<<REFS1) | (1<<REFS0) | (0<<ADLAR))
                 ;
                 ;
                 ;// Read the AD conversion result
                 ;unsigned int read_adc(unsigned char adc_input)
                 ; 0000 001F {
                 _read_adc:
                 ; .FSTART _read_adc
                 ; 0000 0020 ADMUX=adc_input | ADC_VREF_TYPE;
0001e9 93aa      	ST   -Y,R26
                 ;	adc_input -> Y+0
0001ea 81e8      	LD   R30,Y
0001eb 6ce0      	ORI  R30,LOW(0xC0)
0001ec 93e0 007c 	STS  124,R30
                 ; 0000 0021 // Delay needed for the stabilization of the ADC input voltage
                 ; 0000 0022 // Start the AD conversion
                 ; 0000 0023 ADCSRA|=(1<<ADSC);
0001ee 91e0 007a 	LDS  R30,122
0001f0 64e0      	ORI  R30,0x40
0001f1 93e0 007a 	STS  122,R30
                 ; 0000 0024 // Wait for the AD conversion to complete
                 ; 0000 0025 while ((ADCSRA & (1<<ADIF))==0);
                 _0x22:
0001f3 91e0 007a 	LDS  R30,122
0001f5 71e0      	ANDI R30,LOW(0x10)
0001f6 f3e1      	BREQ _0x22
                 ; 0000 0026 ADCSRA|=(1<<ADIF);
0001f7 91e0 007a 	LDS  R30,122
0001f9 61e0      	ORI  R30,0x10
0001fa 93e0 007a 	STS  122,R30
                 ; 0000 0027 return ADCW;
0001fc 91e0 0078 	LDS  R30,120
0001fe 91f0 0079 	LDS  R31,120+1
000200 940c 06ee 	JMP  _0x20A0017
                 ; 0000 0028 }
                 ; .FEND
                 ;
                 ;int buffer[128];
                 ;
                 ;int frequency(){
                 ; 0000 002C int frequency(){
                 _frequency:
                 ; .FSTART _frequency
                 ; 0000 002D     char i=0, max, iMax, freq;
                 ; 0000 002E     max = buffer[0];
000202 940e 1e9f 	CALL __SAVELOCR4
                 ;	i -> R17
                 ;	max -> R16
                 ;	iMax -> R19
                 ;	freq -> R18
000204 e010      	LDI  R17,0
000205 9100 090f 	LDS  R16,_buffer
                 ; 0000 002F     iMax = i;
000207 2f31      	MOV  R19,R17
                 ; 0000 0030     for ( i=1;i<128;i++){
000208 e011      	LDI  R17,LOW(1)
                 _0x26:
000209 3810      	CPI  R17,128
00020a f568      	BRSH _0x27
                 ; 0000 0031         if(max == buffer[i]){
00020b 940e 185b 	CALL SUBOPT_0x5
00020d 17ea      	CP   R30,R26
00020e 07fb      	CPC  R31,R27
00020f f4e1      	BRNE _0x28
                 ; 0000 0032             freq = 1/(((float)(i - iMax))*0.000039);
000210 2fa1      	MOV  R26,R17
000211 27bb      	CLR  R27
000212 2fe3      	MOV  R30,R19
000213 e0f0      	LDI  R31,0
000214 940e 1e82 	CALL __SWAPW12
000216 1bea      	SUB  R30,R26
000217 0bfb      	SBC  R31,R27
000218 940e 1db5 	CALL __CWD1
00021a 940e 1c96 	CALL __CDF1
                +
00021c eeae     +LDI R26 , LOW ( 0x382393EE )
00021d e9b3     +LDI R27 , HIGH ( 0x382393EE )
00021e e283     +LDI R24 , BYTE3 ( 0x382393EE )
00021f e398     +LDI R25 , BYTE4 ( 0x382393EE )
                 	__GETD2N 0x382393EE
000220 940e 1cc4 	CALL __MULF12
                +
000222 e0a0     +LDI R26 , LOW ( 0x3F800000 )
000223 e0b0     +LDI R27 , HIGH ( 0x3F800000 )
000224 e880     +LDI R24 , BYTE3 ( 0x3F800000 )
000225 e39f     +LDI R25 , BYTE4 ( 0x3F800000 )
                 	__GETD2N 0x3F800000
000226 940e 1d12 	CALL __DIVF21
000228 940e 1c5d 	CALL __CFD1U
00022a 2f2e      	MOV  R18,R30
                 ; 0000 0033             iMax = i;
00022b 2f31      	MOV  R19,R17
                 ; 0000 0034         }
                 ; 0000 0035         if(max<buffer[i]){
                 _0x28:
00022c 940e 185b 	CALL SUBOPT_0x5
00022e 17ae      	CP   R26,R30
00022f 07bf      	CPC  R27,R31
000230 f42c      	BRGE _0x29
                 ; 0000 0036             max = buffer[i];
000231 2fe1      	MOV  R30,R17
000232 940e 1868 	CALL SUBOPT_0x6
000234 910c      	LD   R16,X
                 ; 0000 0037             iMax = i;
000235 2f31      	MOV  R19,R17
                 ; 0000 0038         }
                 ; 0000 0039     }
                 _0x29:
000236 5f1f      	SUBI R17,-1
000237 cfd1      	RJMP _0x26
                 _0x27:
                 ; 0000 003A     return (int)freq;
000238 2fe2      	MOV  R30,R18
000239 e0f0      	LDI  R31,0
00023a 940e 1ea6 	CALL __LOADLOCR4
00023c c170      	RJMP _0x20A001A
                 ; 0000 003B }
                 ; .FEND
                 ;
                 ;// Fills the array to sample the scope shot
                 ;void scope(){
                 ; 0000 003E void scope(){
                 _scope:
                 ; .FSTART _scope
                 ; 0000 003F     int i;
                 ; 0000 0040     for (i=0;i<128;i++){
00023d 931a      	ST   -Y,R17
00023e 930a      	ST   -Y,R16
                 ;	i -> R16,R17
                +
00023f e000     +LDI R16 , LOW ( 0 )
000240 e010     +LDI R17 , HIGH ( 0 )
                 	__GETWRN 16,17,0
                 _0x2B:
                +
000241 3800     +CPI R16 , LOW ( 128 )
000242 e0e0     +LDI R30 , HIGH ( 128 )
000243 071e     +CPC R17 , R30
                 	__CPWRN 16,17,128
000244 f50c      	BRGE _0x2C
                 ; 0000 0041         buffer[i] = read_adc(7);
000245 01f8      	MOVW R30,R16
000246 e0af      	LDI  R26,LOW(_buffer)
000247 e0b9      	LDI  R27,HIGH(_buffer)
000248 0fee      	LSL  R30
000249 1fff      	ROL  R31
00024a 0fea      	ADD  R30,R26
00024b 1ffb      	ADC  R31,R27
00024c 93ff      	PUSH R31
00024d 93ef      	PUSH R30
00024e e0a7      	LDI  R26,LOW(7)
00024f df99      	RCALL _read_adc
000250 91af      	POP  R26
000251 91bf      	POP  R27
000252 93ed      	ST   X+,R30
000253 93fc      	ST   X,R31
                 ; 0000 0042         delay_us(21);
                +
000254 e780     +LDI R24 , LOW ( 112 )
                +__DELAY_USB_LOOP :
000255 958a     +DEC R24
000256 f7f1     +BRNE __DELAY_USB_LOOP
                 	__DELAY_USB 112
                 ; 0000 0043         #asm("NOP");
000257 0000      	NOP
                 ; 0000 0044         #asm("NOP");
000258 0000      	NOP
                 ; 0000 0045         #asm("NOP");
000259 0000      	NOP
                 ; 0000 0046         #asm("NOP");
00025a 0000      	NOP
                 ; 0000 0047         #asm("NOP");
00025b 0000      	NOP
                 ; 0000 0048         #asm("NOP");
00025c 0000      	NOP
                 ; 0000 0049         #asm("NOP");
00025d 0000      	NOP
                 ; 0000 004A         #asm("NOP");
00025e 0000      	NOP
                 ; 0000 004B         #asm("NOP");
00025f 0000      	NOP
                 ; 0000 004C         #asm("NOP");
000260 0000      	NOP
                 ; 0000 004D         #asm("NOP");
000261 0000      	NOP
                 ; 0000 004E         #asm("NOP");
000262 0000      	NOP
                 ; 0000 004F     }
                +
000263 5f0f     +SUBI R16 , LOW ( - 1 )
000264 4f1f     +SBCI R17 , HIGH ( - 1 )
                 	__ADDWRN 16,17,1
000265 cfdb      	RJMP _0x2B
                 _0x2C:
                 ; 0000 0050 }
000266 9109      	LD   R16,Y+
000267 9119      	LD   R17,Y+
000268 9508      	RET
                 ; .FEND
                 ;
                 ;int freq;
                 ;
                 ;
                 ;// SD
                 ;char fileName[]  = "0:IM000.BMP";
                 
                 	.DSEG
                 ;unsigned int br;
                 ;/* will hold the information for logical drive 0: */
                 ;FATFS drive;
                 ;FIL archivo; // file objects
                 ;
                 ;interrupt [TIM1_COMPA] void timer1_compa_isr(void)
                 ; 0000 005D {
                 
                 	.CSEG
                 _timer1_compa_isr:
                 ; .FSTART _timer1_compa_isr
000269 920a      	ST   -Y,R0
00026a 921a      	ST   -Y,R1
00026b 92fa      	ST   -Y,R15
00026c 936a      	ST   -Y,R22
00026d 937a      	ST   -Y,R23
00026e 938a      	ST   -Y,R24
00026f 939a      	ST   -Y,R25
000270 93aa      	ST   -Y,R26
000271 93ba      	ST   -Y,R27
000272 93ea      	ST   -Y,R30
000273 93fa      	ST   -Y,R31
000274 b7eb      	IN   R30,RAMPZ
000275 93ea      	ST   -Y,R30
000276 b7ef      	IN   R30,SREG
000277 93ea      	ST   -Y,R30
                 ; 0000 005E disk_timerproc();
000278 940e 095c 	CALL _disk_timerproc
                 ; 0000 005F /* MMC/SD/SD HC card access low level timing function */
                 ; 0000 0060 }
00027a 91e9      	LD   R30,Y+
00027b bfef      	OUT  SREG,R30
00027c 91e9      	LD   R30,Y+
00027d bfeb      	OUT  RAMPZ,R30
00027e 91f9      	LD   R31,Y+
00027f 91e9      	LD   R30,Y+
000280 91b9      	LD   R27,Y+
000281 91a9      	LD   R26,Y+
000282 9199      	LD   R25,Y+
000283 9189      	LD   R24,Y+
000284 9179      	LD   R23,Y+
000285 9169      	LD   R22,Y+
000286 90f9      	LD   R15,Y+
000287 9019      	LD   R1,Y+
000288 9009      	LD   R0,Y+
000289 9518      	RETI
                 ; .FEND
                 ;
                 ;flash unsigned char Letra0[9] ={0xC7,0xBB,0xBB,0xBB,0xBB,0xBB,0xBB,0xBB,0xC7};
                 ;flash unsigned char Letra1[9] ={0xEF,0x8F,0xEF,0xEF,0xEF,0xEF,0xEF,0xEF,0x83};
                 ;flash unsigned char Letra2[9] ={0xC7,0xBB,0xFB,0xFB,0xF7,0xEF,0xDF,0xBF,0x83};
                 ;flash unsigned char Letra3[9] ={0xC7,0xBB,0xFB,0xFB,0xE7,0xFB,0xFB,0xBB,0xC7};
                 ;flash unsigned char Letra4[9] ={0xF7,0xE7,0xE7,0xD7,0xD7,0xB7,0x83,0xF7,0xE3};
                 ;flash unsigned char Letra5[9] ={0x83,0xBF,0xBF,0xBF,0x87,0xFB,0xFB,0xBB,0xC7};
                 ;flash unsigned char Letra6[9] ={0xE7,0xDF,0xBF,0xBF,0x87,0xBB,0xBB,0xBB,0xC7};
                 ;flash unsigned char Letra7[9] ={0x83,0xBB,0xFB,0xF7,0xF7,0xEF,0xEF,0xDF,0xDF};
                 ;flash unsigned char Letra8[9] ={0xC7,0xBB,0xBB,0xBB,0xC7,0xBB,0xBB,0xBB,0xC7};
                 ;flash unsigned char Letra9[9] ={0xC7,0xBB,0xBB,0xBB,0xC3,0xFB,0xFB,0xF7,0xCF};
                 ;flash unsigned char LetraH[9] ={0x88,0xDD,0xDD,0xDD,0xC1,0xDD,0xDD,0xDD,0x88};
                 ;flash unsigned char LetraZ[9] ={0xFF,0xFF,0xFF,0x81,0xBB,0xF7,0xEF,0xDD,0x81};
                 ;
                 ;void sd_openDrive(){
                 ; 0000 006F void sd_openDrive(){
                 _sd_openDrive:
                 ; .FSTART _sd_openDrive
                 ; 0000 0070     if (f_mount(0,&drive)!=FR_OK){
00028a e0e0      	LDI  R30,LOW(0)
00028b 93ea      	ST   -Y,R30
00028c e1ab      	LDI  R26,LOW(_drive)
00028d e0ba      	LDI  R27,HIGH(_drive)
00028e 940e 12ec 	CALL _f_mount
000290 30e0      	CPI  R30,0
000291 f039      	BREQ _0x2E
                 ; 0000 0071         EraseLCD();
000292 940e 1870 	CALL SUBOPT_0x7
                 ; 0000 0072         MoveCursor(0,0);
                 ; 0000 0073         StringLCD("Drive no detectado");
                +
000294 e7a2     +LDI R26 , LOW ( 2 * _0x0 + ( 0 ) )
000295 e0b1     +LDI R27 , HIGH ( 2 * _0x0 + ( 0 ) )
000296 e080     +LDI R24 , BYTE3 ( 2 * _0x0 + ( 0 ) )
000297 e090     +LDI R25 , BYTE4 ( 2 * _0x0 + ( 0 ) )
                 	__POINTD2FN _0x0,0
000298 df19      	RCALL _StringLCD
                 ; 0000 0074     }
                 ; 0000 0075 }
                 _0x2E:
000299 9508      	RET
                 ; .FEND
                 ;void sd_closeDrive(){
                 ; 0000 0076 void sd_closeDrive(){
                 _sd_closeDrive:
                 ; .FSTART _sd_closeDrive
                 ; 0000 0077     f_mount(0, 0); //Cerrar drive de SD
00029a e0e0      	LDI  R30,LOW(0)
00029b 93ea      	ST   -Y,R30
00029c e0a0      	LDI  R26,LOW(0)
00029d e0b0      	LDI  R27,0
00029e 940e 12ec 	CALL _f_mount
                 ; 0000 0078     EraseLCD();
0002a0 940e 1870 	CALL SUBOPT_0x7
                 ; 0000 0079     MoveCursor(0,0);
                 ; 0000 007A     StringLCD("Drive cerrado");
                +
0002a2 e8a5     +LDI R26 , LOW ( 2 * _0x0 + ( 19 ) )
0002a3 e0b1     +LDI R27 , HIGH ( 2 * _0x0 + ( 19 ) )
0002a4 e080     +LDI R24 , BYTE3 ( 2 * _0x0 + ( 19 ) )
0002a5 e090     +LDI R25 , BYTE4 ( 2 * _0x0 + ( 19 ) )
                 	__POINTD2FN _0x0,19
0002a6 940e 1877 	CALL SUBOPT_0x8
                 ; 0000 007B     delay_ms(1000);
                 ; 0000 007C }
0002a8 9508      	RET
                 ; .FEND
                 ;
                 ;char j;
                 ;int i;
                 ;char encabezado[62];
                 ;
                 ;
                 ;char output[64];
                 ;char aNum[9];
                 ;void getNum(int num){
                 ; 0000 0085 void getNum(int num){
                 _getNum:
                 ; .FSTART _getNum
                 ; 0000 0086     char i;
                 ; 0000 0087     switch(num){
0002a9 93ba      	ST   -Y,R27
0002aa 93aa      	ST   -Y,R26
0002ab 931a      	ST   -Y,R17
                 ;	num -> Y+1
                 ;	i -> R17
0002ac 81e9      	LDD  R30,Y+1
0002ad 81fa      	LDD  R31,Y+1+1
                 ; 0000 0088         case 0:
0002ae 9730      	SBIW R30,0
0002af f451      	BRNE _0x32
                 ; 0000 0089             for(i=0;i<9;i++)
0002b0 e010      	LDI  R17,LOW(0)
                 _0x34:
0002b1 3019      	CPI  R17,9
0002b2 f430      	BRSH _0x35
                 ; 0000 008A             aNum[i] = Letra0[i];
0002b3 940e 187d 	CALL SUBOPT_0x9
0002b5 940e 1886 	CALL SUBOPT_0xA
0002b7 5f1f      	SUBI R17,-1
0002b8 cff8      	RJMP _0x34
                 _0x35:
                 ; 0000 008B break;
0002b9 c0cf      	RJMP _0x31
                 ; 0000 008C         case 1:
                 _0x32:
0002ba 30e1      	CPI  R30,LOW(0x1)
0002bb e0a0      	LDI  R26,HIGH(0x1)
0002bc 07fa      	CPC  R31,R26
0002bd f471      	BRNE _0x36
                 ; 0000 008D             for(i=0;i<9;i++)
0002be e010      	LDI  R17,LOW(0)
                 _0x38:
0002bf 3019      	CPI  R17,9
0002c0 f450      	BRSH _0x39
                 ; 0000 008E             aNum[i] = Letra1[i];
0002c1 940e 187d 	CALL SUBOPT_0x9
0002c3 55ee      	SUBI R30,LOW(-_Letra1*2)
0002c4 4fff      	SBCI R31,HIGH(-_Letra1*2)
0002c5 4f6f      	SBCI R22,BYTE3(-_Letra1*2)
                +
0002c6 bf6b     +OUT RAMPZ , R22
0002c7 91e6     +ELPM R30 , Z
                 	__GETBRPF 30
0002c8 93ec      	ST   X,R30
0002c9 5f1f      	SUBI R17,-1
0002ca cff4      	RJMP _0x38
                 _0x39:
                 ; 0000 008F break;
0002cb c0bd      	RJMP _0x31
                 ; 0000 0090         case 2:
                 _0x36:
0002cc 30e2      	CPI  R30,LOW(0x2)
0002cd e0a0      	LDI  R26,HIGH(0x2)
0002ce 07fa      	CPC  R31,R26
0002cf f471      	BRNE _0x3A
                 ; 0000 0091             for(i=0;i<9;i++)
0002d0 e010      	LDI  R17,LOW(0)
                 _0x3C:
0002d1 3019      	CPI  R17,9
0002d2 f450      	BRSH _0x3D
                 ; 0000 0092             aNum[i] = Letra2[i];
0002d3 940e 187d 	CALL SUBOPT_0x9
0002d5 55e4      	SUBI R30,LOW(-_Letra2*2)
0002d6 4fff      	SBCI R31,HIGH(-_Letra2*2)
0002d7 4f6f      	SBCI R22,BYTE3(-_Letra2*2)
                +
0002d8 bf6b     +OUT RAMPZ , R22
0002d9 91e6     +ELPM R30 , Z
                 	__GETBRPF 30
0002da 93ec      	ST   X,R30
0002db 5f1f      	SUBI R17,-1
0002dc cff4      	RJMP _0x3C
                 _0x3D:
                 ; 0000 0093 break;
0002dd c0ab      	RJMP _0x31
                 ; 0000 0094         case 3:
                 _0x3A:
0002de 30e3      	CPI  R30,LOW(0x3)
0002df e0a0      	LDI  R26,HIGH(0x3)
0002e0 07fa      	CPC  R31,R26
0002e1 f471      	BRNE _0x3E
                 ; 0000 0095             for(i=0;i<9;i++)
0002e2 e010      	LDI  R17,LOW(0)
                 _0x40:
0002e3 3019      	CPI  R17,9
0002e4 f450      	BRSH _0x41
                 ; 0000 0096             aNum[i] = Letra3[i];
0002e5 940e 187d 	CALL SUBOPT_0x9
0002e7 54ea      	SUBI R30,LOW(-_Letra3*2)
0002e8 4fff      	SBCI R31,HIGH(-_Letra3*2)
0002e9 4f6f      	SBCI R22,BYTE3(-_Letra3*2)
                +
0002ea bf6b     +OUT RAMPZ , R22
0002eb 91e6     +ELPM R30 , Z
                 	__GETBRPF 30
0002ec 93ec      	ST   X,R30
0002ed 5f1f      	SUBI R17,-1
0002ee cff4      	RJMP _0x40
                 _0x41:
                 ; 0000 0097 break;
0002ef c099      	RJMP _0x31
                 ; 0000 0098         case 4:
                 _0x3E:
0002f0 30e4      	CPI  R30,LOW(0x4)
0002f1 e0a0      	LDI  R26,HIGH(0x4)
0002f2 07fa      	CPC  R31,R26
0002f3 f471      	BRNE _0x42
                 ; 0000 0099             for(i=0;i<9;i++)
0002f4 e010      	LDI  R17,LOW(0)
                 _0x44:
0002f5 3019      	CPI  R17,9
0002f6 f450      	BRSH _0x45
                 ; 0000 009A             aNum[i] = Letra4[i];
0002f7 940e 187d 	CALL SUBOPT_0x9
0002f9 54e0      	SUBI R30,LOW(-_Letra4*2)
0002fa 4fff      	SBCI R31,HIGH(-_Letra4*2)
0002fb 4f6f      	SBCI R22,BYTE3(-_Letra4*2)
                +
0002fc bf6b     +OUT RAMPZ , R22
0002fd 91e6     +ELPM R30 , Z
                 	__GETBRPF 30
0002fe 93ec      	ST   X,R30
0002ff 5f1f      	SUBI R17,-1
000300 cff4      	RJMP _0x44
                 _0x45:
                 ; 0000 009B break;
000301 c087      	RJMP _0x31
                 ; 0000 009C         case 5:
                 _0x42:
000302 30e5      	CPI  R30,LOW(0x5)
000303 e0a0      	LDI  R26,HIGH(0x5)
000304 07fa      	CPC  R31,R26
000305 f471      	BRNE _0x46
                 ; 0000 009D             for(i=0;i<9;i++)
000306 e010      	LDI  R17,LOW(0)
                 _0x48:
000307 3019      	CPI  R17,9
000308 f450      	BRSH _0x49
                 ; 0000 009E             aNum[i] = Letra5[i];
000309 940e 187d 	CALL SUBOPT_0x9
00030b 53e6      	SUBI R30,LOW(-_Letra5*2)
00030c 4fff      	SBCI R31,HIGH(-_Letra5*2)
00030d 4f6f      	SBCI R22,BYTE3(-_Letra5*2)
                +
00030e bf6b     +OUT RAMPZ , R22
00030f 91e6     +ELPM R30 , Z
                 	__GETBRPF 30
000310 93ec      	ST   X,R30
000311 5f1f      	SUBI R17,-1
000312 cff4      	RJMP _0x48
                 _0x49:
                 ; 0000 009F break;
000313 c075      	RJMP _0x31
                 ; 0000 00A0         case 6:
                 _0x46:
000314 30e6      	CPI  R30,LOW(0x6)
000315 e0a0      	LDI  R26,HIGH(0x6)
000316 07fa      	CPC  R31,R26
000317 f471      	BRNE _0x4A
                 ; 0000 00A1             for(i=0;i<9;i++)
000318 e010      	LDI  R17,LOW(0)
                 _0x4C:
000319 3019      	CPI  R17,9
00031a f450      	BRSH _0x4D
                 ; 0000 00A2             aNum[i] = Letra6[i];
00031b 940e 187d 	CALL SUBOPT_0x9
00031d 52ec      	SUBI R30,LOW(-_Letra6*2)
00031e 4fff      	SBCI R31,HIGH(-_Letra6*2)
00031f 4f6f      	SBCI R22,BYTE3(-_Letra6*2)
                +
000320 bf6b     +OUT RAMPZ , R22
000321 91e6     +ELPM R30 , Z
                 	__GETBRPF 30
000322 93ec      	ST   X,R30
000323 5f1f      	SUBI R17,-1
000324 cff4      	RJMP _0x4C
                 _0x4D:
                 ; 0000 00A3 break;
000325 c063      	RJMP _0x31
                 ; 0000 00A4         case 7:
                 _0x4A:
000326 30e7      	CPI  R30,LOW(0x7)
000327 e0a0      	LDI  R26,HIGH(0x7)
000328 07fa      	CPC  R31,R26
000329 f471      	BRNE _0x4E
                 ; 0000 00A5             for(i=0;i<9;i++)
00032a e010      	LDI  R17,LOW(0)
                 _0x50:
00032b 3019      	CPI  R17,9
00032c f450      	BRSH _0x51
                 ; 0000 00A6             aNum[i] = Letra7[i];
00032d 940e 187d 	CALL SUBOPT_0x9
00032f 52e2      	SUBI R30,LOW(-_Letra7*2)
000330 4fff      	SBCI R31,HIGH(-_Letra7*2)
000331 4f6f      	SBCI R22,BYTE3(-_Letra7*2)
                +
000332 bf6b     +OUT RAMPZ , R22
000333 91e6     +ELPM R30 , Z
                 	__GETBRPF 30
000334 93ec      	ST   X,R30
000335 5f1f      	SUBI R17,-1
000336 cff4      	RJMP _0x50
                 _0x51:
                 ; 0000 00A7 break;
000337 c051      	RJMP _0x31
                 ; 0000 00A8         case 8:
                 _0x4E:
000338 30e8      	CPI  R30,LOW(0x8)
000339 e0a0      	LDI  R26,HIGH(0x8)
00033a 07fa      	CPC  R31,R26
00033b f471      	BRNE _0x52
                 ; 0000 00A9             for(i=0;i<9;i++)
00033c e010      	LDI  R17,LOW(0)
                 _0x54:
00033d 3019      	CPI  R17,9
00033e f450      	BRSH _0x55
                 ; 0000 00AA             aNum[i] = Letra8[i];
00033f 940e 187d 	CALL SUBOPT_0x9
000341 51e8      	SUBI R30,LOW(-_Letra8*2)
000342 4fff      	SBCI R31,HIGH(-_Letra8*2)
000343 4f6f      	SBCI R22,BYTE3(-_Letra8*2)
                +
000344 bf6b     +OUT RAMPZ , R22
000345 91e6     +ELPM R30 , Z
                 	__GETBRPF 30
000346 93ec      	ST   X,R30
000347 5f1f      	SUBI R17,-1
000348 cff4      	RJMP _0x54
                 _0x55:
                 ; 0000 00AB break;
000349 c03f      	RJMP _0x31
                 ; 0000 00AC         case 9:
                 _0x52:
00034a 30e9      	CPI  R30,LOW(0x9)
00034b e0a0      	LDI  R26,HIGH(0x9)
00034c 07fa      	CPC  R31,R26
00034d f471      	BRNE _0x56
                 ; 0000 00AD             for(i=0;i<9;i++)
00034e e010      	LDI  R17,LOW(0)
                 _0x58:
00034f 3019      	CPI  R17,9
000350 f450      	BRSH _0x59
                 ; 0000 00AE             aNum[i] = Letra9[i];
000351 940e 187d 	CALL SUBOPT_0x9
000353 50ee      	SUBI R30,LOW(-_Letra9*2)
000354 4fff      	SBCI R31,HIGH(-_Letra9*2)
000355 4f6f      	SBCI R22,BYTE3(-_Letra9*2)
                +
000356 bf6b     +OUT RAMPZ , R22
000357 91e6     +ELPM R30 , Z
                 	__GETBRPF 30
000358 93ec      	ST   X,R30
000359 5f1f      	SUBI R17,-1
00035a cff4      	RJMP _0x58
                 _0x59:
                 ; 0000 00AF break;
00035b c02d      	RJMP _0x31
                 ; 0000 00B0         case 10:
                 _0x56:
00035c 30ea      	CPI  R30,LOW(0xA)
00035d e0a0      	LDI  R26,HIGH(0xA)
00035e 07fa      	CPC  R31,R26
00035f f471      	BRNE _0x5A
                 ; 0000 00B1             for(i=0;i<9;i++)
000360 e010      	LDI  R17,LOW(0)
                 _0x5C:
000361 3019      	CPI  R17,9
000362 f450      	BRSH _0x5D
                 ; 0000 00B2             aNum[i] = LetraH[i];
000363 940e 187d 	CALL SUBOPT_0x9
000365 50e4      	SUBI R30,LOW(-_LetraH*2)
000366 4fff      	SBCI R31,HIGH(-_LetraH*2)
000367 4f6f      	SBCI R22,BYTE3(-_LetraH*2)
                +
000368 bf6b     +OUT RAMPZ , R22
000369 91e6     +ELPM R30 , Z
                 	__GETBRPF 30
00036a 93ec      	ST   X,R30
00036b 5f1f      	SUBI R17,-1
00036c cff4      	RJMP _0x5C
                 _0x5D:
                 ; 0000 00B3 break;
00036d c01b      	RJMP _0x31
                 ; 0000 00B4         case 11:
                 _0x5A:
00036e 30eb      	CPI  R30,LOW(0xB)
00036f e0a0      	LDI  R26,HIGH(0xB)
000370 07fa      	CPC  R31,R26
000371 f471      	BRNE _0x62
                 ; 0000 00B5             for(i=0;i<9;i++)
000372 e010      	LDI  R17,LOW(0)
                 _0x60:
000373 3019      	CPI  R17,9
000374 f450      	BRSH _0x61
                 ; 0000 00B6             aNum[i] = LetraZ[i];
000375 940e 187d 	CALL SUBOPT_0x9
000377 5fea      	SUBI R30,LOW(-_LetraZ*2)
000378 4ffe      	SBCI R31,HIGH(-_LetraZ*2)
000379 4f6f      	SBCI R22,BYTE3(-_LetraZ*2)
                +
00037a bf6b     +OUT RAMPZ , R22
00037b 91e6     +ELPM R30 , Z
                 	__GETBRPF 30
00037c 93ec      	ST   X,R30
00037d 5f1f      	SUBI R17,-1
00037e cff4      	RJMP _0x60
                 _0x61:
                 ; 0000 00B7 break;
00037f c009      	RJMP _0x31
                 ; 0000 00B8         default:
                 _0x62:
                 ; 0000 00B9             for(i=0;i<9;i++)
000380 e010      	LDI  R17,LOW(0)
                 _0x64:
000381 3019      	CPI  R17,9
000382 f430      	BRSH _0x65
                 ; 0000 00BA             aNum[i] = Letra0[i];
000383 940e 187d 	CALL SUBOPT_0x9
000385 940e 1886 	CALL SUBOPT_0xA
000387 5f1f      	SUBI R17,-1
000388 cff8      	RJMP _0x64
                 _0x65:
                 ; 0000 00BB break;
                 ; 0000 00BC     }
                 _0x31:
                 ; 0000 00BD }
000389 8118      	LDD  R17,Y+0
00038a 9623      	ADIW R28,3
00038b 9508      	RET
                 ; .FEND
                 ;
                 ;char d, c, u;
                 ;void itoa(int n){
                 ; 0000 00C0 void itoa(int n){
                 _itoa:
                 ; .FSTART _itoa
                 ; 0000 00C1     int num = n;
                 ; 0000 00C2     d = num/100;
00038c 93ba      	ST   -Y,R27
00038d 93aa      	ST   -Y,R26
00038e 931a      	ST   -Y,R17
00038f 930a      	ST   -Y,R16
                 ;	n -> Y+2
                 ;	num -> R16,R17
                +
000390 810a     +LDD R16 , Y + 2
000391 811b     +LDD R17 , Y + 2 + 1
                 	__GETWRS 16,17,2
000392 01d8      	MOVW R26,R16
000393 e6e4      	LDI  R30,LOW(100)
000394 e0f0      	LDI  R31,HIGH(100)
000395 940e 1dff 	CALL __DIVW21
000397 2ece      	MOV  R12,R30
                 ; 0000 00C3     num = num-d*100;
000398 2dac      	MOV  R26,R12
000399 e6e4      	LDI  R30,LOW(100)
00039a 9fea      	MUL  R30,R26
00039b 01f0      	MOVW R30,R0
                +
00039c 1b0e     +SUB R16 , R30
00039d 0b1f     +SBC R17 , R31
                 	__SUBWRR 16,17,30,31
                 ; 0000 00C4     c = num/10;
00039e 01d8      	MOVW R26,R16
00039f e0ea      	LDI  R30,LOW(10)
0003a0 e0f0      	LDI  R31,HIGH(10)
0003a1 940e 1dff 	CALL __DIVW21
0003a3 2ebe      	MOV  R11,R30
                 ; 0000 00C5     num = num-d*10;
0003a4 2dac      	MOV  R26,R12
0003a5 e0ea      	LDI  R30,LOW(10)
0003a6 9fea      	MUL  R30,R26
0003a7 01f0      	MOVW R30,R0
                +
0003a8 1b0e     +SUB R16 , R30
0003a9 0b1f     +SBC R17 , R31
                 	__SUBWRR 16,17,30,31
                 ; 0000 00C6     u = num;
0003aa 2ee0      	MOV  R14,R16
                 ; 0000 00C7 }
0003ab 8119      	LDD  R17,Y+1
0003ac 8108      	LDD  R16,Y+0
                 _0x20A001A:
0003ad 9624      	ADIW R28,4
0003ae 9508      	RET
                 ; .FEND
                 ;
                 ;void main(void) {
                 ; 0000 00C9 void main(void) {
                 _main:
                 ; .FSTART _main
                 ; 0000 00CA     SetupLCD();
0003af 940e 0151 	CALL _SetupLCD
                 ; 0000 00CB     // ADC initialization
                 ; 0000 00CC     // ADC Clock frequency: 1000.000 kHz
                 ; 0000 00CD     // ADC Voltage Reference: Int., cap. on AREF
                 ; 0000 00CE     // ADC High Speed Mode: On
                 ; 0000 00CF     // Digital input buffers on ADC0: On, ADC1: On, ADC2: On, ADC3: On
                 ; 0000 00D0     // ADC4: On, ADC5: On, ADC6: On, ADC7: Off
                 ; 0000 00D1     CLKPR = 0x80;
0003b1 940e 188d 	CALL SUBOPT_0xB
                 ; 0000 00D2     CLKPR = 0;
                 ; 0000 00D3     DIDR0=(1<<ADC7D) | (0<<ADC6D) | (0<<ADC5D) | (0<<ADC4D) | (0<<ADC3D) | (0<<ADC2D) | (0<<ADC1D) | (0<<ADC0D);
0003b3 e8e0      	LDI  R30,LOW(128)
0003b4 93e0 007e 	STS  126,R30
                 ; 0000 00D4     ADMUX=ADC_VREF_TYPE;
0003b6 ece0      	LDI  R30,LOW(192)
0003b7 93e0 007c 	STS  124,R30
                 ; 0000 00D5     ADCSRA=(1<<ADEN) | (0<<ADSC) | (0<<ADATE) | (0<<ADIF) | (0<<ADIE) | (1<<ADPS2) | (0<<ADPS1) | (0<<ADPS0);
0003b9 e8e4      	LDI  R30,LOW(132)
0003ba 93e0 007a 	STS  122,R30
                 ; 0000 00D6     ADCSRB=(1<<ADHSM);
0003bc e8e0      	LDI  R30,LOW(128)
0003bd 93e0 007b 	STS  123,R30
                 ; 0000 00D7 
                 ; 0000 00D8     // Trigger for scope shot
                 ; 0000 00D9     PORTD.7 = 1;
0003bf 9a5f      	SBI  0xB,7
                 ; 0000 00DA 
                 ; 0000 00DB     // SD
                 ; 0000 00DC     CLKPR=0x80;
0003c0 940e 188d 	CALL SUBOPT_0xB
                 ; 0000 00DD     CLKPR=0;        //16 MHz
                 ; 0000 00DE 
                 ; 0000 00DF     // Código para hacer una interrupción periódica cada 10ms
                 ; 0000 00E0 
                 ; 0000 00E1     TCCR1B=0x0A;             //  CK/8
0003c2 e0ea      	LDI  R30,LOW(10)
0003c3 93e0 0081 	STS  129,R30
                 ; 0000 00E2     OCR1AH=19999/256;
0003c5 e4ee      	LDI  R30,LOW(78)
0003c6 93e0 0089 	STS  137,R30
                 ; 0000 00E3     OCR1AL=19999%256;
0003c8 e1ef      	LDI  R30,LOW(31)
0003c9 93e0 0088 	STS  136,R30
                 ; 0000 00E4     TIMSK1=0x02;
0003cb e0e2      	LDI  R30,LOW(2)
0003cc 93e0 006f 	STS  111,R30
                 ; 0000 00E5     StringLCD("...");
                +
0003ce e9a3     +LDI R26 , LOW ( 2 * _0x0 + ( 33 ) )
0003cf e0b1     +LDI R27 , HIGH ( 2 * _0x0 + ( 33 ) )
0003d0 e080     +LDI R24 , BYTE3 ( 2 * _0x0 + ( 33 ) )
0003d1 e090     +LDI R25 , BYTE4 ( 2 * _0x0 + ( 33 ) )
                 	__POINTD2FN _0x0,33
0003d2 dddf      	RCALL _StringLCD
                 ; 0000 00E6     #asm("sei")
0003d3 9478      	sei
                 ; 0000 00E7     disk_initialize(0);
0003d4 e0a0      	LDI  R26,LOW(0)
0003d5 d241      	RCALL _disk_initialize
                 ; 0000 00E8     delay_ms(200);
0003d6 eca8      	LDI  R26,LOW(200)
0003d7 e0b0      	LDI  R27,0
0003d8 940e 1c26 	CALL _delay_ms
                 ; 0000 00E9 
                 ; 0000 00EA     while (1) {
                 _0x68:
                 ; 0000 00EB     // Please write your application code here
                 ; 0000 00EC     MoveCursor(0,0);
0003da e0e0      	LDI  R30,LOW(0)
0003db 93ea      	ST   -Y,R30
0003dc e0a0      	LDI  R26,LOW(0)
0003dd ddec      	RCALL _MoveCursor
                 ; 0000 00ED     StringLCD("Welcome");
                +
0003de e9a7     +LDI R26 , LOW ( 2 * _0x0 + ( 37 ) )
0003df e0b1     +LDI R27 , HIGH ( 2 * _0x0 + ( 37 ) )
0003e0 e080     +LDI R24 , BYTE3 ( 2 * _0x0 + ( 37 ) )
0003e1 e090     +LDI R25 , BYTE4 ( 2 * _0x0 + ( 37 ) )
                 	__POINTD2FN _0x0,37
0003e2 ddcf      	RCALL _StringLCD
                 ; 0000 00EE         if (PIND.7 == 0){
0003e3 994f      	SBIC 0x9,7
0003e4 c0d4      	RJMP _0x6B
                 ; 0000 00EF             EraseLCD();
0003e5 dde1      	RCALL _EraseLCD
                 ; 0000 00F0             StringLCD("Starting     ");
                +
0003e6 e9af     +LDI R26 , LOW ( 2 * _0x0 + ( 45 ) )
0003e7 e0b1     +LDI R27 , HIGH ( 2 * _0x0 + ( 45 ) )
0003e8 e080     +LDI R24 , BYTE3 ( 2 * _0x0 + ( 45 ) )
0003e9 e090     +LDI R25 , BYTE4 ( 2 * _0x0 + ( 45 ) )
                 	__POINTD2FN _0x0,45
0003ea ddc7      	RCALL _StringLCD
                 ; 0000 00F1             scope();
0003eb de51      	RCALL _scope
                 ; 0000 00F2             freq = frequency();
0003ec de15      	RCALL _frequency
                +
0003ed 2e5e     +MOV R5 , R30
0003ee 2e6f     +MOV R6 , R31
                 	__PUTW1R 5,6
                 ; 0000 00F3             sd_openDrive();
0003ef de9a      	RCALL _sd_openDrive
                 ; 0000 00F4             if(f_open(&archivo,"0:BASE.BMP", FA_OPEN_EXISTING | FA_READ)==FR_OK){
0003f0 940e 1894 	CALL SUBOPT_0xC
                +
0003f2 e0e0     +LDI R30 , LOW ( _0x6D + ( 0 ) )
0003f3 e0f9     +LDI R31 , HIGH ( _0x6D + ( 0 ) )
                 	__POINTW1MN _0x6D,0
0003f4 93fa      	ST   -Y,R31
0003f5 93ea      	ST   -Y,R30
0003f6 e0a1      	LDI  R26,LOW(1)
0003f7 940e 131c 	CALL _f_open
0003f9 30e0      	CPI  R30,0
0003fa f009      	BREQ PC+2
0003fb c0b3      	RJMP _0x6C
                 ; 0000 00F5                 f_read(&archivo, encabezado, 64, &br);
0003fc 940e 1894 	CALL SUBOPT_0xC
0003fe e6ed      	LDI  R30,LOW(_encabezado)
0003ff e0fe      	LDI  R31,HIGH(_encabezado)
000400 940e 1899 	CALL SUBOPT_0xD
000402 940e 1452 	CALL _f_read
                 ; 0000 00F6                 f_close(&archivo);
000404 e4ad      	LDI  R26,LOW(_archivo)
000405 e0bc      	LDI  R27,HIGH(_archivo)
000406 940e 17ef 	CALL _f_close
                 ; 0000 00F7                 if (f_open(&archivo,fileName, FA_CREATE_ALWAYS | FA_WRITE)==FR_OK){
000408 940e 1894 	CALL SUBOPT_0xC
00040a e0ef      	LDI  R30,LOW(_fileName)
00040b e0fa      	LDI  R31,HIGH(_fileName)
00040c 93fa      	ST   -Y,R31
00040d 93ea      	ST   -Y,R30
00040e e0aa      	LDI  R26,LOW(10)
00040f 940e 131c 	CALL _f_open
000411 30e0      	CPI  R30,0
000412 f009      	BREQ PC+2
000413 c08e      	RJMP _0x6E
                 ; 0000 00F8                     f_write(&archivo,encabezado,sizeof(encabezado),&br);     //Escribir encabezado
000414 940e 1894 	CALL SUBOPT_0xC
000416 e6ed      	LDI  R30,LOW(_encabezado)
000417 e0fe      	LDI  R31,HIGH(_encabezado)
000418 93fa      	ST   -Y,R31
000419 93ea      	ST   -Y,R30
00041a e3ee      	LDI  R30,LOW(62)
00041b e0f0      	LDI  R31,HIGH(62)
00041c 93fa      	ST   -Y,R31
00041d 93ea      	ST   -Y,R30
00041e e0a7      	LDI  R26,LOW(7)
00041f e0b0      	LDI  R27,HIGH(7)
000420 940e 15be 	CALL _f_write
                 ; 0000 00F9                     for (i=0;i<256;i++){
000422 2499      	CLR  R9
000423 24aa      	CLR  R10
                 _0x70:
000424 e0e0      	LDI  R30,LOW(256)
000425 e0f1      	LDI  R31,HIGH(256)
000426 169e      	CP   R9,R30
000427 06af      	CPC  R10,R31
000428 f00c      	BRLT PC+2
000429 c06d      	RJMP _0x71
                 ; 0000 00FA                         for(j=0; j<64; j++){
00042a 2433      	CLR  R3
                 _0x73:
00042b e4e0      	LDI  R30,LOW(64)
00042c 163e      	CP   R3,R30
00042d f440      	BRSH _0x74
                 ; 0000 00FB                             output[j] = 0xFF;
00042e 2de3      	MOV  R30,R3
00042f e0f0      	LDI  R31,0
000430 55e5      	SUBI R30,LOW(-_output)
000431 4ff1      	SBCI R31,HIGH(-_output)
000432 efaf      	LDI  R26,LOW(255)
000433 83a0      	STD  Z+0,R26
                 ; 0000 00FC                         }
000434 9433      	INC  R3
000435 cff5      	RJMP _0x73
                 _0x74:
                 ; 0000 00FD                         for(j=0; j<128; j++){
000436 2433      	CLR  R3
                 _0x76:
000437 e8e0      	LDI  R30,LOW(128)
000438 163e      	CP   R3,R30
000439 f008      	BRLO PC+2
00043a c04f      	RJMP _0x77
                 ; 0000 00FE                             if(buffer[j]*256/1024==i){
00043b 2de3      	MOV  R30,R3
00043c 940e 1868 	CALL SUBOPT_0x6
00043e 940e 1e45 	CALL __GETW1P
000440 2ffe      	MOV  R31,R30
000441 e0e0      	LDI  R30,0
000442 01df      	MOVW R26,R30
000443 e0e0      	LDI  R30,LOW(1024)
000444 e0f4      	LDI  R31,HIGH(1024)
000445 940e 1dff 	CALL __DIVW21
000447 169e      	CP   R9,R30
000448 06af      	CPC  R10,R31
000449 f4a9      	BRNE _0x78
                 ; 0000 00FF                                 if((j+1)%2==1){
00044a 2de3      	MOV  R30,R3
00044b e0f0      	LDI  R31,0
00044c 9631      	ADIW R30,1
00044d 01df      	MOVW R26,R30
00044e e0e2      	LDI  R30,LOW(2)
00044f e0f0      	LDI  R31,HIGH(2)
000450 940e 1e29 	CALL __MODW21
000452 30e1      	CPI  R30,LOW(0x1)
000453 e0a0      	LDI  R26,HIGH(0x1)
000454 07fa      	CPC  R31,R26
000455 f421      	BRNE _0x79
                 ; 0000 0100                                     output[j/2] = output[j/2] & 0x0F;
000456 940e 18a2 	CALL SUBOPT_0xE
000458 70ef      	ANDI R30,LOW(0xF)
000459 c003      	RJMP _0x80
                 ; 0000 0101                                 }else{
                 _0x79:
                 ; 0000 0102                                     output[j/2] = output[j/2] & 0xF0;
00045a 940e 18a2 	CALL SUBOPT_0xE
00045c 7fe0      	ANDI R30,LOW(0xF0)
                 _0x80:
00045d 01db      	MOVW R26,R22
00045e 93ec      	ST   X,R30
                 ; 0000 0103                                 }
                 ; 0000 0104                             }
                 ; 0000 0105                             if ((i>=10)&(i<=18)){
                 _0x78:
                +
00045f 2da9     +MOV R26 , R9
000460 2dba     +MOV R27 , R10
                 	__GETW2R 9,10
000461 e0ea      	LDI  R30,LOW(10)
000462 e0f0      	LDI  R31,HIGH(10)
000463 940e 1dc0 	CALL __GEW12
000465 2e0e      	MOV  R0,R30
000466 e1e2      	LDI  R30,LOW(18)
000467 e0f0      	LDI  R31,HIGH(18)
000468 940e 1dba 	CALL __LEW12
00046a 21e0      	AND  R30,R0
00046b f0e1      	BREQ _0x7B
                 ; 0000 0106                                 itoa(freq);
                +
00046c 2da5     +MOV R26 , R5
00046d 2db6     +MOV R27 , R6
                 	__GETW2R 5,6
00046e df1d      	RCALL _itoa
                 ; 0000 0107                                 getNum(d);
00046f 2dac      	MOV  R26,R12
000470 940e 18ad 	CALL SUBOPT_0xF
                 ; 0000 0108                                 output[1]=aNum[18-i];
                +
000472 93e0 0eac+STS _output + ( 1 ) , R30
                 	__PUTB1MN _output,1
                 ; 0000 0109                                 getNum(c);
000474 2dab      	MOV  R26,R11
000475 940e 18ad 	CALL SUBOPT_0xF
                 ; 0000 010A                                 output[2]=aNum[18-i];
                +
000477 93e0 0ead+STS _output + ( 2 ) , R30
                 	__PUTB1MN _output,2
                 ; 0000 010B                                 getNum(u);
000479 2dae      	MOV  R26,R14
00047a 940e 18ad 	CALL SUBOPT_0xF
                 ; 0000 010C                                 output[3]=aNum[18-i];
                +
00047c 93e0 0eae+STS _output + ( 3 ) , R30
                 	__PUTB1MN _output,3
                 ; 0000 010D                                 getNum(10);
00047e e0aa      	LDI  R26,LOW(10)
00047f 940e 18b8 	CALL SUBOPT_0x10
                 ; 0000 010E                                 output[4]=aNum[18-i];
                +
000481 93e0 0eaf+STS _output + ( 4 ) , R30
                 	__PUTB1MN _output,4
                 ; 0000 010F                                 getNum(11);
000483 e0ab      	LDI  R26,LOW(11)
000484 940e 18b8 	CALL SUBOPT_0x10
                 ; 0000 0110                                 output[5]=aNum[18-i];
                +
000486 93e0 0eb0+STS _output + ( 5 ) , R30
                 	__PUTB1MN _output,5
                 ; 0000 0111                             }
                 ; 0000 0112                         }
                 _0x7B:
000488 9433      	INC  R3
000489 cfad      	RJMP _0x76
                 _0x77:
                 ; 0000 0113                         f_write(&archivo,output,sizeof(output),&br);
00048a 940e 1894 	CALL SUBOPT_0xC
00048c eaeb      	LDI  R30,LOW(_output)
00048d e0fe      	LDI  R31,HIGH(_output)
00048e 940e 1899 	CALL SUBOPT_0xD
000490 940e 15be 	CALL _f_write
                 ; 0000 0114                     }
000492 e0e1      	LDI  R30,LOW(1)
000493 e0f0      	LDI  R31,HIGH(1)
                +
000494 0e9e     +ADD R9 , R30
000495 1eaf     +ADC R10 , R31
                 	__ADDWRR 9,10,30,31
000496 cf8d      	RJMP _0x70
                 _0x71:
                 ; 0000 0115                     EraseLCD();
000497 dd2f      	RCALL _EraseLCD
                 ; 0000 0116                     StringLCD("Listo      ");
                +
000498 eba8     +LDI R26 , LOW ( 2 * _0x0 + ( 70 ) )
000499 e0b1     +LDI R27 , HIGH ( 2 * _0x0 + ( 70 ) )
00049a e080     +LDI R24 , BYTE3 ( 2 * _0x0 + ( 70 ) )
00049b e090     +LDI R25 , BYTE4 ( 2 * _0x0 + ( 70 ) )
                 	__POINTD2FN _0x0,70
00049c dd15      	RCALL _StringLCD
                 ; 0000 0117                     f_close(&archivo);
00049d e4ad      	LDI  R26,LOW(_archivo)
00049e e0bc      	LDI  R27,HIGH(_archivo)
00049f 940e 17ef 	CALL _f_close
                 ; 0000 0118                     delay_ms(1000);
0004a1 c008      	RJMP _0x81
                 ; 0000 0119                 }else{
                 _0x6E:
                 ; 0000 011A                     EraseLCD();
0004a2 940e 1870 	CALL SUBOPT_0x7
                 ; 0000 011B                     MoveCursor(0,0);
                 ; 0000 011C                     StringLCD("File error");
                +
0004a4 eca4     +LDI R26 , LOW ( 2 * _0x0 + ( 82 ) )
0004a5 e0b1     +LDI R27 , HIGH ( 2 * _0x0 + ( 82 ) )
0004a6 e080     +LDI R24 , BYTE3 ( 2 * _0x0 + ( 82 ) )
0004a7 e090     +LDI R25 , BYTE4 ( 2 * _0x0 + ( 82 ) )
                 	__POINTD2FN _0x0,82
0004a8 940e 01b2 	CALL _StringLCD
                 ; 0000 011D                     delay_ms(1000);
                 _0x81:
0004aa eea8      	LDI  R26,LOW(1000)
0004ab e0b3      	LDI  R27,HIGH(1000)
0004ac 940e 1c26 	CALL _delay_ms
                 ; 0000 011E                 }
                 ; 0000 011F             }else{
0004ae c008      	RJMP _0x7D
                 _0x6C:
                 ; 0000 0120                EraseLCD();
0004af 940e 1870 	CALL SUBOPT_0x7
                 ; 0000 0121                MoveCursor(0,0);
                 ; 0000 0122                StringLCD("base.bmp error");
                +
0004b1 ecaf     +LDI R26 , LOW ( 2 * _0x0 + ( 93 ) )
0004b2 e0b1     +LDI R27 , HIGH ( 2 * _0x0 + ( 93 ) )
0004b3 e080     +LDI R24 , BYTE3 ( 2 * _0x0 + ( 93 ) )
0004b4 e090     +LDI R25 , BYTE4 ( 2 * _0x0 + ( 93 ) )
                 	__POINTD2FN _0x0,93
0004b5 940e 1877 	CALL SUBOPT_0x8
                 ; 0000 0123                delay_ms(1000);
                 ; 0000 0124             }
                 _0x7D:
                 ; 0000 0125             sd_closeDrive();
0004b7 dde2      	RCALL _sd_closeDrive
                 ; 0000 0126             EraseLCD();
0004b8 dd0e      	RCALL _EraseLCD
                 ; 0000 0127         }
                 ; 0000 0128     }
                 _0x6B:
0004b9 cf20      	RJMP _0x68
                 ; 0000 0129 }
                 _0x7E:
0004ba cfff      	RJMP _0x7E
                 ; .FEND
                 
                 	.DSEG
                 _0x6D:
000900           	.BYTE 0xB
                 	#ifndef __SLEEP_DEFINED__
                 	#endif
                 
                 	.DSEG
                 
                 	.CSEG
                 _crc7_G100:
                 ; .FSTART _crc7_G100
0004bb 93aa      	ST   -Y,R26
0004bc 940e 1e9f 	CALL __SAVELOCR4
0004be e020      	LDI  R18,LOW(0)
0004bf 810c      	LDD  R16,Y+4
                 _0x2000005:
0004c0 81ad      	LDD  R26,Y+5
0004c1 81be      	LDD  R27,Y+5+1
0004c2 913d      	LD   R19,X+
0004c3 83ad      	STD  Y+5,R26
0004c4 83be      	STD  Y+5+1,R27
0004c5 e018      	LDI  R17,LOW(8)
                 _0x2000008:
0004c6 0f22      	LSL  R18
0004c7 2fe2      	MOV  R30,R18
0004c8 27e3      	EOR  R30,R19
0004c9 78e0      	ANDI R30,LOW(0x80)
0004ca f011      	BREQ _0x200000A
0004cb e0e9      	LDI  R30,LOW(9)
0004cc 272e      	EOR  R18,R30
                 _0x200000A:
0004cd 0f33      	LSL  R19
0004ce 5011      	SUBI R17,LOW(1)
0004cf f7b1      	BRNE _0x2000008
0004d0 5001      	SUBI R16,LOW(1)
0004d1 f771      	BRNE _0x2000005
0004d2 2fe2      	MOV  R30,R18
0004d3 0fee      	LSL  R30
0004d4 60e1      	ORI  R30,1
0004d5 940e 1ea6 	CALL __LOADLOCR4
0004d7 c539      	RJMP _0x20A0013
                 ; .FEND
                 _wait_ready_G100:
                 ; .FSTART _wait_ready_G100
0004d8 931a      	ST   -Y,R17
0004d9 e3e2      	LDI  R30,LOW(50)
0004da 93e0 0ef6 	STS  _timer2_G100,R30
0004dc efef      	LDI  R30,LOW(255)
0004dd bdee      	OUT  0x2E,R30
                 _0x200000B:
0004de b5ed      	IN   R30,0x2D
0004df ffe7      	SBRS R30,7
0004e0 cffd      	RJMP _0x200000B
                 _0x200000F:
0004e1 efef      	LDI  R30,LOW(255)
0004e2 bdee      	OUT  0x2E,R30
                 _0x2000011:
0004e3 b5ed      	IN   R30,0x2D
0004e4 ffe7      	SBRS R30,7
0004e5 cffd      	RJMP _0x2000011
0004e6 b51e      	IN   R17,46
0004e7 3f1f      	CPI  R17,255
0004e8 f021      	BREQ _0x2000014
0004e9 91e0 0ef6 	LDS  R30,_timer2_G100
0004eb 30e0      	CPI  R30,0
0004ec f409      	BRNE _0x2000015
                 _0x2000014:
0004ed c001      	RJMP _0x2000010
                 _0x2000015:
0004ee cff2      	RJMP _0x200000F
                 _0x2000010:
0004ef 2fe1      	MOV  R30,R17
0004f0 c49f      	RJMP _0x20A0014
                 ; .FEND
                 _deselect_card_G100:
                 ; .FSTART _deselect_card_G100
0004f1 9a28      	SBI  0x5,0
0004f2 efef      	LDI  R30,LOW(255)
0004f3 bdee      	OUT  0x2E,R30
                 _0x2000016:
0004f4 b5ed      	IN   R30,0x2D
0004f5 ffe7      	SBRS R30,7
0004f6 cffd      	RJMP _0x2000016
0004f7 9508      	RET
                 ; .FEND
                 _rx_datablock_G100:
                 ; .FSTART _rx_datablock_G100
0004f8 93ba      	ST   -Y,R27
0004f9 93aa      	ST   -Y,R26
0004fa 940e 1e9f 	CALL __SAVELOCR4
0004fc e1e4      	LDI  R30,LOW(20)
0004fd 93e0 0ef5 	STS  _timer1_G100,R30
                 _0x200001A:
0004ff efef      	LDI  R30,LOW(255)
000500 bdee      	OUT  0x2E,R30
                 _0x200001C:
000501 b5ed      	IN   R30,0x2D
000502 ffe7      	SBRS R30,7
000503 cffd      	RJMP _0x200001C
000504 b51e      	IN   R17,46
000505 3f1f      	CPI  R17,255
000506 f421      	BRNE _0x200001F
000507 91e0 0ef5 	LDS  R30,_timer1_G100
000509 30e0      	CPI  R30,0
00050a f409      	BRNE _0x2000020
                 _0x200001F:
00050b c001      	RJMP _0x200001B
                 _0x2000020:
00050c cff2      	RJMP _0x200001A
                 _0x200001B:
00050d 3f1e      	CPI  R17,254
00050e f021      	BREQ _0x2000021
00050f e0e0      	LDI  R30,LOW(0)
000510 940e 1ea6 	CALL __LOADLOCR4
000512 c2b6      	RJMP _0x20A0016
                 _0x2000021:
                +
000513 812e     +LDD R18 , Y + 6
000514 813f     +LDD R19 , Y + 6 + 1
                 	__GETWRS 18,19,6
                 _0x2000023:
000515 efef      	LDI  R30,LOW(255)
000516 bdee      	OUT  0x2E,R30
                 _0x2000025:
000517 b5ed      	IN   R30,0x2D
000518 ffe7      	SBRS R30,7
000519 cffd      	RJMP _0x2000025
00051a 933f      	PUSH R19
00051b 932f      	PUSH R18
                +
00051c 5f2f     +SUBI R18 , LOW ( - 1 )
00051d 4f3f     +SBCI R19 , HIGH ( - 1 )
                 	__ADDWRN 18,19,1
00051e b5ee      	IN   R30,0x2E
00051f 91af      	POP  R26
000520 91bf      	POP  R27
000521 93ec      	ST   X,R30
000522 efef      	LDI  R30,LOW(255)
000523 bdee      	OUT  0x2E,R30
                 _0x2000028:
000524 b5ed      	IN   R30,0x2D
000525 ffe7      	SBRS R30,7
000526 cffd      	RJMP _0x2000028
000527 933f      	PUSH R19
000528 932f      	PUSH R18
                +
000529 5f2f     +SUBI R18 , LOW ( - 1 )
00052a 4f3f     +SBCI R19 , HIGH ( - 1 )
                 	__ADDWRN 18,19,1
00052b b5ee      	IN   R30,0x2E
00052c 91af      	POP  R26
00052d 91bf      	POP  R27
00052e 93ec      	ST   X,R30
00052f efef      	LDI  R30,LOW(255)
000530 bdee      	OUT  0x2E,R30
                 _0x200002B:
000531 b5ed      	IN   R30,0x2D
000532 ffe7      	SBRS R30,7
000533 cffd      	RJMP _0x200002B
000534 933f      	PUSH R19
000535 932f      	PUSH R18
                +
000536 5f2f     +SUBI R18 , LOW ( - 1 )
000537 4f3f     +SBCI R19 , HIGH ( - 1 )
                 	__ADDWRN 18,19,1
000538 b5ee      	IN   R30,0x2E
000539 91af      	POP  R26
00053a 91bf      	POP  R27
00053b 93ec      	ST   X,R30
00053c efef      	LDI  R30,LOW(255)
00053d bdee      	OUT  0x2E,R30
                 _0x200002E:
00053e b5ed      	IN   R30,0x2D
00053f ffe7      	SBRS R30,7
000540 cffd      	RJMP _0x200002E
000541 933f      	PUSH R19
000542 932f      	PUSH R18
                +
000543 5f2f     +SUBI R18 , LOW ( - 1 )
000544 4f3f     +SBCI R19 , HIGH ( - 1 )
                 	__ADDWRN 18,19,1
000545 b5ee      	IN   R30,0x2E
000546 91af      	POP  R26
000547 91bf      	POP  R27
000548 93ec      	ST   X,R30
000549 81ec      	LDD  R30,Y+4
00054a 81fd      	LDD  R31,Y+4+1
00054b 9734      	SBIW R30,4
00054c 83ec      	STD  Y+4,R30
00054d 83fd      	STD  Y+4+1,R31
00054e f631      	BRNE _0x2000023
00054f efef      	LDI  R30,LOW(255)
000550 bdee      	OUT  0x2E,R30
                 _0x2000031:
000551 b5ed      	IN   R30,0x2D
000552 ffe7      	SBRS R30,7
000553 cffd      	RJMP _0x2000031
000554 efef      	LDI  R30,LOW(255)
000555 bdee      	OUT  0x2E,R30
                 _0x2000034:
000556 b5ed      	IN   R30,0x2D
000557 ffe7      	SBRS R30,7
000558 cffd      	RJMP _0x2000034
000559 e0e1      	LDI  R30,LOW(1)
00055a 940e 1ea6 	CALL __LOADLOCR4
00055c c26c      	RJMP _0x20A0016
                 ; .FEND
                 _tx_datablock_G100:
                 ; .FSTART _tx_datablock_G100
00055d 93aa      	ST   -Y,R26
00055e 940e 1e9f 	CALL __SAVELOCR4
000560 df77      	RCALL _wait_ready_G100
000561 3fef      	CPI  R30,LOW(0xFF)
000562 f021      	BREQ _0x2000037
000563 e0e0      	LDI  R30,LOW(0)
000564 940e 1ea6 	CALL __LOADLOCR4
000566 c4aa      	RJMP _0x20A0013
                 _0x2000037:
000567 81ec      	LDD  R30,Y+4
000568 bdee      	OUT  0x2E,R30
                 _0x2000038:
000569 b5ed      	IN   R30,0x2D
00056a ffe7      	SBRS R30,7
00056b cffd      	RJMP _0x2000038
00056c 81ac      	LDD  R26,Y+4
00056d 3fad      	CPI  R26,LOW(0xFD)
00056e f169      	BREQ _0x200003B
00056f e000      	LDI  R16,LOW(0)
                +
000570 812d     +LDD R18 , Y + 5
000571 813e     +LDD R19 , Y + 5 + 1
                 	__GETWRS 18,19,5
                 _0x200003D:
000572 01d9      	MOVW R26,R18
                +
000573 5f2f     +SUBI R18 , LOW ( - 1 )
000574 4f3f     +SBCI R19 , HIGH ( - 1 )
                 	__ADDWRN 18,19,1
000575 91ec      	LD   R30,X
000576 bdee      	OUT  0x2E,R30
                 _0x200003F:
000577 b5ed      	IN   R30,0x2D
000578 ffe7      	SBRS R30,7
000579 cffd      	RJMP _0x200003F
00057a 01d9      	MOVW R26,R18
                +
00057b 5f2f     +SUBI R18 , LOW ( - 1 )
00057c 4f3f     +SBCI R19 , HIGH ( - 1 )
                 	__ADDWRN 18,19,1
00057d 91ec      	LD   R30,X
00057e bdee      	OUT  0x2E,R30
                 _0x2000042:
00057f b5ed      	IN   R30,0x2D
000580 ffe7      	SBRS R30,7
000581 cffd      	RJMP _0x2000042
000582 5001      	SUBI R16,LOW(1)
000583 f771      	BRNE _0x200003D
000584 efef      	LDI  R30,LOW(255)
000585 bdee      	OUT  0x2E,R30
                 _0x2000045:
000586 b5ed      	IN   R30,0x2D
000587 ffe7      	SBRS R30,7
000588 cffd      	RJMP _0x2000045
000589 efef      	LDI  R30,LOW(255)
00058a bdee      	OUT  0x2E,R30
                 _0x2000048:
00058b b5ed      	IN   R30,0x2D
00058c ffe7      	SBRS R30,7
00058d cffd      	RJMP _0x2000048
00058e efef      	LDI  R30,LOW(255)
00058f bdee      	OUT  0x2E,R30
                 _0x200004B:
000590 b5ed      	IN   R30,0x2D
000591 ffe7      	SBRS R30,7
000592 cffd      	RJMP _0x200004B
000593 b51e      	IN   R17,46
000594 2fe1      	MOV  R30,R17
000595 71ef      	ANDI R30,LOW(0x1F)
000596 30e5      	CPI  R30,LOW(0x5)
000597 f021      	BREQ _0x200004E
000598 e0e0      	LDI  R30,LOW(0)
000599 940e 1ea6 	CALL __LOADLOCR4
00059b c475      	RJMP _0x20A0013
                 _0x200004E:
                 _0x200003B:
00059c e0e1      	LDI  R30,LOW(1)
00059d 940e 1ea6 	CALL __LOADLOCR4
00059f c471      	RJMP _0x20A0013
                 ; .FEND
                 _send_cmd_G100:
                 ; .FSTART _send_cmd_G100
0005a0 940e 1e77 	CALL __PUTPARD2
0005a2 931a      	ST   -Y,R17
0005a3 930a      	ST   -Y,R16
0005a4 81ee      	LDD  R30,Y+6
0005a5 78e0      	ANDI R30,LOW(0x80)
0005a6 f081      	BREQ _0x200004F
0005a7 81ee      	LDD  R30,Y+6
0005a8 77ef      	ANDI R30,0x7F
0005a9 83ee      	STD  Y+6,R30
0005aa e7e7      	LDI  R30,LOW(119)
0005ab 93ea      	ST   -Y,R30
                +
0005ac e0a0     +LDI R26 , LOW ( 0x0 )
0005ad e0b0     +LDI R27 , HIGH ( 0x0 )
0005ae e080     +LDI R24 , BYTE3 ( 0x0 )
0005af e090     +LDI R25 , BYTE4 ( 0x0 )
                 	__GETD2N 0x0
0005b0 dfef      	RCALL _send_cmd_G100
0005b1 2f0e      	MOV  R16,R30
0005b2 3002      	CPI  R16,2
0005b3 f018      	BRLO _0x2000050
0005b4 8119      	LDD  R17,Y+1
0005b5 8108      	LDD  R16,Y+0
0005b6 c45a      	RJMP _0x20A0013
                 _0x2000050:
                 _0x200004F:
0005b7 81ae      	LDD  R26,Y+6
0005b8 34ac      	CPI  R26,LOW(0x4C)
0005b9 f049      	BREQ _0x2000051
0005ba df36      	RCALL _deselect_card_G100
0005bb 9828      	CBI  0x5,0
0005bc df1b      	RCALL _wait_ready_G100
0005bd 3fef      	CPI  R30,LOW(0xFF)
0005be f021      	BREQ _0x2000052
0005bf efef      	LDI  R30,LOW(255)
0005c0 8119      	LDD  R17,Y+1
0005c1 8108      	LDD  R16,Y+0
0005c2 c44e      	RJMP _0x20A0013
                 _0x2000052:
                 _0x2000051:
0005c3 81ee      	LDD  R30,Y+6
0005c4 bdee      	OUT  0x2E,R30
                 _0x2000053:
0005c5 b5ed      	IN   R30,0x2D
0005c6 ffe7      	SBRS R30,7
0005c7 cffd      	RJMP _0x2000053
0005c8 81ed      	LDD  R30,Y+5
0005c9 bdee      	OUT  0x2E,R30
                 _0x2000056:
0005ca b5ed      	IN   R30,0x2D
0005cb ffe7      	SBRS R30,7
0005cc cffd      	RJMP _0x2000056
0005cd 81ec      	LDD  R30,Y+4
0005ce bdee      	OUT  0x2E,R30
                 _0x2000059:
0005cf b5ed      	IN   R30,0x2D
0005d0 ffe7      	SBRS R30,7
0005d1 cffd      	RJMP _0x2000059
0005d2 81eb      	LDD  R30,Y+3
0005d3 bdee      	OUT  0x2E,R30
                 _0x200005C:
0005d4 b5ed      	IN   R30,0x2D
0005d5 ffe7      	SBRS R30,7
0005d6 cffd      	RJMP _0x200005C
0005d7 81ea      	LDD  R30,Y+2
0005d8 bdee      	OUT  0x2E,R30
                 _0x200005F:
0005d9 b5ed      	IN   R30,0x2D
0005da ffe7      	SBRS R30,7
0005db cffd      	RJMP _0x200005F
0005dc e011      	LDI  R17,LOW(1)
0005dd 81ae      	LDD  R26,Y+6
0005de 34a0      	CPI  R26,LOW(0x40)
0005df f411      	BRNE _0x2000062
0005e0 e915      	LDI  R17,LOW(149)
0005e1 c004      	RJMP _0x2000063
                 _0x2000062:
0005e2 81ae      	LDD  R26,Y+6
0005e3 34a8      	CPI  R26,LOW(0x48)
0005e4 f409      	BRNE _0x2000064
0005e5 e817      	LDI  R17,LOW(135)
                 _0x2000064:
                 _0x2000063:
0005e6 bd1e      	OUT  0x2E,R17
                 _0x2000065:
0005e7 b5ed      	IN   R30,0x2D
0005e8 ffe7      	SBRS R30,7
0005e9 cffd      	RJMP _0x2000065
0005ea 81ae      	LDD  R26,Y+6
0005eb 34ac      	CPI  R26,LOW(0x4C)
0005ec f429      	BRNE _0x2000068
0005ed efef      	LDI  R30,LOW(255)
0005ee bdee      	OUT  0x2E,R30
                 _0x2000069:
0005ef b5ed      	IN   R30,0x2D
0005f0 ffe7      	SBRS R30,7
0005f1 cffd      	RJMP _0x2000069
                 _0x2000068:
0005f2 ef1f      	LDI  R17,LOW(255)
                 _0x200006D:
0005f3 efef      	LDI  R30,LOW(255)
0005f4 bdee      	OUT  0x2E,R30
                 _0x200006F:
0005f5 b5ed      	IN   R30,0x2D
0005f6 ffe7      	SBRS R30,7
0005f7 cffd      	RJMP _0x200006F
0005f8 b50e      	IN   R16,46
0005f9 ff07      	SBRS R16,7
0005fa c002      	RJMP _0x2000072
0005fb 5011      	SUBI R17,LOW(1)
0005fc f409      	BRNE _0x2000073
                 _0x2000072:
0005fd c001      	RJMP _0x200006E
                 _0x2000073:
0005fe cff4      	RJMP _0x200006D
                 _0x200006E:
0005ff 2fe0      	MOV  R30,R16
000600 8119      	LDD  R17,Y+1
000601 8108      	LDD  R16,Y+0
000602 c40e      	RJMP _0x20A0013
                 ; .FEND
                 _rx_spi4_G100:
                 ; .FSTART _rx_spi4_G100
000603 93ba      	ST   -Y,R27
000604 93aa      	ST   -Y,R26
000605 931a      	ST   -Y,R17
000606 e014      	LDI  R17,4
                 _0x2000075:
000607 efef      	LDI  R30,LOW(255)
000608 bdee      	OUT  0x2E,R30
                 _0x2000077:
000609 b5ed      	IN   R30,0x2D
00060a ffe7      	SBRS R30,7
00060b cffd      	RJMP _0x2000077
00060c 81a9      	LDD  R26,Y+1
00060d 81ba      	LDD  R27,Y+1+1
00060e 9611      	ADIW R26,1
00060f 83a9      	STD  Y+1,R26
000610 83ba      	STD  Y+1+1,R27
000611 9711      	SBIW R26,1
000612 b5ee      	IN   R30,0x2E
000613 93ec      	ST   X,R30
000614 5011      	SUBI R17,LOW(1)
000615 f789      	BRNE _0x2000075
000616 c4ec      	RJMP _0x20A0011
                 ; .FEND
                 _disk_initialize:
                 ; .FSTART _disk_initialize
000617 93aa      	ST   -Y,R26
000618 9724      	SBIW R28,4
000619 940e 1e9f 	CALL __SAVELOCR4
00061b 85e8      	LDD  R30,Y+8
00061c 30e0      	CPI  R30,0
00061d f011      	BREQ _0x200007A
00061e e0e1      	LDI  R30,LOW(1)
00061f c0c2      	RJMP _0x20A0019
                 _0x200007A:
000620 9824      	CBI  0x4,4
000621 9825      	CBI  0x4,5
000622 e0ea      	LDI  R30,LOW(10)
000623 93e0 0ef5 	STS  _timer1_G100,R30
                 _0x200007B:
000625 91e0 0ef5 	LDS  R30,_timer1_G100
000627 30e0      	CPI  R30,0
000628 f7e1      	BRNE _0x200007B
000629 91e0 0ef4 	LDS  R30,_status_G100
00062b 70e2      	ANDI R30,LOW(0x2)
00062c f009      	BREQ _0x200007E
00062d c0b2      	RJMP _0x20A0018
                 _0x200007E:
00062e 9a20      	SBI  0x4,0
00062f 9a28      	SBI  0x5,0
000630 b1e5      	IN   R30,0x5
000631 7fe9      	ANDI R30,LOW(0xF9)
000632 b9e5      	OUT  0x5,R30
000633 9a2b      	SBI  0x5,3
000634 9823      	CBI  0x4,3
000635 b1e4      	IN   R30,0x4
000636 60e7      	ORI  R30,LOW(0x7)
000637 b9e4      	OUT  0x4,R30
000638 e5e3      	LDI  R30,LOW(83)
000639 bdec      	OUT  0x2C,R30
00063a e0e0      	LDI  R30,LOW(0)
00063b bded      	OUT  0x2D,R30
00063c ef3f      	LDI  R19,LOW(255)
                 _0x2000080:
00063d e01a      	LDI  R17,LOW(10)
                 _0x2000083:
00063e efef      	LDI  R30,LOW(255)
00063f bdee      	OUT  0x2E,R30
                 _0x2000085:
000640 b5ed      	IN   R30,0x2D
000641 ffe7      	SBRS R30,7
000642 cffd      	RJMP _0x2000085
000643 5011      	SUBI R17,LOW(1)
000644 f7c9      	BRNE _0x2000083
000645 e4e0      	LDI  R30,LOW(64)
000646 93ea      	ST   -Y,R30
                +
000647 e0a0     +LDI R26 , LOW ( 0x0 )
000648 e0b0     +LDI R27 , HIGH ( 0x0 )
000649 e080     +LDI R24 , BYTE3 ( 0x0 )
00064a e090     +LDI R25 , BYTE4 ( 0x0 )
                 	__GETD2N 0x0
00064b df54      	RCALL _send_cmd_G100
00064c 2f0e      	MOV  R16,R30
00064d 5031      	SUBI R19,LOW(1)
00064e 3001      	CPI  R16,1
00064f f011      	BREQ _0x2000088
000650 3030      	CPI  R19,0
000651 f409      	BRNE _0x2000089
                 _0x2000088:
000652 c001      	RJMP _0x2000081
                 _0x2000089:
000653 cfe9      	RJMP _0x2000080
                 _0x2000081:
000654 e030      	LDI  R19,LOW(0)
000655 3001      	CPI  R16,1
000656 f009      	BREQ PC+2
000657 c068      	RJMP _0x200008A
000658 e6e4      	LDI  R30,LOW(100)
000659 93e0 0ef5 	STS  _timer1_G100,R30
00065b e4e8      	LDI  R30,LOW(72)
00065c 93ea      	ST   -Y,R30
                +
00065d eaaa     +LDI R26 , LOW ( 0x1AA )
00065e e0b1     +LDI R27 , HIGH ( 0x1AA )
00065f e080     +LDI R24 , BYTE3 ( 0x1AA )
000660 e090     +LDI R25 , BYTE4 ( 0x1AA )
                 	__GETD2N 0x1AA
000661 df3e      	RCALL _send_cmd_G100
000662 30e1      	CPI  R30,LOW(0x1)
000663 f591      	BRNE _0x200008B
000664 01de      	MOVW R26,R28
000665 9614      	ADIW R26,4
000666 df9c      	RCALL _rx_spi4_G100
000667 81ae      	LDD  R26,Y+6
000668 30a1      	CPI  R26,LOW(0x1)
000669 f419      	BRNE _0x200008D
00066a 81af      	LDD  R26,Y+7
00066b 3aaa      	CPI  R26,LOW(0xAA)
00066c f009      	BREQ _0x200008E
                 _0x200008D:
00066d c027      	RJMP _0x200008C
                 _0x200008E:
                 _0x200008F:
00066e 91e0 0ef5 	LDS  R30,_timer1_G100
000670 30e0      	CPI  R30,0
000671 f049      	BREQ _0x2000092
000672 eee9      	LDI  R30,LOW(233)
000673 93ea      	ST   -Y,R30
                +
000674 e0a0     +LDI R26 , LOW ( 0x40000000 )
000675 e0b0     +LDI R27 , HIGH ( 0x40000000 )
000676 e080     +LDI R24 , BYTE3 ( 0x40000000 )
000677 e490     +LDI R25 , BYTE4 ( 0x40000000 )
                 	__GETD2N 0x40000000
000678 df27      	RCALL _send_cmd_G100
000679 30e0      	CPI  R30,0
00067a f409      	BRNE _0x2000093
                 _0x2000092:
00067b c001      	RJMP _0x2000091
                 _0x2000093:
00067c cff1      	RJMP _0x200008F
                 _0x2000091:
00067d 91e0 0ef5 	LDS  R30,_timer1_G100
00067f 30e0      	CPI  R30,0
000680 f049      	BREQ _0x2000095
000681 e7ea      	LDI  R30,LOW(122)
000682 93ea      	ST   -Y,R30
                +
000683 e0a0     +LDI R26 , LOW ( 0x0 )
000684 e0b0     +LDI R27 , HIGH ( 0x0 )
000685 e080     +LDI R24 , BYTE3 ( 0x0 )
000686 e090     +LDI R25 , BYTE4 ( 0x0 )
                 	__GETD2N 0x0
000687 df18      	RCALL _send_cmd_G100
000688 30e0      	CPI  R30,0
000689 f009      	BREQ _0x2000096
                 _0x2000095:
00068a c00a      	RJMP _0x2000094
                 _0x2000096:
00068b 01de      	MOVW R26,R28
00068c 9614      	ADIW R26,4
00068d df75      	RCALL _rx_spi4_G100
00068e 81ec      	LDD  R30,Y+4
00068f 74e0      	ANDI R30,LOW(0x40)
000690 f011      	BREQ _0x2000097
000691 e0ec      	LDI  R30,LOW(12)
000692 c001      	RJMP _0x2000098
                 _0x2000097:
000693 e0e4      	LDI  R30,LOW(4)
                 _0x2000098:
000694 2f3e      	MOV  R19,R30
                 _0x2000094:
                 _0x200008C:
000695 c02a      	RJMP _0x200009A
                 _0x200008B:
000696 eee9      	LDI  R30,LOW(233)
000697 93ea      	ST   -Y,R30
                +
000698 e0a0     +LDI R26 , LOW ( 0x0 )
000699 e0b0     +LDI R27 , HIGH ( 0x0 )
00069a e080     +LDI R24 , BYTE3 ( 0x0 )
00069b e090     +LDI R25 , BYTE4 ( 0x0 )
                 	__GETD2N 0x0
00069c df03      	RCALL _send_cmd_G100
00069d 30e2      	CPI  R30,LOW(0x2)
00069e f418      	BRSH _0x200009B
00069f e032      	LDI  R19,LOW(2)
0006a0 ee09      	LDI  R16,LOW(233)
0006a1 c002      	RJMP _0x200009C
                 _0x200009B:
0006a2 e031      	LDI  R19,LOW(1)
0006a3 e401      	LDI  R16,LOW(65)
                 _0x200009C:
                 _0x200009D:
0006a4 91e0 0ef5 	LDS  R30,_timer1_G100
0006a6 30e0      	CPI  R30,0
0006a7 f041      	BREQ _0x20000A0
0006a8 930a      	ST   -Y,R16
                +
0006a9 e0a0     +LDI R26 , LOW ( 0x0 )
0006aa e0b0     +LDI R27 , HIGH ( 0x0 )
0006ab e080     +LDI R24 , BYTE3 ( 0x0 )
0006ac e090     +LDI R25 , BYTE4 ( 0x0 )
                 	__GETD2N 0x0
0006ad def2      	RCALL _send_cmd_G100
0006ae 30e0      	CPI  R30,0
0006af f409      	BRNE _0x20000A1
                 _0x20000A0:
0006b0 c001      	RJMP _0x200009F
                 _0x20000A1:
0006b1 cff2      	RJMP _0x200009D
                 _0x200009F:
0006b2 91e0 0ef5 	LDS  R30,_timer1_G100
0006b4 30e0      	CPI  R30,0
0006b5 f049      	BREQ _0x20000A3
0006b6 e5e0      	LDI  R30,LOW(80)
0006b7 93ea      	ST   -Y,R30
                +
0006b8 e0a0     +LDI R26 , LOW ( 0x200 )
0006b9 e0b2     +LDI R27 , HIGH ( 0x200 )
0006ba e080     +LDI R24 , BYTE3 ( 0x200 )
0006bb e090     +LDI R25 , BYTE4 ( 0x200 )
                 	__GETD2N 0x200
0006bc dee3      	RCALL _send_cmd_G100
0006bd 30e0      	CPI  R30,0
0006be f009      	BREQ _0x20000A2
                 _0x20000A3:
0006bf e030      	LDI  R19,LOW(0)
                 _0x20000A2:
                 _0x200009A:
                 _0x200008A:
0006c0 9330 0ef7 	STS  _card_type_G100,R19
0006c2 de2e      	RCALL _deselect_card_G100
0006c3 3030      	CPI  R19,0
0006c4 f051      	BREQ _0x20000A5
0006c5 91e0 0ef4 	LDS  R30,_status_G100
0006c7 7fee      	ANDI R30,0xFE
0006c8 93e0 0ef4 	STS  _status_G100,R30
0006ca e5e0      	LDI  R30,LOW(80)
0006cb bdec      	OUT  0x2C,R30
0006cc e0e1      	LDI  R30,LOW(1)
0006cd bded      	OUT  0x2D,R30
0006ce c011      	RJMP _0x20000A6
                 _0x20000A5:
0006cf 9828      	CBI  0x5,0
0006d0 de07      	RCALL _wait_ready_G100
0006d1 de1f      	RCALL _deselect_card_G100
0006d2 e0e0      	LDI  R30,LOW(0)
0006d3 bdec      	OUT  0x2C,R30
0006d4 b1e4      	IN   R30,0x4
0006d5 7fe0      	ANDI R30,LOW(0xF0)
0006d6 b9e4      	OUT  0x4,R30
0006d7 b1e5      	IN   R30,0x5
0006d8 7fe0      	ANDI R30,LOW(0xF0)
0006d9 b9e5      	OUT  0x5,R30
0006da 9820      	CBI  0x4,0
0006db 91e0 0ef4 	LDS  R30,_status_G100
0006dd 60e1      	ORI  R30,1
0006de 93e0 0ef4 	STS  _status_G100,R30
                 _0x20000A6:
                 _0x20A0018:
0006e0 91e0 0ef4 	LDS  R30,_status_G100
                 _0x20A0019:
0006e2 940e 1ea6 	CALL __LOADLOCR4
0006e4 9629      	ADIW R28,9
0006e5 9508      	RET
                 ; .FEND
                 _disk_status:
                 ; .FSTART _disk_status
0006e6 93aa      	ST   -Y,R26
0006e7 81e8      	LD   R30,Y
0006e8 30e0      	CPI  R30,0
0006e9 f011      	BREQ _0x20000A7
0006ea e0e1      	LDI  R30,LOW(1)
0006eb c002      	RJMP _0x20A0017
                 _0x20000A7:
0006ec 91e0 0ef4 	LDS  R30,_status_G100
                 _0x20A0017:
0006ee 9621      	ADIW R28,1
0006ef 9508      	RET
                 ; .FEND
                 _disk_read:
                 ; .FSTART _disk_read
0006f0 93aa      	ST   -Y,R26
0006f1 81ef      	LDD  R30,Y+7
0006f2 30e0      	CPI  R30,0
0006f3 f419      	BRNE _0x20000A9
0006f4 81e8      	LD   R30,Y
0006f5 30e0      	CPI  R30,0
0006f6 f411      	BRNE _0x20000A8
                 _0x20000A9:
0006f7 e0e4      	LDI  R30,LOW(4)
0006f8 c0d0      	RJMP _0x20A0016
                 _0x20000A8:
0006f9 91e0 0ef4 	LDS  R30,_status_G100
0006fb 70e1      	ANDI R30,LOW(0x1)
0006fc f011      	BREQ _0x20000AB
0006fd e0e3      	LDI  R30,LOW(3)
0006fe c0ca      	RJMP _0x20A0016
                 _0x20000AB:
0006ff 91e0 0ef7 	LDS  R30,_card_type_G100
000701 70e8      	ANDI R30,LOW(0x8)
000702 f471      	BRNE _0x20000AC
                +
000703 81e9     +LDD R30 , Y + 1
000704 81fa     +LDD R31 , Y + 1 + 1
000705 816b     +LDD R22 , Y + 1 + 2
000706 817c     +LDD R23 , Y + 1 + 3
                 	__GETD1S 1
                +
000707 e0a0     +LDI R26 , LOW ( 0x200 )
000708 e0b2     +LDI R27 , HIGH ( 0x200 )
000709 e080     +LDI R24 , BYTE3 ( 0x200 )
00070a e090     +LDI R25 , BYTE4 ( 0x200 )
                 	__GETD2N 0x200
00070b 940e 1dc6 	CALL __MULD12U
                +
00070d 83e9     +STD Y + 1 , R30
00070e 83fa     +STD Y + 1 + 1 , R31
00070f 836b     +STD Y + 1 + 2 , R22
000710 837c     +STD Y + 1 + 3 , R23
                 	__PUTD1S 1
                 _0x20000AC:
000711 81a8      	LD   R26,Y
000712 30a1      	CPI  R26,LOW(0x1)
000713 f4a9      	BRNE _0x20000AD
000714 e5e1      	LDI  R30,LOW(81)
000715 93ea      	ST   -Y,R30
                +
000716 81aa     +LDD R26 , Y + 2
000717 81bb     +LDD R27 , Y + 2 + 1
000718 818c     +LDD R24 , Y + 2 + 2
000719 819d     +LDD R25 , Y + 2 + 3
                 	__GETD2S 2
00071a de85      	RCALL _send_cmd_G100
00071b 30e0      	CPI  R30,0
00071c f459      	BRNE _0x20000AE
00071d 81ed      	LDD  R30,Y+5
00071e 81fe      	LDD  R31,Y+5+1
00071f 93fa      	ST   -Y,R31
000720 93ea      	ST   -Y,R30
000721 e0a0      	LDI  R26,LOW(512)
000722 e0b2      	LDI  R27,HIGH(512)
000723 ddd4      	RCALL _rx_datablock_G100
000724 30e0      	CPI  R30,0
000725 f011      	BREQ _0x20000AF
000726 e0e0      	LDI  R30,LOW(0)
000727 83e8      	ST   Y,R30
                 _0x20000AF:
                 _0x20000AE:
000728 c023      	RJMP _0x20000B0
                 _0x20000AD:
000729 e5e2      	LDI  R30,LOW(82)
00072a 93ea      	ST   -Y,R30
                +
00072b 81aa     +LDD R26 , Y + 2
00072c 81bb     +LDD R27 , Y + 2 + 1
00072d 818c     +LDD R24 , Y + 2 + 2
00072e 819d     +LDD R25 , Y + 2 + 3
                 	__GETD2S 2
00072f de70      	RCALL _send_cmd_G100
000730 30e0      	CPI  R30,0
000731 f4d1      	BRNE _0x20000B1
                 _0x20000B3:
000732 81ed      	LDD  R30,Y+5
000733 81fe      	LDD  R31,Y+5+1
000734 93fa      	ST   -Y,R31
000735 93ea      	ST   -Y,R30
000736 e0a0      	LDI  R26,LOW(512)
000737 e0b2      	LDI  R27,HIGH(512)
000738 ddbf      	RCALL _rx_datablock_G100
000739 30e0      	CPI  R30,0
00073a f051      	BREQ _0x20000B4
00073b 81ed      	LDD  R30,Y+5
00073c 81fe      	LDD  R31,Y+5+1
00073d 50e0      	SUBI R30,LOW(-512)
00073e 4ffe      	SBCI R31,HIGH(-512)
00073f 83ed      	STD  Y+5,R30
000740 83fe      	STD  Y+5+1,R31
000741 81e8      	LD   R30,Y
000742 50e1      	SUBI R30,LOW(1)
000743 83e8      	ST   Y,R30
000744 f769      	BRNE _0x20000B3
                 _0x20000B4:
000745 e4ec      	LDI  R30,LOW(76)
000746 93ea      	ST   -Y,R30
                +
000747 e0a0     +LDI R26 , LOW ( 0x0 )
000748 e0b0     +LDI R27 , HIGH ( 0x0 )
000749 e080     +LDI R24 , BYTE3 ( 0x0 )
00074a e090     +LDI R25 , BYTE4 ( 0x0 )
                 	__GETD2N 0x0
00074b de54      	RCALL _send_cmd_G100
                 _0x20000B1:
                 _0x20000B0:
00074c dda4      	RCALL _deselect_card_G100
00074d 81e8      	LD   R30,Y
00074e 30e0      	CPI  R30,0
00074f f011      	BREQ _0x20000B6
000750 e0e1      	LDI  R30,LOW(1)
000751 c001      	RJMP _0x20000B7
                 _0x20000B6:
000752 e0e0      	LDI  R30,LOW(0)
                 _0x20000B7:
000753 c075      	RJMP _0x20A0016
                 ; .FEND
                 _disk_write:
                 ; .FSTART _disk_write
000754 93aa      	ST   -Y,R26
000755 81ef      	LDD  R30,Y+7
000756 30e0      	CPI  R30,0
000757 f419      	BRNE _0x20000BA
000758 81e8      	LD   R30,Y
000759 30e0      	CPI  R30,0
00075a f411      	BRNE _0x20000B9
                 _0x20000BA:
00075b e0e4      	LDI  R30,LOW(4)
00075c c06c      	RJMP _0x20A0016
                 _0x20000B9:
00075d 91e0 0ef4 	LDS  R30,_status_G100
00075f 70e1      	ANDI R30,LOW(0x1)
000760 f011      	BREQ _0x20000BC
000761 e0e3      	LDI  R30,LOW(3)
000762 c066      	RJMP _0x20A0016
                 _0x20000BC:
000763 91e0 0ef4 	LDS  R30,_status_G100
000765 70e4      	ANDI R30,LOW(0x4)
000766 f011      	BREQ _0x20000BD
000767 e0e2      	LDI  R30,LOW(2)
000768 c060      	RJMP _0x20A0016
                 _0x20000BD:
000769 91e0 0ef7 	LDS  R30,_card_type_G100
00076b 70e8      	ANDI R30,LOW(0x8)
00076c f471      	BRNE _0x20000BE
                +
00076d 81e9     +LDD R30 , Y + 1
00076e 81fa     +LDD R31 , Y + 1 + 1
00076f 816b     +LDD R22 , Y + 1 + 2
000770 817c     +LDD R23 , Y + 1 + 3
                 	__GETD1S 1
                +
000771 e0a0     +LDI R26 , LOW ( 0x200 )
000772 e0b2     +LDI R27 , HIGH ( 0x200 )
000773 e080     +LDI R24 , BYTE3 ( 0x200 )
000774 e090     +LDI R25 , BYTE4 ( 0x200 )
                 	__GETD2N 0x200
000775 940e 1dc6 	CALL __MULD12U
                +
000777 83e9     +STD Y + 1 , R30
000778 83fa     +STD Y + 1 + 1 , R31
000779 836b     +STD Y + 1 + 2 , R22
00077a 837c     +STD Y + 1 + 3 , R23
                 	__PUTD1S 1
                 _0x20000BE:
00077b 81a8      	LD   R26,Y
00077c 30a1      	CPI  R26,LOW(0x1)
00077d f4a1      	BRNE _0x20000BF
00077e e5e8      	LDI  R30,LOW(88)
00077f 93ea      	ST   -Y,R30
                +
000780 81aa     +LDD R26 , Y + 2
000781 81bb     +LDD R27 , Y + 2 + 1
000782 818c     +LDD R24 , Y + 2 + 2
000783 819d     +LDD R25 , Y + 2 + 3
                 	__GETD2S 2
000784 de1b      	RCALL _send_cmd_G100
000785 30e0      	CPI  R30,0
000786 f451      	BRNE _0x20000C0
000787 81ed      	LDD  R30,Y+5
000788 81fe      	LDD  R31,Y+5+1
000789 93fa      	ST   -Y,R31
00078a 93ea      	ST   -Y,R30
00078b efae      	LDI  R26,LOW(254)
00078c ddd0      	RCALL _tx_datablock_G100
00078d 30e0      	CPI  R30,0
00078e f011      	BREQ _0x20000C1
00078f e0e0      	LDI  R30,LOW(0)
000790 83e8      	ST   Y,R30
                 _0x20000C1:
                 _0x20000C0:
000791 c030      	RJMP _0x20000C2
                 _0x20000BF:
000792 91e0 0ef7 	LDS  R30,_card_type_G100
000794 70e6      	ANDI R30,LOW(0x6)
000795 f039      	BREQ _0x20000C3
000796 ede7      	LDI  R30,LOW(215)
000797 93ea      	ST   -Y,R30
000798 81a9      	LDD  R26,Y+1
000799 27bb      	CLR  R27
00079a 2788      	CLR  R24
00079b 2799      	CLR  R25
00079c de03      	RCALL _send_cmd_G100
                 _0x20000C3:
00079d e5e9      	LDI  R30,LOW(89)
00079e 93ea      	ST   -Y,R30
                +
00079f 81aa     +LDD R26 , Y + 2
0007a0 81bb     +LDD R27 , Y + 2 + 1
0007a1 818c     +LDD R24 , Y + 2 + 2
0007a2 819d     +LDD R25 , Y + 2 + 3
                 	__GETD2S 2
0007a3 ddfc      	RCALL _send_cmd_G100
0007a4 30e0      	CPI  R30,0
0007a5 f4e1      	BRNE _0x20000C4
                 _0x20000C6:
0007a6 81ed      	LDD  R30,Y+5
0007a7 81fe      	LDD  R31,Y+5+1
0007a8 93fa      	ST   -Y,R31
0007a9 93ea      	ST   -Y,R30
0007aa efac      	LDI  R26,LOW(252)
0007ab ddb1      	RCALL _tx_datablock_G100
0007ac 30e0      	CPI  R30,0
0007ad f051      	BREQ _0x20000C7
0007ae 81ed      	LDD  R30,Y+5
0007af 81fe      	LDD  R31,Y+5+1
0007b0 50e0      	SUBI R30,LOW(-512)
0007b1 4ffe      	SBCI R31,HIGH(-512)
0007b2 83ed      	STD  Y+5,R30
0007b3 83fe      	STD  Y+5+1,R31
0007b4 81e8      	LD   R30,Y
0007b5 50e1      	SUBI R30,LOW(1)
0007b6 83e8      	ST   Y,R30
0007b7 f771      	BRNE _0x20000C6
                 _0x20000C7:
0007b8 e0e0      	LDI  R30,LOW(0)
0007b9 e0f0      	LDI  R31,HIGH(0)
0007ba 93fa      	ST   -Y,R31
0007bb 93ea      	ST   -Y,R30
0007bc efad      	LDI  R26,LOW(253)
0007bd dd9f      	RCALL _tx_datablock_G100
0007be 30e0      	CPI  R30,0
0007bf f411      	BRNE _0x20000C9
0007c0 e0e1      	LDI  R30,LOW(1)
0007c1 83e8      	ST   Y,R30
                 _0x20000C9:
                 _0x20000C4:
                 _0x20000C2:
0007c2 dd2e      	RCALL _deselect_card_G100
0007c3 81e8      	LD   R30,Y
0007c4 30e0      	CPI  R30,0
0007c5 f011      	BREQ _0x20000CA
0007c6 e0e1      	LDI  R30,LOW(1)
0007c7 c001      	RJMP _0x20000CB
                 _0x20000CA:
0007c8 e0e0      	LDI  R30,LOW(0)
                 _0x20000CB:
                 _0x20A0016:
0007c9 9628      	ADIW R28,8
0007ca 9508      	RET
                 ; .FEND
                 _disk_ioctl:
                 ; .FSTART _disk_ioctl
0007cb 93ba      	ST   -Y,R27
0007cc 93aa      	ST   -Y,R26
0007cd 9760      	SBIW R28,16
0007ce 940e 1e9f 	CALL __SAVELOCR4
0007d0 89ef      	LDD  R30,Y+23
0007d1 30e0      	CPI  R30,0
0007d2 f011      	BREQ _0x20000CD
0007d3 e0e4      	LDI  R30,LOW(4)
0007d4 c183      	RJMP _0x20A0015
                 _0x20000CD:
0007d5 91e0 0ef4 	LDS  R30,_status_G100
0007d7 70e1      	ANDI R30,LOW(0x1)
0007d8 f011      	BREQ _0x20000CE
0007d9 e0e3      	LDI  R30,LOW(3)
0007da c17d      	RJMP _0x20A0015
                 _0x20000CE:
0007db e011      	LDI  R17,LOW(1)
0007dc 89ee      	LDD  R30,Y+22
0007dd 30e0      	CPI  R30,0
0007de f431      	BRNE _0x20000D2
0007df 9828      	CBI  0x5,0
0007e0 dcf7      	RCALL _wait_ready_G100
0007e1 3fef      	CPI  R30,LOW(0xFF)
0007e2 f409      	BRNE _0x20000D3
0007e3 e010      	LDI  R17,LOW(0)
                 _0x20000D3:
0007e4 c171      	RJMP _0x20000D1
                 _0x20000D2:
0007e5 30e1      	CPI  R30,LOW(0x1)
0007e6 f009      	BREQ PC+2
0007e7 c05b      	RJMP _0x20000D4
0007e8 e4e9      	LDI  R30,LOW(73)
0007e9 93ea      	ST   -Y,R30
                +
0007ea e0a0     +LDI R26 , LOW ( 0x0 )
0007eb e0b0     +LDI R27 , HIGH ( 0x0 )
0007ec e080     +LDI R24 , BYTE3 ( 0x0 )
0007ed e090     +LDI R25 , BYTE4 ( 0x0 )
                 	__GETD2N 0x0
0007ee ddb1      	RCALL _send_cmd_G100
0007ef 30e0      	CPI  R30,0
0007f0 f449      	BRNE _0x20000D6
0007f1 01fe      	MOVW R30,R28
0007f2 9634      	ADIW R30,4
0007f3 93fa      	ST   -Y,R31
0007f4 93ea      	ST   -Y,R30
0007f5 e1a0      	LDI  R26,LOW(16)
0007f6 e0b0      	LDI  R27,0
0007f7 dd00      	RCALL _rx_datablock_G100
0007f8 30e0      	CPI  R30,0
0007f9 f409      	BRNE _0x20000D7
                 _0x20000D6:
0007fa c047      	RJMP _0x20000D5
                 _0x20000D7:
0007fb 81ec      	LDD  R30,Y+4
0007fc 95e2      	SWAP R30
0007fd 70ef      	ANDI R30,0xF
0007fe 95e6      	LSR  R30
0007ff 95e6      	LSR  R30
000800 30e1      	CPI  R30,LOW(0x1)
000801 f469      	BRNE _0x20000D8
000802 e0e0      	LDI  R30,0
000803 85fc      	LDD  R31,Y+12
000804 85ad      	LDD  R26,Y+13
000805 e0b0      	LDI  R27,0
000806 0fea      	ADD  R30,R26
000807 1ffb      	ADC  R31,R27
000808 9631      	ADIW R30,1
000809 019f      	MOVW R18,R30
00080a 01d9      	MOVW R26,R18
00080b 2788      	CLR  R24
00080c 2799      	CLR  R25
00080d e0ea      	LDI  R30,LOW(10)
00080e c02c      	RJMP _0x2000109
                 _0x20000D8:
00080f 85e9      	LDD  R30,Y+9
000810 70ef      	ANDI R30,LOW(0xF)
000811 2fae      	MOV  R26,R30
000812 85ee      	LDD  R30,Y+14
000813 78e0      	ANDI R30,LOW(0x80)
000814 1fee      	ROL  R30
000815 e0e0      	LDI  R30,0
000816 1fee      	ROL  R30
000817 0fae      	ADD  R26,R30
000818 85ed      	LDD  R30,Y+13
000819 70e3      	ANDI R30,LOW(0x3)
00081a 0fee      	LSL  R30
00081b 0fea      	ADD  R30,R26
00081c 5fee      	SUBI R30,-LOW(2)
00081d 2f0e      	MOV  R16,R30
00081e 85ec      	LDD  R30,Y+12
00081f 95e2      	SWAP R30
000820 70ef      	ANDI R30,0xF
000821 95e6      	LSR  R30
000822 95e6      	LSR  R30
000823 2fae      	MOV  R26,R30
000824 85eb      	LDD  R30,Y+11
000825 e0f0      	LDI  R31,0
000826 940e 1d98 	CALL __LSLW2
000828 e0b0      	LDI  R27,0
000829 0fae      	ADD  R26,R30
00082a 1fbf      	ADC  R27,R31
00082b 85ea      	LDD  R30,Y+10
00082c 70e3      	ANDI R30,LOW(0x3)
00082d e0f0      	LDI  R31,0
00082e 940e 1d98 	CALL __LSLW2
000830 2ffe      	MOV  R31,R30
000831 e0e0      	LDI  R30,0
000832 0fea      	ADD  R30,R26
000833 1ffb      	ADC  R31,R27
000834 9631      	ADIW R30,1
000835 019f      	MOVW R18,R30
000836 01d9      	MOVW R26,R18
000837 2788      	CLR  R24
000838 2799      	CLR  R25
000839 2fe0      	MOV  R30,R16
00083a 50e9      	SUBI R30,LOW(9)
                 _0x2000109:
00083b 940e 1d7c 	CALL __LSLD12
00083d 89ac      	LDD  R26,Y+20
00083e 89bd      	LDD  R27,Y+20+1
00083f 940e 1e54 	CALL __PUTDP1
000841 e010      	LDI  R17,LOW(0)
                 _0x20000D5:
000842 c113      	RJMP _0x20000D1
                 _0x20000D4:
000843 30e2      	CPI  R30,LOW(0x2)
000844 f441      	BRNE _0x20000DA
000845 89ac      	LDD  R26,Y+20
000846 89bd      	LDD  R27,Y+20+1
000847 e0e0      	LDI  R30,LOW(512)
000848 e0f2      	LDI  R31,HIGH(512)
000849 93ed      	ST   X+,R30
00084a 93fc      	ST   X,R31
00084b e010      	LDI  R17,LOW(0)
00084c c109      	RJMP _0x20000D1
                 _0x20000DA:
00084d 30e3      	CPI  R30,LOW(0x3)
00084e f009      	BREQ PC+2
00084f c0ab      	RJMP _0x20000DB
000850 91e0 0ef7 	LDS  R30,_card_type_G100
000852 70e4      	ANDI R30,LOW(0x4)
000853 f181      	BREQ _0x20000DC
000854 eced      	LDI  R30,LOW(205)
000855 93ea      	ST   -Y,R30
                +
000856 e0a0     +LDI R26 , LOW ( 0x0 )
000857 e0b0     +LDI R27 , HIGH ( 0x0 )
000858 e080     +LDI R24 , BYTE3 ( 0x0 )
000859 e090     +LDI R25 , BYTE4 ( 0x0 )
                 	__GETD2N 0x0
00085a dd45      	RCALL _send_cmd_G100
00085b 30e0      	CPI  R30,0
00085c f531      	BRNE _0x20000DD
00085d efef      	LDI  R30,LOW(255)
00085e bdee      	OUT  0x2E,R30
                 _0x20000DE:
00085f b5ed      	IN   R30,0x2D
000860 ffe7      	SBRS R30,7
000861 cffd      	RJMP _0x20000DE
000862 01fe      	MOVW R30,R28
000863 9634      	ADIW R30,4
000864 93fa      	ST   -Y,R31
000865 93ea      	ST   -Y,R30
000866 e1a0      	LDI  R26,LOW(16)
000867 e0b0      	LDI  R27,0
000868 dc8f      	RCALL _rx_datablock_G100
000869 30e0      	CPI  R30,0
00086a f0c1      	BREQ _0x20000E1
00086b e300      	LDI  R16,LOW(48)
                 _0x20000E3:
00086c 3000      	CPI  R16,0
00086d f039      	BREQ _0x20000E4
00086e efef      	LDI  R30,LOW(255)
00086f bdee      	OUT  0x2E,R30
                 _0x20000E5:
000870 b5ed      	IN   R30,0x2D
000871 ffe7      	SBRS R30,7
000872 cffd      	RJMP _0x20000E5
000873 5001      	SUBI R16,1
000874 cff7      	RJMP _0x20000E3
                 _0x20000E4:
000875 85ee      	LDD  R30,Y+14
000876 95e2      	SWAP R30
000877 70ef      	ANDI R30,0xF
                +
000878 e1a0     +LDI R26 , LOW ( 0x10 )
000879 e0b0     +LDI R27 , HIGH ( 0x10 )
00087a e080     +LDI R24 , BYTE3 ( 0x10 )
00087b e090     +LDI R25 , BYTE4 ( 0x10 )
                 	__GETD2N 0x10
00087c 940e 1d7c 	CALL __LSLD12
00087e 89ac      	LDD  R26,Y+20
00087f 89bd      	LDD  R27,Y+20+1
000880 940e 1e54 	CALL __PUTDP1
000882 e010      	LDI  R17,LOW(0)
                 _0x20000E1:
                 _0x20000DD:
000883 c076      	RJMP _0x20000E8
                 _0x20000DC:
000884 e4e9      	LDI  R30,LOW(73)
000885 93ea      	ST   -Y,R30
                +
000886 e0a0     +LDI R26 , LOW ( 0x0 )
000887 e0b0     +LDI R27 , HIGH ( 0x0 )
000888 e080     +LDI R24 , BYTE3 ( 0x0 )
000889 e090     +LDI R25 , BYTE4 ( 0x0 )
                 	__GETD2N 0x0
00088a dd15      	RCALL _send_cmd_G100
00088b 30e0      	CPI  R30,0
00088c f009      	BREQ PC+2
00088d c06c      	RJMP _0x20000E9
00088e 01fe      	MOVW R30,R28
00088f 9634      	ADIW R30,4
000890 93fa      	ST   -Y,R31
000891 93ea      	ST   -Y,R30
000892 e1a0      	LDI  R26,LOW(16)
000893 e0b0      	LDI  R27,0
000894 dc63      	RCALL _rx_datablock_G100
000895 30e0      	CPI  R30,0
000896 f409      	BRNE PC+2
000897 c062      	RJMP _0x20000EA
000898 91e0 0ef7 	LDS  R30,_card_type_G100
00089a 70e2      	ANDI R30,LOW(0x2)
00089b f151      	BREQ _0x20000EB
00089c 85ee      	LDD  R30,Y+14
00089d 73ef      	ANDI R30,LOW(0x3F)
00089e 27ff      	CLR  R31
00089f 2766      	CLR  R22
0008a0 2777      	CLR  R23
0008a1 940e 1da6 	CALL __LSLD1
0008a3 937f      	PUSH R23
0008a4 936f      	PUSH R22
0008a5 93ff      	PUSH R31
0008a6 93ef      	PUSH R30
0008a7 85ef      	LDD  R30,Y+15
0008a8 78e0      	ANDI R30,LOW(0x80)
0008a9 27ff      	CLR  R31
0008aa 2766      	CLR  R22
0008ab 2777      	CLR  R23
0008ac 01df      	MOVW R26,R30
0008ad 01cb      	MOVW R24,R22
0008ae e0e7      	LDI  R30,LOW(7)
0008af 940e 1d88 	CALL __LSRD12
0008b1 91af      	POP  R26
0008b2 91bf      	POP  R27
0008b3 918f      	POP  R24
0008b4 919f      	POP  R25
0008b5 940e 1d57 	CALL __ADDD12
                +
0008b7 5fef     +SUBI R30 , LOW ( - 1 )
0008b8 4fff     +SBCI R31 , HIGH ( - 1 )
0008b9 4f6f     +SBCI R22 , BYTE3 ( - 1 )
0008ba 4f7f     +SBCI R23 , BYTE4 ( - 1 )
                 	__ADDD1N 1
0008bb 01df      	MOVW R26,R30
0008bc 01cb      	MOVW R24,R22
0008bd 89e9      	LDD  R30,Y+17
0008be 95e2      	SWAP R30
0008bf 70ef      	ANDI R30,0xF
0008c0 95e6      	LSR  R30
0008c1 95e6      	LSR  R30
0008c2 50e1      	SUBI R30,LOW(1)
0008c3 940e 1d7c 	CALL __LSLD12
0008c5 c02f      	RJMP _0x200010A
                 _0x20000EB:
0008c6 85ee      	LDD  R30,Y+14
0008c7 77ec      	ANDI R30,LOW(0x7C)
0008c8 95e6      	LSR  R30
0008c9 95e6      	LSR  R30
0008ca 27ff      	CLR  R31
0008cb 2766      	CLR  R22
0008cc 2777      	CLR  R23
                +
0008cd 5fef     +SUBI R30 , LOW ( - 1 )
0008ce 4fff     +SBCI R31 , HIGH ( - 1 )
0008cf 4f6f     +SBCI R22 , BYTE3 ( - 1 )
0008d0 4f7f     +SBCI R23 , BYTE4 ( - 1 )
                 	__ADDD1N 1
0008d1 937f      	PUSH R23
0008d2 936f      	PUSH R22
0008d3 93ff      	PUSH R31
0008d4 93ef      	PUSH R30
0008d5 85ef      	LDD  R30,Y+15
0008d6 70e3      	ANDI R30,LOW(0x3)
0008d7 27ff      	CLR  R31
0008d8 2766      	CLR  R22
0008d9 2777      	CLR  R23
0008da 01df      	MOVW R26,R30
0008db 01cb      	MOVW R24,R22
0008dc e0e3      	LDI  R30,LOW(3)
0008dd 940e 1d7c 	CALL __LSLD12
0008df 01df      	MOVW R26,R30
0008e0 01cb      	MOVW R24,R22
0008e1 85ef      	LDD  R30,Y+15
0008e2 7ee0      	ANDI R30,LOW(0xE0)
0008e3 95e2      	SWAP R30
0008e4 70ef      	ANDI R30,0xF
0008e5 95e6      	LSR  R30
0008e6 27ff      	CLR  R31
0008e7 2766      	CLR  R22
0008e8 2777      	CLR  R23
0008e9 940e 1d57 	CALL __ADDD12
                +
0008eb 5fef     +SUBI R30 , LOW ( - 1 )
0008ec 4fff     +SBCI R31 , HIGH ( - 1 )
0008ed 4f6f     +SBCI R22 , BYTE3 ( - 1 )
0008ee 4f7f     +SBCI R23 , BYTE4 ( - 1 )
                 	__ADDD1N 1
0008ef 91af      	POP  R26
0008f0 91bf      	POP  R27
0008f1 918f      	POP  R24
0008f2 919f      	POP  R25
0008f3 940e 1dc6 	CALL __MULD12U
                 _0x200010A:
0008f5 89ac      	LDD  R26,Y+20
0008f6 89bd      	LDD  R27,Y+20+1
0008f7 940e 1e54 	CALL __PUTDP1
0008f9 e010      	LDI  R17,LOW(0)
                 _0x20000EA:
                 _0x20000E9:
                 _0x20000E8:
0008fa c05b      	RJMP _0x20000D1
                 _0x20000DB:
0008fb 30ea      	CPI  R30,LOW(0xA)
0008fc f439      	BRNE _0x20000ED
0008fd 91e0 0ef7 	LDS  R30,_card_type_G100
0008ff 89ac      	LDD  R26,Y+20
000900 89bd      	LDD  R27,Y+20+1
000901 93ec      	ST   X,R30
000902 e010      	LDI  R17,LOW(0)
000903 c052      	RJMP _0x20000D1
                 _0x20000ED:
000904 30eb      	CPI  R30,LOW(0xB)
000905 f411      	BRNE _0x20000EE
000906 e409      	LDI  R16,LOW(73)
000907 c003      	RJMP _0x20000EF
                 _0x20000EE:
000908 30ec      	CPI  R30,LOW(0xC)
000909 f501      	BRNE _0x20000F1
00090a e40a      	LDI  R16,LOW(74)
                 _0x20000EF:
00090b 930a      	ST   -Y,R16
                +
00090c e0a0     +LDI R26 , LOW ( 0x0 )
00090d e0b0     +LDI R27 , HIGH ( 0x0 )
00090e e080     +LDI R24 , BYTE3 ( 0x0 )
00090f e090     +LDI R25 , BYTE4 ( 0x0 )
                 	__GETD2N 0x0
000910 dc8f      	RCALL _send_cmd_G100
000911 30e0      	CPI  R30,0
000912 f4b1      	BRNE _0x20000F2
000913 89ec      	LDD  R30,Y+20
000914 89fd      	LDD  R31,Y+20+1
000915 93fa      	ST   -Y,R31
000916 93ea      	ST   -Y,R30
000917 e1a0      	LDI  R26,LOW(16)
000918 e0b0      	LDI  R27,0
000919 dbde      	RCALL _rx_datablock_G100
00091a 30e0      	CPI  R30,0
00091b f069      	BREQ _0x20000F3
00091c 89ec      	LDD  R30,Y+20
00091d 89fd      	LDD  R31,Y+20+1
00091e 93fa      	ST   -Y,R31
00091f 93ea      	ST   -Y,R30
000920 e0af      	LDI  R26,LOW(15)
000921 db99      	RCALL _crc7_G100
000922 2fae      	MOV  R26,R30
000923 89ec      	LDD  R30,Y+20
000924 89fd      	LDD  R31,Y+20+1
000925 85e7      	LDD  R30,Z+15
000926 17ea      	CP   R30,R26
000927 f409      	BRNE _0x20000F4
000928 e010      	LDI  R17,LOW(0)
                 _0x20000F4:
                 _0x20000F3:
                 _0x20000F2:
000929 c02c      	RJMP _0x20000D1
                 _0x20000F1:
00092a 30ed      	CPI  R30,LOW(0xD)
00092b f471      	BRNE _0x20000F5
00092c e7ea      	LDI  R30,LOW(122)
00092d 93ea      	ST   -Y,R30
                +
00092e e0a0     +LDI R26 , LOW ( 0x0 )
00092f e0b0     +LDI R27 , HIGH ( 0x0 )
000930 e080     +LDI R24 , BYTE3 ( 0x0 )
000931 e090     +LDI R25 , BYTE4 ( 0x0 )
                 	__GETD2N 0x0
000932 dc6d      	RCALL _send_cmd_G100
000933 30e0      	CPI  R30,0
000934 f421      	BRNE _0x20000F6
000935 89ac      	LDD  R26,Y+20
000936 89bd      	LDD  R27,Y+20+1
000937 dccb      	RCALL _rx_spi4_G100
000938 e010      	LDI  R17,LOW(0)
                 _0x20000F6:
000939 c01c      	RJMP _0x20000D1
                 _0x20000F5:
00093a 30ee      	CPI  R30,LOW(0xE)
00093b f4c9      	BRNE _0x20000FD
00093c eced      	LDI  R30,LOW(205)
00093d 93ea      	ST   -Y,R30
                +
00093e e0a0     +LDI R26 , LOW ( 0x0 )
00093f e0b0     +LDI R27 , HIGH ( 0x0 )
000940 e080     +LDI R24 , BYTE3 ( 0x0 )
000941 e090     +LDI R25 , BYTE4 ( 0x0 )
                 	__GETD2N 0x0
000942 dc5d      	RCALL _send_cmd_G100
000943 30e0      	CPI  R30,0
000944 f479      	BRNE _0x20000F8
000945 efef      	LDI  R30,LOW(255)
000946 bdee      	OUT  0x2E,R30
                 _0x20000F9:
000947 b5ed      	IN   R30,0x2D
000948 ffe7      	SBRS R30,7
000949 cffd      	RJMP _0x20000F9
00094a 89ec      	LDD  R30,Y+20
00094b 89fd      	LDD  R31,Y+20+1
00094c 93fa      	ST   -Y,R31
00094d 93ea      	ST   -Y,R30
00094e e4a0      	LDI  R26,LOW(64)
00094f e0b0      	LDI  R27,0
000950 dba7      	RCALL _rx_datablock_G100
000951 30e0      	CPI  R30,0
000952 f009      	BREQ _0x20000FC
000953 e010      	LDI  R17,LOW(0)
                 _0x20000FC:
                 _0x20000F8:
000954 c001      	RJMP _0x20000D1
                 _0x20000FD:
000955 e014      	LDI  R17,LOW(4)
                 _0x20000D1:
000956 db9a      	RCALL _deselect_card_G100
000957 2fe1      	MOV  R30,R17
                 _0x20A0015:
000958 940e 1ea6 	CALL __LOADLOCR4
00095a 9668      	ADIW R28,24
00095b 9508      	RET
                 ; .FEND
                 _disk_timerproc:
                 ; .FSTART _disk_timerproc
                 
                 	.DSEG
                 
                 	.CSEG
00095c 931a      	ST   -Y,R17
00095d 9110 0ef5 	LDS  R17,_timer1_G100
00095f 3010      	CPI  R17,0
000960 f019      	BREQ _0x20000FF
000961 5011      	SUBI R17,LOW(1)
000962 9310 0ef5 	STS  _timer1_G100,R17
                 _0x20000FF:
000964 9110 0ef6 	LDS  R17,_timer2_G100
000966 3010      	CPI  R17,0
000967 f019      	BREQ _0x2000100
000968 5011      	SUBI R17,LOW(1)
000969 9310 0ef6 	STS  _timer2_G100,R17
                 _0x2000100:
00096b 9110 0ef8 	LDS  R17,_flags_S100000C000
00096d e0e0      	LDI  R30,LOW(0)
00096e 93e0 0ef8 	STS  _flags_S100000C000,R30
000970 991c      	SBIC 0x3,4
000971 c003      	RJMP _0x2000101
000972 e0e1      	LDI  R30,LOW(1)
000973 93e0 0ef8 	STS  _flags_S100000C000,R30
                 _0x2000101:
000975 9b1d      	SBIS 0x3,5
000976 c005      	RJMP _0x2000102
000977 91e0 0ef8 	LDS  R30,_flags_S100000C000
000979 60e2      	ORI  R30,2
00097a 93e0 0ef8 	STS  _flags_S100000C000,R30
                 _0x2000102:
00097c 91e0 0ef8 	LDS  R30,_flags_S100000C000
00097e 17e1      	CP   R30,R17
00097f f481      	BRNE _0x2000103
000980 9110 0ef4 	LDS  R17,_status_G100
000982 70e1      	ANDI R30,LOW(0x1)
000983 f011      	BREQ _0x2000104
000984 7f1d      	ANDI R17,LOW(253)
000985 c001      	RJMP _0x2000105
                 _0x2000104:
000986 6013      	ORI  R17,LOW(3)
                 _0x2000105:
000987 91e0 0ef8 	LDS  R30,_flags_S100000C000
000989 70e2      	ANDI R30,LOW(0x2)
00098a f011      	BREQ _0x2000106
00098b 6014      	ORI  R17,LOW(4)
00098c c001      	RJMP _0x2000107
                 _0x2000106:
00098d 7f1b      	ANDI R17,LOW(251)
                 _0x2000107:
00098e 9310 0ef4 	STS  _status_G100,R17
                 _0x2000103:
                 _0x20A0014:
000990 9119      	LD   R17,Y+
000991 9508      	RET
                 ; .FEND
                 
                 	.CSEG
                 _get_fattime:
                 ; .FSTART _get_fattime
000992 9727      	SBIW R28,7
000993 91a0 090b 	LDS  R26,_prtc_get_time
000995 91b0 090c 	LDS  R27,_prtc_get_time+1
000997 9710      	SBIW R26,0
000998 f031      	BREQ _0x2020004
000999 91a0 090d 	LDS  R26,_prtc_get_date
00099b 91b0 090e 	LDS  R27,_prtc_get_date+1
00099d 9710      	SBIW R26,0
00099e f429      	BRNE _0x2020003
                 _0x2020004:
                +
00099f e0e0     +LDI R30 , LOW ( 0x3A210000 )
0009a0 e0f0     +LDI R31 , HIGH ( 0x3A210000 )
0009a1 e261     +LDI R22 , BYTE3 ( 0x3A210000 )
0009a2 e37a     +LDI R23 , BYTE4 ( 0x3A210000 )
                 	__GETD1N 0x3A210000
0009a3 c06d      	RJMP _0x20A0013
                 _0x2020003:
0009a4 01fe      	MOVW R30,R28
0009a5 9636      	ADIW R30,6
0009a6 93fa      	ST   -Y,R31
0009a7 93ea      	ST   -Y,R30
0009a8 01fe      	MOVW R30,R28
0009a9 9637      	ADIW R30,7
0009aa 93fa      	ST   -Y,R31
0009ab 93ea      	ST   -Y,R30
0009ac 01de      	MOVW R26,R28
0009ad 9618      	ADIW R26,8
                +
0009ae 91e0 090b+LDS R30 , _prtc_get_time + ( 0 )
0009b0 91f0 090c+LDS R31 , _prtc_get_time + ( 0 ) + 1
0009b2 9509     +ICALL
                 	__CALL1MN _prtc_get_time,0
0009b3 01fe      	MOVW R30,R28
0009b4 9633      	ADIW R30,3
0009b5 93fa      	ST   -Y,R31
0009b6 93ea      	ST   -Y,R30
0009b7 01fe      	MOVW R30,R28
0009b8 9634      	ADIW R30,4
0009b9 93fa      	ST   -Y,R31
0009ba 93ea      	ST   -Y,R30
0009bb 01de      	MOVW R26,R28
0009bc 9614      	ADIW R26,4
                +
0009bd 91e0 090d+LDS R30 , _prtc_get_date + ( 0 )
0009bf 91f0 090e+LDS R31 , _prtc_get_date + ( 0 ) + 1
0009c1 9509     +ICALL
                 	__CALL1MN _prtc_get_date,0
0009c2 81e8      	LD   R30,Y
0009c3 81f9      	LDD  R31,Y+1
0009c4 5bec      	SUBI R30,LOW(1980)
0009c5 40f7      	SBCI R31,HIGH(1980)
0009c6 2766      	CLR  R22
0009c7 2777      	CLR  R23
0009c8 01df      	MOVW R26,R30
0009c9 01cb      	MOVW R24,R22
0009ca e1e9      	LDI  R30,LOW(25)
0009cb 940e 1d7c 	CALL __LSLD12
0009cd 937f      	PUSH R23
0009ce 936f      	PUSH R22
0009cf 93ff      	PUSH R31
0009d0 93ef      	PUSH R30
0009d1 81ea      	LDD  R30,Y+2
0009d2 940e 18c3 	CALL SUBOPT_0x11
0009d4 e1e5      	LDI  R30,LOW(21)
0009d5 940e 1d7c 	CALL __LSLD12
0009d7 91af      	POP  R26
0009d8 91bf      	POP  R27
0009d9 918f      	POP  R24
0009da 919f      	POP  R25
0009db 940e 1d6b 	CALL __ORD12
0009dd 01df      	MOVW R26,R30
0009de 01cb      	MOVW R24,R22
0009df 81eb      	LDD  R30,Y+3
0009e0 e0f0      	LDI  R31,0
0009e1 940e 1db5 	CALL __CWD1
0009e3 940e 1db0 	CALL __LSLD16
0009e5 940e 1d6b 	CALL __ORD12
0009e7 937f      	PUSH R23
0009e8 936f      	PUSH R22
0009e9 93ff      	PUSH R31
0009ea 93ef      	PUSH R30
0009eb 81ee      	LDD  R30,Y+6
0009ec 940e 18c3 	CALL SUBOPT_0x11
0009ee e0eb      	LDI  R30,LOW(11)
0009ef 940e 1d7c 	CALL __LSLD12
0009f1 91af      	POP  R26
0009f2 91bf      	POP  R27
0009f3 918f      	POP  R24
0009f4 919f      	POP  R25
0009f5 940e 1d6b 	CALL __ORD12
0009f7 937f      	PUSH R23
0009f8 936f      	PUSH R22
0009f9 93ff      	PUSH R31
0009fa 93ef      	PUSH R30
0009fb 81ed      	LDD  R30,Y+5
0009fc 940e 18c3 	CALL SUBOPT_0x11
0009fe e0e5      	LDI  R30,LOW(5)
0009ff 940e 1d7c 	CALL __LSLD12
000a01 91af      	POP  R26
000a02 91bf      	POP  R27
000a03 918f      	POP  R24
000a04 919f      	POP  R25
000a05 940e 1d6b 	CALL __ORD12
000a07 01df      	MOVW R26,R30
000a08 01cb      	MOVW R24,R22
000a09 81ec      	LDD  R30,Y+4
000a0a e0f0      	LDI  R31,0
000a0b 95f5      	ASR  R31
000a0c 95e7      	ROR  R30
000a0d 940e 1db5 	CALL __CWD1
000a0f 940e 1d6b 	CALL __ORD12
                 _0x20A0013:
000a11 9627      	ADIW R28,7
000a12 9508      	RET
                 ; .FEND
                 _chk_chrf_G101:
                 ; .FSTART _chk_chrf_G101
000a13 93aa      	ST   -Y,R26
000a14 931a      	ST   -Y,R17
                 _0x2020006:
000a15 940e 18c9 	CALL SUBOPT_0x12
                +
000a17 bf6b     +OUT RAMPZ , R22
000a18 91e6     +ELPM R30 , Z
                 	__GETBRPF 30
000a19 2f1e      	MOV  R17,R30
000a1a 30e0      	CPI  R30,0
000a1b f019      	BREQ _0x2020009
000a1c 81e9      	LDD  R30,Y+1
000a1d 17e1      	CP   R30,R17
000a1e f409      	BRNE _0x202000A
                 _0x2020009:
000a1f c00f      	RJMP _0x2020008
                 _0x202000A:
000a20 01de      	MOVW R26,R28
000a21 9612      	ADIW R26,2
000a22 940e 1e4f 	CALL __GETD1P_INC
                +
000a24 5fef     +SUBI R30 , LOW ( - 1 )
000a25 4fff     +SBCI R31 , HIGH ( - 1 )
000a26 4f6f     +SBCI R22 , BYTE3 ( - 1 )
000a27 4f7f     +SBCI R23 , BYTE4 ( - 1 )
                 	__ADDD1N 1
000a28 940e 1e59 	CALL __PUTDP1_DEC
                +
000a2a 50e1     +SUBI R30 , LOW ( 1 )
000a2b 40f0     +SBCI R31 , HIGH ( 1 )
000a2c 4060     +SBCI R22 , BYTE3 ( 1 )
000a2d 4070     +SBCI R23 , BYTE4 ( 1 )
                 	__SUBD1N 1
000a2e cfe6      	RJMP _0x2020006
                 _0x2020008:
000a2f 2fe1      	MOV  R30,R17
000a30 e0f0      	LDI  R31,0
000a31 8118      	LDD  R17,Y+0
000a32 9626      	ADIW R28,6
000a33 9508      	RET
                 ; .FEND
                 _move_window_G101:
                 ; .FSTART _move_window_G101
000a34 940e 1e77 	CALL __PUTPARD2
000a36 9724      	SBIW R28,4
000a37 931a      	ST   -Y,R17
000a38 85a9      	LDD  R26,Y+9
000a39 85ba      	LDD  R27,Y+9+1
000a3a 969e      	ADIW R26,46
000a3b 940e 1e49 	CALL __GETD1P
000a3d 940e 18ce 	CALL SUBOPT_0x13
000a3f 940e 18d3 	CALL SUBOPT_0x14
000a41 940e 18d8 	CALL SUBOPT_0x15
000a43 940e 1e93 	CALL __CPD12
000a45 f409      	BRNE PC+2
000a46 c052      	RJMP _0x202000B
000a47 85e9      	LDD  R30,Y+9
000a48 85fa      	LDD  R31,Y+9+1
000a49 81e4      	LDD  R30,Z+4
000a4a 30e0      	CPI  R30,0
000a4b f179      	BREQ _0x202000C
000a4c 940e 18dd 	CALL SUBOPT_0x16
000a4e 30e0      	CPI  R30,0
000a4f f5f1      	BRNE _0x20A0012
000a50 85a9      	LDD  R26,Y+9
000a51 85ba      	LDD  R27,Y+9+1
000a52 9614      	ADIW R26,4
000a53 e0e0      	LDI  R30,LOW(0)
000a54 93ec      	ST   X,R30
000a55 85e9      	LDD  R30,Y+9
000a56 85fa      	LDD  R31,Y+9+1
000a57 940e 18ef 	CALL SUBOPT_0x17
000a59 010d      	MOVW R0,R26
000a5a 85a9      	LDD  R26,Y+9
000a5b 85ba      	LDD  R27,Y+9+1
000a5c 965a      	ADIW R26,26
000a5d 940e 1e49 	CALL __GETD1P
000a5f 01d0      	MOVW R26,R0
000a60 940e 1d57 	CALL __ADDD12
000a62 940e 18d8 	CALL SUBOPT_0x15
000a64 940e 1e98 	CALL __CPD21
000a66 f4a0      	BRSH _0x202000E
000a67 85e9      	LDD  R30,Y+9
000a68 85fa      	LDD  R31,Y+9+1
000a69 8113      	LDD  R17,Z+3
                 _0x2020010:
000a6a 3012      	CPI  R17,2
000a6b f078      	BRLO _0x2020011
000a6c 85a9      	LDD  R26,Y+9
000a6d 85ba      	LDD  R27,Y+9+1
000a6e 965a      	ADIW R26,26
000a6f 940e 1e49 	CALL __GETD1P
000a71 940e 18d8 	CALL SUBOPT_0x15
000a73 940e 1d57 	CALL __ADDD12
000a75 940e 18ce 	CALL SUBOPT_0x13
000a77 940e 18dd 	CALL SUBOPT_0x16
000a79 5011      	SUBI R17,1
000a7a cfef      	RJMP _0x2020010
                 _0x2020011:
                 _0x202000E:
                 _0x202000C:
000a7b 940e 18d3 	CALL SUBOPT_0x14
000a7d 940e 1e89 	CALL __CPD10
000a7f f0c9      	BREQ _0x2020012
000a80 85e9      	LDD  R30,Y+9
000a81 85fa      	LDD  R31,Y+9+1
000a82 81a1      	LDD  R26,Z+1
000a83 93aa      	ST   -Y,R26
000a84 85ea      	LDD  R30,Y+10
000a85 85fb      	LDD  R31,Y+10+1
000a86 96f2      	ADIW R30,50
000a87 93fa      	ST   -Y,R31
000a88 93ea      	ST   -Y,R30
000a89 940e 18f4 	CALL SUBOPT_0x18
000a8b 940e 18f9 	CALL SUBOPT_0x19
000a8d f021      	BREQ _0x2020013
                 _0x20A0012:
000a8e e0e1      	LDI  R30,LOW(1)
000a8f 8118      	LDD  R17,Y+0
000a90 962b      	ADIW R28,11
000a91 9508      	RET
                 _0x2020013:
000a92 940e 18d3 	CALL SUBOPT_0x14
                +
000a94 85a9     +LDD R26 , Y + 9
000a95 85ba     +LDD R27 , Y + 9 + 1
000a96 969e     +ADIW R26 , 46
000a97 940e 1e54+CALL __PUTDP1
                 	__PUTD1SNS 9,46
                 _0x2020012:
                 _0x202000B:
000a99 e0e0      	LDI  R30,LOW(0)
000a9a 8118      	LDD  R17,Y+0
000a9b c461      	RJMP _0x20A000D
                 ; .FEND
                 _sync_G101:
                 ; .FSTART _sync_G101
000a9c 93ba      	ST   -Y,R27
000a9d 93aa      	ST   -Y,R26
000a9e 931a      	ST   -Y,R17
000a9f 81e9      	LDD  R30,Y+1
000aa0 81fa      	LDD  R31,Y+1+1
000aa1 940e 1900 	CALL SUBOPT_0x1A
000aa3 2f1e      	MOV  R17,R30
000aa4 3010      	CPI  R17,0
000aa5 f009      	BREQ PC+2
000aa6 c05b      	RJMP _0x2020014
000aa7 81a9      	LDD  R26,Y+1
000aa8 81ba      	LDD  R27,Y+1+1
000aa9 91ac      	LD   R26,X
000aaa 30a3      	CPI  R26,LOW(0x3)
000aab f429      	BRNE _0x2020016
000aac 81e9      	LDD  R30,Y+1
000aad 81fa      	LDD  R31,Y+1+1
000aae 81e5      	LDD  R30,Z+5
000aaf 30e0      	CPI  R30,0
000ab0 f409      	BRNE _0x2020017
                 _0x2020016:
000ab1 c044      	RJMP _0x2020015
                 _0x2020017:
000ab2 81a9      	LDD  R26,Y+1
000ab3 81ba      	LDD  R27,Y+1+1
000ab4 940e 1908 	CALL SUBOPT_0x1B
000ab6 81e9      	LDD  R30,Y+1
000ab7 81fa      	LDD  R31,Y+1+1
000ab8 940e 1910 	CALL SUBOPT_0x1C
000aba 81e9      	LDD  R30,Y+1
000abb 81fa      	LDD  R31,Y+1+1
000abc 96f2      	ADIW R30,50
000abd 50e2      	SUBI R30,LOW(-510)
000abe 4ffe      	SBCI R31,HIGH(-510)
000abf e5a5      	LDI  R26,LOW(43605)
000ac0 eaba      	LDI  R27,HIGH(43605)
000ac1 83a0      	STD  Z+0,R26
000ac2 83b1      	STD  Z+1,R27
000ac3 81e9      	LDD  R30,Y+1
000ac4 81fa      	LDD  R31,Y+1+1
000ac5 96f2      	ADIW R30,50
                +
000ac6 e5a2     +LDI R26 , LOW ( 0x41615252 )
000ac7 e5b2     +LDI R27 , HIGH ( 0x41615252 )
000ac8 e681     +LDI R24 , BYTE3 ( 0x41615252 )
000ac9 e491     +LDI R25 , BYTE4 ( 0x41615252 )
                 	__GETD2N 0x41615252
000aca 940e 1919 	CALL SUBOPT_0x1D
000acc 51ec      	SUBI R30,LOW(-484)
000acd 4ffe      	SBCI R31,HIGH(-484)
                +
000ace e7a2     +LDI R26 , LOW ( 0x61417272 )
000acf e7b2     +LDI R27 , HIGH ( 0x61417272 )
000ad0 e481     +LDI R24 , BYTE3 ( 0x61417272 )
000ad1 e691     +LDI R25 , BYTE4 ( 0x61417272 )
                 	__GETD2N 0x61417272
000ad2 940e 1919 	CALL SUBOPT_0x1D
000ad4 51e8      	SUBI R30,LOW(-488)
000ad5 4ffe      	SBCI R31,HIGH(-488)
000ad6 010f      	MOVW R0,R30
000ad7 81a9      	LDD  R26,Y+1
000ad8 81ba      	LDD  R27,Y+1+1
000ad9 961e      	ADIW R26,14
000ada 940e 191f 	CALL SUBOPT_0x1E
000adc 96f2      	ADIW R30,50
000add 51e4      	SUBI R30,LOW(-492)
000ade 4ffe      	SBCI R31,HIGH(-492)
000adf 010f      	MOVW R0,R30
000ae0 81a9      	LDD  R26,Y+1
000ae1 81ba      	LDD  R27,Y+1+1
000ae2 961a      	ADIW R26,10
000ae3 940e 191f 	CALL SUBOPT_0x1E
000ae5 81a1      	LDD  R26,Z+1
000ae6 93aa      	ST   -Y,R26
000ae7 81ea      	LDD  R30,Y+2
000ae8 81fb      	LDD  R31,Y+2+1
000ae9 96f2      	ADIW R30,50
000aea 93fa      	ST   -Y,R31
000aeb 93ea      	ST   -Y,R30
000aec 81ec      	LDD  R30,Y+4
000aed 81fd      	LDD  R31,Y+4+1
000aee 940e 1927 	CALL SUBOPT_0x1F
000af0 dc63      	RCALL _disk_write
000af1 81a9      	LDD  R26,Y+1
000af2 81ba      	LDD  R27,Y+1+1
000af3 9615      	ADIW R26,5
000af4 e0e0      	LDI  R30,LOW(0)
000af5 93ec      	ST   X,R30
                 _0x2020015:
000af6 81e9      	LDD  R30,Y+1
000af7 81fa      	LDD  R31,Y+1+1
000af8 81a1      	LDD  R26,Z+1
000af9 93aa      	ST   -Y,R26
000afa e0e0      	LDI  R30,LOW(0)
000afb 93ea      	ST   -Y,R30
000afc e0a0      	LDI  R26,LOW(0)
000afd e0b0      	LDI  R27,HIGH(0)
000afe dccc      	RCALL _disk_ioctl
000aff 30e0      	CPI  R30,0
000b00 f009      	BREQ _0x2020018
000b01 e011      	LDI  R17,LOW(1)
                 _0x2020018:
                 _0x2020014:
000b02 2fe1      	MOV  R30,R17
                 _0x20A0011:
000b03 8118      	LDD  R17,Y+0
000b04 9623      	ADIW R28,3
000b05 9508      	RET
                 ; .FEND
                 _get_fat:
                 ; .FSTART _get_fat
000b06 940e 1e77 	CALL __PUTPARD2
000b08 9724      	SBIW R28,4
000b09 940e 1e9f 	CALL __SAVELOCR4
000b0b 940e 192f 	CALL SUBOPT_0x20
000b0d 940e 1934 	CALL SUBOPT_0x21
000b0f f050      	BRLO _0x202001A
000b10 85ac      	LDD  R26,Y+12
000b11 85bd      	LDD  R27,Y+12+1
000b12 965e      	ADIW R26,30
000b13 940e 1e49 	CALL __GETD1P
000b15 940e 192f 	CALL SUBOPT_0x20
000b17 940e 1e98 	CALL __CPD21
000b19 f018      	BRLO _0x2020019
                 _0x202001A:
000b1a 940e 193c 	CALL SUBOPT_0x22
000b1c c060      	RJMP _0x20A0010
                 _0x2020019:
000b1d 85ac      	LDD  R26,Y+12
000b1e 85bd      	LDD  R27,Y+12+1
000b1f 9692      	ADIW R26,34
000b20 940e 1941 	CALL SUBOPT_0x23
000b22 85ac      	LDD  R26,Y+12
000b23 85bd      	LDD  R27,Y+12+1
000b24 91ec      	LD   R30,X
000b25 e0f0      	LDI  R31,0
000b26 30e1      	CPI  R30,LOW(0x1)
000b27 e0a0      	LDI  R26,HIGH(0x1)
000b28 07fa      	CPC  R31,R26
000b29 f539      	BRNE _0x202001F
                +
000b2a 8528     +LDD R18 , Y + 8
000b2b 8539     +LDD R19 , Y + 8 + 1
                 	__GETWRS 18,19,8
000b2c 01f9      	MOVW R30,R18
000b2d 95f6      	LSR  R31
000b2e 95e7      	ROR  R30
                +
000b2f 0f2e     +ADD R18 , R30
000b30 1f3f     +ADC R19 , R31
                 	__ADDWRR 18,19,30,31
000b31 940e 1948 	CALL SUBOPT_0x24
000b33 f009      	BREQ _0x2020020
000b34 c046      	RJMP _0x202001E
                 _0x2020020:
000b35 940e 195d 	CALL SUBOPT_0x25
000b37 910c      	LD   R16,X
000b38 2711      	CLR  R17
                +
000b39 5f2f     +SUBI R18 , LOW ( - 1 )
000b3a 4f3f     +SBCI R19 , HIGH ( - 1 )
                 	__ADDWRN 18,19,1
000b3b 940e 1948 	CALL SUBOPT_0x24
000b3d f5e9      	BRNE _0x202001E
000b3e 940e 195d 	CALL SUBOPT_0x25
000b40 91ec      	LD   R30,X
000b41 2ffe      	MOV  R31,R30
000b42 e0e0      	LDI  R30,0
                +
000b43 2b0e     +OR R16 , R30
000b44 2b1f     +OR R17 , R31
                 	__ORWRR 16,17,30,31
000b45 85e8      	LDD  R30,Y+8
000b46 70e1      	ANDI R30,LOW(0x1)
000b47 f021      	BREQ _0x2020022
000b48 01f8      	MOVW R30,R16
000b49 940e 1d9d 	CALL __LSRW4
000b4b c002      	RJMP _0x202027A
                 _0x2020022:
000b4c 01f8      	MOVW R30,R16
000b4d 70ff      	ANDI R31,HIGH(0xFFF)
                 _0x202027A:
000b4e 2766      	CLR  R22
000b4f 2777      	CLR  R23
000b50 c02c      	RJMP _0x20A0010
                 _0x202001F:
000b51 30e2      	CPI  R30,LOW(0x2)
000b52 e0a0      	LDI  R26,HIGH(0x2)
000b53 07fa      	CPC  R31,R26
000b54 f479      	BRNE _0x2020025
000b55 940e 1965 	CALL SUBOPT_0x26
000b57 940e 196e 	CALL SUBOPT_0x27
000b59 940e 1975 	CALL SUBOPT_0x28
000b5b f4f9      	BRNE _0x202001E
000b5c 85a8      	LDD  R26,Y+8
000b5d 85b9      	LDD  R27,Y+8+1
000b5e e0e2      	LDI  R30,LOW(2)
000b5f 940e 197f 	CALL SUBOPT_0x29
000b61 940e 1988 	CALL SUBOPT_0x2A
000b63 c019      	RJMP _0x20A0010
                 _0x2020025:
000b64 30e3      	CPI  R30,LOW(0x3)
000b65 e0a0      	LDI  R26,HIGH(0x3)
000b66 07fa      	CPC  R31,R26
000b67 f499      	BRNE _0x202001E
000b68 940e 1965 	CALL SUBOPT_0x26
000b6a 940e 198d 	CALL SUBOPT_0x2B
000b6c 940e 1975 	CALL SUBOPT_0x28
000b6e f461      	BRNE _0x202001E
000b6f 85a8      	LDD  R26,Y+8
000b70 85b9      	LDD  R27,Y+8+1
000b71 e0e4      	LDI  R30,LOW(4)
000b72 940e 197f 	CALL SUBOPT_0x29
000b74 940e 1e49 	CALL __GETD1P
                +
000b76 7fef     +ANDI R30 , LOW ( 0xFFFFFFF )
000b77 7fff     +ANDI R31 , HIGH ( 0xFFFFFFF )
000b78 7f6f     +ANDI R22 , BYTE3 ( 0xFFFFFFF )
000b79 707f     +ANDI R23 , BYTE4 ( 0xFFFFFFF )
                 	__ANDD1N 0xFFFFFFF
000b7a c002      	RJMP _0x20A0010
                 _0x202001E:
000b7b 940e 1994 	CALL SUBOPT_0x2C
                 _0x20A0010:
000b7d 940e 1ea6 	CALL __LOADLOCR4
000b7f 962e      	ADIW R28,14
000b80 9508      	RET
                 ; .FEND
                 _put_fat:
                 ; .FSTART _put_fat
000b81 940e 1e77 	CALL __PUTPARD2
000b83 9724      	SBIW R28,4
000b84 940e 1e9d 	CALL __SAVELOCR6
000b86 940e 1999 	CALL SUBOPT_0x2D
000b88 940e 1934 	CALL SUBOPT_0x21
000b8a f050      	BRLO _0x202002A
000b8b 89aa      	LDD  R26,Y+18
000b8c 89bb      	LDD  R27,Y+18+1
000b8d 965e      	ADIW R26,30
000b8e 940e 1e49 	CALL __GETD1P
000b90 940e 1999 	CALL SUBOPT_0x2D
000b92 940e 1e98 	CALL __CPD21
000b94 f010      	BRLO _0x2020029
                 _0x202002A:
000b95 e052      	LDI  R21,LOW(2)
000b96 c085      	RJMP _0x202002C
                 _0x2020029:
000b97 89aa      	LDD  R26,Y+18
000b98 89bb      	LDD  R27,Y+18+1
000b99 9692      	ADIW R26,34
000b9a 940e 1e49 	CALL __GETD1P
                +
000b9c 83ee     +STD Y + 6 , R30
000b9d 83ff     +STD Y + 6 + 1 , R31
000b9e 8768     +STD Y + 6 + 2 , R22
000b9f 8779     +STD Y + 6 + 3 , R23
                 	__PUTD1S 6
000ba0 89aa      	LDD  R26,Y+18
000ba1 89bb      	LDD  R27,Y+18+1
000ba2 91ec      	LD   R30,X
000ba3 e0f0      	LDI  R31,0
000ba4 30e1      	CPI  R30,LOW(0x1)
000ba5 e0a0      	LDI  R26,HIGH(0x1)
000ba6 07fa      	CPC  R31,R26
000ba7 f009      	BREQ PC+2
000ba8 c043      	RJMP _0x2020030
                +
000ba9 850e     +LDD R16 , Y + 14
000baa 851f     +LDD R17 , Y + 14 + 1
                 	__GETWRS 16,17,14
000bab 01f8      	MOVW R30,R16
000bac 95f6      	LSR  R31
000bad 95e7      	ROR  R30
                +
000bae 0f0e     +ADD R16 , R30
000baf 1f1f     +ADC R17 , R31
                 	__ADDWRR 16,17,30,31
000bb0 940e 199e 	CALL SUBOPT_0x2E
000bb2 f009      	BREQ _0x2020031
000bb3 c063      	RJMP _0x202002F
                 _0x2020031:
000bb4 940e 19b1 	CALL SUBOPT_0x2F
000bb6 f051      	BREQ _0x2020032
000bb7 01d9      	MOVW R26,R18
000bb8 91ec      	LD   R30,X
000bb9 70ef      	ANDI R30,LOW(0xF)
000bba 2fae      	MOV  R26,R30
000bbb 85ea      	LDD  R30,Y+10
000bbc e0f0      	LDI  R31,0
000bbd 940e 1d94 	CALL __LSLW4
000bbf 2bea      	OR   R30,R26
000bc0 c001      	RJMP _0x2020033
                 _0x2020032:
000bc1 85ea      	LDD  R30,Y+10
                 _0x2020033:
000bc2 01d9      	MOVW R26,R18
000bc3 93ec      	ST   X,R30
                +
000bc4 5f0f     +SUBI R16 , LOW ( - 1 )
000bc5 4f1f     +SBCI R17 , HIGH ( - 1 )
                 	__ADDWRN 16,17,1
000bc6 89aa      	LDD  R26,Y+18
000bc7 89bb      	LDD  R27,Y+18+1
000bc8 9614      	ADIW R26,4
000bc9 e0e1      	LDI  R30,LOW(1)
000bca 93ec      	ST   X,R30
000bcb 940e 199e 	CALL SUBOPT_0x2E
000bcd f009      	BREQ _0x2020035
000bce c048      	RJMP _0x202002F
                 _0x2020035:
000bcf 940e 19b1 	CALL SUBOPT_0x2F
000bd1 f049      	BREQ _0x2020036
000bd2 940e 19bc 	CALL SUBOPT_0x30
000bd4 e0e4      	LDI  R30,LOW(4)
000bd5 940e 1d88 	CALL __LSRD12
000bd7 27ff      	CLR  R31
000bd8 2766      	CLR  R22
000bd9 2777      	CLR  R23
000bda c00e      	RJMP _0x2020037
                 _0x2020036:
000bdb 01d9      	MOVW R26,R18
000bdc 91ec      	LD   R30,X
000bdd 7fe0      	ANDI R30,LOW(0xF0)
000bde 2e1e      	MOV  R1,R30
000bdf 940e 19bc 	CALL SUBOPT_0x30
000be1 e0e8      	LDI  R30,LOW(8)
000be2 940e 1d88 	CALL __LSRD12
000be4 27ff      	CLR  R31
000be5 2766      	CLR  R22
000be6 2777      	CLR  R23
000be7 70ef      	ANDI R30,LOW(0xF)
000be8 29e1      	OR   R30,R1
                 _0x2020037:
000be9 01d9      	MOVW R26,R18
000bea 93ec      	ST   X,R30
000beb c02b      	RJMP _0x202002F
                 _0x2020030:
000bec 30e2      	CPI  R30,LOW(0x2)
000bed e0a0      	LDI  R26,HIGH(0x2)
000bee 07fa      	CPC  R31,R26
000bef f489      	BRNE _0x2020039
000bf0 940e 19c1 	CALL SUBOPT_0x31
000bf2 940e 196e 	CALL SUBOPT_0x27
000bf4 940e 19ca 	CALL SUBOPT_0x32
000bf6 f501      	BRNE _0x202002F
000bf7 85ae      	LDD  R26,Y+14
000bf8 85bf      	LDD  R27,Y+14+1
000bf9 e0e2      	LDI  R30,LOW(2)
000bfa 940e 19d2 	CALL SUBOPT_0x33
000bfc 85aa      	LDD  R26,Y+10
000bfd 85bb      	LDD  R27,Y+10+1
000bfe 83a0      	STD  Z+0,R26
000bff 83b1      	STD  Z+1,R27
000c00 c016      	RJMP _0x202002F
                 _0x2020039:
000c01 30e3      	CPI  R30,LOW(0x3)
000c02 e0a0      	LDI  R26,HIGH(0x3)
000c03 07fa      	CPC  R31,R26
000c04 f489      	BRNE _0x202003D
000c05 940e 19c1 	CALL SUBOPT_0x31
000c07 940e 198d 	CALL SUBOPT_0x2B
000c09 940e 19ca 	CALL SUBOPT_0x32
000c0b f459      	BRNE _0x202002F
000c0c 85ae      	LDD  R26,Y+14
000c0d 85bf      	LDD  R27,Y+14+1
000c0e e0e4      	LDI  R30,LOW(4)
000c0f 940e 19d2 	CALL SUBOPT_0x33
000c11 940e 19bc 	CALL SUBOPT_0x30
000c13 940e 1e6d 	CALL __PUTDZ20
000c15 c001      	RJMP _0x202002F
                 _0x202003D:
000c16 e052      	LDI  R21,LOW(2)
                 _0x202002F:
000c17 89aa      	LDD  R26,Y+18
000c18 89bb      	LDD  R27,Y+18+1
000c19 9614      	ADIW R26,4
000c1a e0e1      	LDI  R30,LOW(1)
000c1b 93ec      	ST   X,R30
                 _0x202002C:
000c1c 2fe5      	MOV  R30,R21
000c1d 940e 1ea4 	CALL __LOADLOCR6
000c1f 9664      	ADIW R28,20
000c20 9508      	RET
                 ; .FEND
                 _remove_chain_G101:
                 ; .FSTART _remove_chain_G101
000c21 940e 1e77 	CALL __PUTPARD2
000c23 9724      	SBIW R28,4
000c24 931a      	ST   -Y,R17
000c25 940e 19db 	CALL SUBOPT_0x34
000c27 940e 1934 	CALL SUBOPT_0x21
000c29 f018      	BRLO _0x202003F
000c2a 940e 19e0 	CALL SUBOPT_0x35
000c2c f010      	BRLO _0x202003E
                 _0x202003F:
000c2d e012      	LDI  R17,LOW(2)
000c2e c048      	RJMP _0x2020041
                 _0x202003E:
000c2f e010      	LDI  R17,LOW(0)
                 _0x2020042:
000c30 940e 19e0 	CALL SUBOPT_0x35
000c32 f008      	BRLO PC+2
000c33 c043      	RJMP _0x2020044
000c34 85e9      	LDD  R30,Y+9
000c35 85fa      	LDD  R31,Y+9+1
000c36 93fa      	ST   -Y,R31
000c37 93ea      	ST   -Y,R30
                +
000c38 81af     +LDD R26 , Y + 7
000c39 85b8     +LDD R27 , Y + 7 + 1
000c3a 8589     +LDD R24 , Y + 7 + 2
000c3b 859a     +LDD R25 , Y + 7 + 3
                 	__GETD2S 7
000c3c dec9      	RCALL _get_fat
000c3d 940e 18ce 	CALL SUBOPT_0x13
                +
000c3f 81e9     +LDD R30 , Y + 1
000c40 81fa     +LDD R31 , Y + 1 + 1
000c41 816b     +LDD R22 , Y + 1 + 2
000c42 817c     +LDD R23 , Y + 1 + 3
                 	__GETD1S 1
000c43 940e 1e89 	CALL __CPD10
000c45 f189      	BREQ _0x2020044
000c46 940e 18d8 	CALL SUBOPT_0x15
000c48 940e 19e9 	CALL SUBOPT_0x36
000c4a f411      	BRNE _0x2020046
000c4b e012      	LDI  R17,LOW(2)
000c4c c02a      	RJMP _0x2020044
                 _0x2020046:
000c4d 940e 18d8 	CALL SUBOPT_0x15
000c4f 940e 19f1 	CALL SUBOPT_0x37
000c51 f411      	BRNE _0x2020047
000c52 e011      	LDI  R17,LOW(1)
000c53 c023      	RJMP _0x2020044
                 _0x2020047:
000c54 85e9      	LDD  R30,Y+9
000c55 85fa      	LDD  R31,Y+9+1
000c56 93fa      	ST   -Y,R31
000c57 93ea      	ST   -Y,R30
                +
000c58 81ef     +LDD R30 , Y + 7
000c59 85f8     +LDD R31 , Y + 7 + 1
000c5a 8569     +LDD R22 , Y + 7 + 2
000c5b 857a     +LDD R23 , Y + 7 + 3
                 	__GETD1S 7
000c5c 940e 1e72 	CALL __PUTPARD1
000c5e 940e 19f9 	CALL SUBOPT_0x38
000c60 df20      	RCALL _put_fat
000c61 2f1e      	MOV  R17,R30
000c62 3010      	CPI  R17,0
000c63 f499      	BRNE _0x2020044
000c64 85e9      	LDD  R30,Y+9
000c65 85fa      	LDD  R31,Y+9+1
000c66 940e 19fe 	CALL SUBOPT_0x39
000c68 f029      	BREQ _0x2020049
000c69 940e 1a03 	CALL SUBOPT_0x3A
000c6b 9615      	ADIW R26,5
000c6c e0e1      	LDI  R30,LOW(1)
000c6d 93ec      	ST   X,R30
                 _0x2020049:
                +
000c6e 81e9     +LDD R30 , Y + 1
000c6f 81fa     +LDD R31 , Y + 1 + 1
000c70 816b     +LDD R22 , Y + 1 + 2
000c71 817c     +LDD R23 , Y + 1 + 3
                 	__GETD1S 1
                +
000c72 83ed     +STD Y + 5 , R30
000c73 83fe     +STD Y + 5 + 1 , R31
000c74 836f     +STD Y + 5 + 2 , R22
000c75 8778     +STD Y + 5 + 3 , R23
                 	__PUTD1S 5
000c76 cfb9      	RJMP _0x2020042
                 _0x2020044:
                 _0x2020041:
000c77 2fe1      	MOV  R30,R17
000c78 8118      	LDD  R17,Y+0
000c79 c283      	RJMP _0x20A000D
                 ; .FEND
                 _create_chain_G101:
                 ; .FSTART _create_chain_G101
000c7a 940e 1e77 	CALL __PUTPARD2
000c7c 9760      	SBIW R28,16
000c7d 89ac      	LDD  R26,Y+20
000c7e 89bd      	LDD  R27,Y+20+1
000c7f 965e      	ADIW R26,30
000c80 940e 1e49 	CALL __GETD1P
000c82 940e 1a11 	CALL SUBOPT_0x3B
000c84 940e 1a14 	CALL SUBOPT_0x3C
000c86 940e 1e89 	CALL __CPD10
000c88 f4b1      	BRNE _0x202004A
000c89 89ac      	LDD  R26,Y+20
000c8a 89bd      	LDD  R27,Y+20+1
000c8b 961a      	ADIW R26,10
000c8c 940e 1941 	CALL SUBOPT_0x23
000c8e 940e 1a19 	CALL SUBOPT_0x3D
000c90 940e 1e8d 	CALL __CPD02
000c92 f039      	BREQ _0x202004C
000c93 940e 1a1e 	CALL SUBOPT_0x3E
000c95 940e 1a19 	CALL SUBOPT_0x3D
000c97 940e 1e98 	CALL __CPD21
000c99 f020      	BRLO _0x202004B
                 _0x202004C:
000c9a 940e 193c 	CALL SUBOPT_0x22
000c9c 940e 1a21 	CALL SUBOPT_0x3F
                 _0x202004B:
000c9e c01c      	RJMP _0x202004E
                 _0x202004A:
000c9f 940e 1a26 	CALL SUBOPT_0x40
000ca1 940e 1a2b 	CALL SUBOPT_0x41
000ca3 940e 1a30 	CALL SUBOPT_0x42
000ca5 940e 1a37 	CALL SUBOPT_0x43
000ca7 940e 1934 	CALL SUBOPT_0x21
000ca9 f418      	BRSH _0x202004F
000caa 940e 193c 	CALL SUBOPT_0x22
000cac c08c      	RJMP _0x20A000F
                 _0x202004F:
000cad 940e 1a1e 	CALL SUBOPT_0x3E
000caf 940e 1a37 	CALL SUBOPT_0x43
000cb1 940e 1e98 	CALL __CPD21
000cb3 f418      	BRSH _0x2020050
000cb4 940e 1a3c 	CALL SUBOPT_0x44
000cb6 c082      	RJMP _0x20A000F
                 _0x2020050:
000cb7 940e 1a14 	CALL SUBOPT_0x3C
000cb9 940e 1a21 	CALL SUBOPT_0x3F
                 _0x202004E:
000cbb 940e 1a41 	CALL SUBOPT_0x45
000cbd 940e 1a46 	CALL SUBOPT_0x46
                 _0x2020052:
000cbf 940e 18f4 	CALL SUBOPT_0x18
                +
000cc1 5fef     +SUBI R30 , LOW ( - 1 )
000cc2 4fff     +SBCI R31 , HIGH ( - 1 )
000cc3 4f6f     +SBCI R22 , BYTE3 ( - 1 )
000cc4 4f7f     +SBCI R23 , BYTE4 ( - 1 )
                 	__SUBD1N -1
000cc5 940e 1a46 	CALL SUBOPT_0x46
000cc7 940e 1a1e 	CALL SUBOPT_0x3E
000cc9 940e 192f 	CALL SUBOPT_0x20
000ccb 940e 1e98 	CALL __CPD21
000ccd f060      	BRLO _0x2020054
                +
000cce e0e2     +LDI R30 , LOW ( 0x2 )
000ccf e0f0     +LDI R31 , HIGH ( 0x2 )
000cd0 e060     +LDI R22 , BYTE3 ( 0x2 )
000cd1 e070     +LDI R23 , BYTE4 ( 0x2 )
                 	__GETD1N 0x2
000cd2 940e 1a46 	CALL SUBOPT_0x46
000cd4 940e 1a4b 	CALL SUBOPT_0x47
000cd6 f418      	BRSH _0x2020055
000cd7 940e 1a50 	CALL SUBOPT_0x48
000cd9 c05f      	RJMP _0x20A000F
                 _0x2020055:
                 _0x2020054:
000cda 940e 1a26 	CALL SUBOPT_0x40
000cdc 940e 19bc 	CALL SUBOPT_0x30
000cde 940e 1a30 	CALL SUBOPT_0x42
000ce0 940e 1a55 	CALL SUBOPT_0x49
000ce2 f0a1      	BREQ _0x2020053
000ce3 940e 1a37 	CALL SUBOPT_0x43
000ce5 940e 19f1 	CALL SUBOPT_0x37
000ce7 f029      	BREQ _0x2020058
000ce8 940e 1a37 	CALL SUBOPT_0x43
000cea 940e 19e9 	CALL SUBOPT_0x36
000cec f419      	BRNE _0x2020057
                 _0x2020058:
000ced 940e 1a3c 	CALL SUBOPT_0x44
000cef c049      	RJMP _0x20A000F
                 _0x2020057:
000cf0 940e 1a4b 	CALL SUBOPT_0x47
000cf2 f419      	BRNE _0x202005A
000cf3 940e 1a50 	CALL SUBOPT_0x48
000cf5 c043      	RJMP _0x20A000F
                 _0x202005A:
000cf6 cfc8      	RJMP _0x2020052
                 _0x2020053:
000cf7 940e 1a26 	CALL SUBOPT_0x40
                +
000cf9 85ea     +LDD R30 , Y + 10
000cfa 85fb     +LDD R31 , Y + 10 + 1
000cfb 856c     +LDD R22 , Y + 10 + 2
000cfc 857d     +LDD R23 , Y + 10 + 3
                 	__GETD1S 10
000cfd 940e 1e72 	CALL __PUTPARD1
                +
000cff efaf     +LDI R26 , LOW ( 0xFFFFFFF )
000d00 efbf     +LDI R27 , HIGH ( 0xFFFFFFF )
000d01 ef8f     +LDI R24 , BYTE3 ( 0xFFFFFFF )
000d02 e09f     +LDI R25 , BYTE4 ( 0xFFFFFFF )
                 	__GETD2N 0xFFFFFFF
000d03 de7d      	RCALL _put_fat
000d04 30e0      	CPI  R30,0
000d05 f019      	BREQ _0x202005B
000d06 940e 1994 	CALL SUBOPT_0x2C
000d08 c030      	RJMP _0x20A000F
                 _0x202005B:
000d09 940e 1a14 	CALL SUBOPT_0x3C
000d0b 940e 1e89 	CALL __CPD10
000d0d f071      	BREQ _0x202005C
000d0e 940e 1a26 	CALL SUBOPT_0x40
000d10 940e 1a59 	CALL SUBOPT_0x4A
000d12 940e 1e72 	CALL __PUTPARD1
000d14 940e 1999 	CALL SUBOPT_0x2D
000d16 de6a      	RCALL _put_fat
000d17 30e0      	CPI  R30,0
000d18 f019      	BREQ _0x202005D
000d19 940e 1994 	CALL SUBOPT_0x2C
000d1b c01d      	RJMP _0x20A000F
                 _0x202005D:
                 _0x202005C:
000d1c 940e 18f4 	CALL SUBOPT_0x18
                +
000d1e 89ac     +LDD R26 , Y + 20
000d1f 89bd     +LDD R27 , Y + 20 + 1
000d20 961a     +ADIW R26 , 10
000d21 940e 1e54+CALL __PUTDP1
                 	__PUTD1SNS 20,10
000d23 89ec      	LDD  R30,Y+20
000d24 89fd      	LDD  R31,Y+20+1
000d25 940e 19fe 	CALL SUBOPT_0x39
000d27 f079      	BREQ _0x202005E
000d28 89ac      	LDD  R26,Y+20
000d29 89bd      	LDD  R27,Y+20+1
000d2a 961e      	ADIW R26,14
000d2b 940e 1e4f 	CALL __GETD1P_INC
000d2d 9731      	SBIW R30,1
000d2e 4060      	SBCI R22,0
000d2f 4070      	SBCI R23,0
000d30 940e 1e59 	CALL __PUTDP1_DEC
000d32 89ac      	LDD  R26,Y+20
000d33 89bd      	LDD  R27,Y+20+1
000d34 9615      	ADIW R26,5
000d35 e0e1      	LDI  R30,LOW(1)
000d36 93ec      	ST   X,R30
                 _0x202005E:
000d37 940e 18f4 	CALL SUBOPT_0x18
                 _0x20A000F:
000d39 9666      	ADIW R28,22
000d3a 9508      	RET
                 ; .FEND
                 _clust2sect:
                 ; .FSTART _clust2sect
000d3b 940e 1e77 	CALL __PUTPARD2
000d3d 940e 1a1e 	CALL SUBOPT_0x3E
                +
000d3f 50e2     +SUBI R30 , LOW ( 2 )
000d40 40f0     +SBCI R31 , HIGH ( 2 )
000d41 4060     +SBCI R22 , BYTE3 ( 2 )
000d42 4070     +SBCI R23 , BYTE4 ( 2 )
                 	__SUBD1N 2
000d43 940e 1a11 	CALL SUBOPT_0x3B
000d45 81ec      	LDD  R30,Y+4
000d46 81fd      	LDD  R31,Y+4+1
                +
000d47 8da6     +LDD R26 , Z + 30
000d48 8db7     +LDD R27 , Z + 30 + 1
000d49 a180     +LDD R24 , Z + 30 + 2
000d4a a191     +LDD R25 , Z + 30 + 3
                 	__GETD2Z 30
                +
000d4b e0e2     +LDI R30 , LOW ( 0x2 )
000d4c e0f0     +LDI R31 , HIGH ( 0x2 )
000d4d e060     +LDI R22 , BYTE3 ( 0x2 )
000d4e e070     +LDI R23 , BYTE4 ( 0x2 )
                 	__GETD1N 0x2
000d4f 940e 1a5e 	CALL SUBOPT_0x4B
000d51 940e 1e63 	CALL __GETD2S0
000d53 940e 1e98 	CALL __CPD21
000d55 f018      	BRLO _0x202005F
000d56 940e 1a50 	CALL SUBOPT_0x48
000d58 c37c      	RJMP _0x20A0009
                 _0x202005F:
000d59 81ec      	LDD  R30,Y+4
000d5a 81fd      	LDD  R31,Y+4+1
000d5b 81e2      	LDD  R30,Z+2
000d5c e0f0      	LDI  R31,0
000d5d 940e 1e63 	CALL __GETD2S0
000d5f 940e 1db5 	CALL __CWD1
000d61 940e 1dc6 	CALL __MULD12U
000d63 937f      	PUSH R23
000d64 936f      	PUSH R22
000d65 93ff      	PUSH R31
000d66 93ef      	PUSH R30
000d67 81ac      	LDD  R26,Y+4
000d68 81bd      	LDD  R27,Y+4+1
000d69 969a      	ADIW R26,42
000d6a 940e 1e49 	CALL __GETD1P
000d6c 91af      	POP  R26
000d6d 91bf      	POP  R27
000d6e 918f      	POP  R24
000d6f 919f      	POP  R25
000d70 940e 1d57 	CALL __ADDD12
000d72 c362      	RJMP _0x20A0009
                 ; .FEND
                 _dir_seek_G101:
                 ; .FSTART _dir_seek_G101
000d73 93ba      	ST   -Y,R27
000d74 93aa      	ST   -Y,R26
000d75 9724      	SBIW R28,4
000d76 931a      	ST   -Y,R17
000d77 930a      	ST   -Y,R16
000d78 81ee      	LDD  R30,Y+6
000d79 81ff      	LDD  R31,Y+6+1
                +
000d7a 85a8     +LDD R26 , Y + 8
000d7b 85b9     +LDD R27 , Y + 8 + 1
000d7c 9614     +ADIW R26 , 4
000d7d 93ed     +ST X + , R30
000d7e 93fc     +ST X , R31
                 	__PUTW1SNS 8,4
000d7f 85a8      	LDD  R26,Y+8
000d80 85b9      	LDD  R27,Y+8+1
000d81 9616      	ADIW R26,6
000d82 940e 1a63 	CALL SUBOPT_0x4C
000d84 940e 1a6a 	CALL SUBOPT_0x4D
000d86 940e 19e9 	CALL SUBOPT_0x36
000d88 f029      	BREQ _0x2020061
000d89 940e 1a6f 	CALL SUBOPT_0x4E
000d8b 940e 1a74 	CALL SUBOPT_0x4F
000d8d f010      	BRLO _0x2020060
                 _0x2020061:
000d8e e0e2      	LDI  R30,LOW(2)
000d8f c07c      	RJMP _0x20A000E
                 _0x2020060:
000d90 940e 18c9 	CALL SUBOPT_0x12
000d92 940e 1e89 	CALL __CPD10
000d94 f429      	BRNE _0x2020064
000d95 940e 1a6f 	CALL SUBOPT_0x4E
000d97 81a0      	LD   R26,Z
000d98 30a3      	CPI  R26,LOW(0x3)
000d99 f009      	BREQ _0x2020065
                 _0x2020064:
000d9a c006      	RJMP _0x2020063
                 _0x2020065:
000d9b 940e 1a6f 	CALL SUBOPT_0x4E
000d9d 96b6      	ADIW R30,38
000d9e 01df      	MOVW R26,R30
000d9f 940e 1a63 	CALL SUBOPT_0x4C
                 _0x2020063:
000da1 940e 18c9 	CALL SUBOPT_0x12
000da3 940e 1e89 	CALL __CPD10
000da5 f4a1      	BRNE _0x2020066
000da6 940e 1a7c 	CALL SUBOPT_0x50
000da8 9638      	ADIW R30,8
000da9 01df      	MOVW R26,R30
000daa 940e 1e45 	CALL __GETW1P
000dac 81ae      	LDD  R26,Y+6
000dad 81bf      	LDD  R27,Y+6+1
000dae 17ae      	CP   R26,R30
000daf 07bf      	CPC  R27,R31
000db0 f010      	BRLO _0x2020067
000db1 e0e2      	LDI  R30,LOW(2)
000db2 c059      	RJMP _0x20A000E
                 _0x2020067:
000db3 940e 1a6f 	CALL SUBOPT_0x4E
000db5 96b6      	ADIW R30,38
000db6 01df      	MOVW R26,R30
000db7 940e 1e49 	CALL __GETD1P
000db9 c037      	RJMP _0x202027B
                 _0x2020066:
000dba 940e 1a6f 	CALL SUBOPT_0x4E
000dbc 81e2      	LDD  R30,Z+2
000dbd e1a0      	LDI  R26,LOW(16)
000dbe 9fea      	MUL  R30,R26
000dbf 0180      	MOVW R16,R0
                 _0x2020069:
000dc0 81ae      	LDD  R26,Y+6
000dc1 81bf      	LDD  R27,Y+6+1
000dc2 17a0      	CP   R26,R16
000dc3 07b1      	CPC  R27,R17
000dc4 f128      	BRLO _0x202006B
000dc5 940e 1a6f 	CALL SUBOPT_0x4E
000dc7 93fa      	ST   -Y,R31
000dc8 93ea      	ST   -Y,R30
000dc9 940e 1a19 	CALL SUBOPT_0x3D
000dcb dd3a      	RCALL _get_fat
                +
000dcc 83ea     +STD Y + 2 , R30
000dcd 83fb     +STD Y + 2 + 1 , R31
000dce 836c     +STD Y + 2 + 2 , R22
000dcf 837d     +STD Y + 2 + 3 , R23
                 	__PUTD1S 2
000dd0 940e 1a6a 	CALL SUBOPT_0x4D
000dd2 940e 19f1 	CALL SUBOPT_0x37
000dd4 f411      	BRNE _0x202006C
000dd5 e0e1      	LDI  R30,LOW(1)
000dd6 c035      	RJMP _0x20A000E
                 _0x202006C:
000dd7 940e 1a6a 	CALL SUBOPT_0x4D
000dd9 940e 1934 	CALL SUBOPT_0x21
000ddb f028      	BRLO _0x202006E
000ddc 940e 1a6f 	CALL SUBOPT_0x4E
000dde 940e 1a74 	CALL SUBOPT_0x4F
000de0 f010      	BRLO _0x202006D
                 _0x202006E:
000de1 e0e2      	LDI  R30,LOW(2)
000de2 c029      	RJMP _0x20A000E
                 _0x202006D:
000de3 81ee      	LDD  R30,Y+6
000de4 81ff      	LDD  R31,Y+6+1
000de5 1be0      	SUB  R30,R16
000de6 0bf1      	SBC  R31,R17
000de7 83ee      	STD  Y+6,R30
000de8 83ff      	STD  Y+6+1,R31
000de9 cfd6      	RJMP _0x2020069
                 _0x202006B:
000dea 940e 1a7c 	CALL SUBOPT_0x50
000dec 93fa      	ST   -Y,R31
000ded 93ea      	ST   -Y,R30
000dee 940e 1a19 	CALL SUBOPT_0x3D
000df0 df4a      	RCALL _clust2sect
                 _0x202027B:
000df1 01df      	MOVW R26,R30
000df2 01cb      	MOVW R24,R22
000df3 81ee      	LDD  R30,Y+6
000df4 81ff      	LDD  R31,Y+6+1
000df5 940e 1d9d 	CALL __LSRW4
000df7 940e 1a83 	CALL SUBOPT_0x51
                +
000df9 85a8     +LDD R26 , Y + 8
000dfa 85b9     +LDD R27 , Y + 8 + 1
000dfb 961e     +ADIW R26 , 14
000dfc 940e 1e54+CALL __PUTDP1
                 	__PUTD1SNS 8,14
000dfe 940e 1a6f 	CALL SUBOPT_0x4E
000e00 96f2      	ADIW R30,50
000e01 01df      	MOVW R26,R30
000e02 81ee      	LDD  R30,Y+6
000e03 81ff      	LDD  R31,Y+6+1
000e04 940e 1a88 	CALL SUBOPT_0x52
                +
000e06 85a8     +LDD R26 , Y + 8
000e07 85b9     +LDD R27 , Y + 8 + 1
000e08 9652     +ADIW R26 , 18
000e09 93ed     +ST X + , R30
000e0a 93fc     +ST X , R31
                 	__PUTW1SNS 8,18
000e0b e0e0      	LDI  R30,LOW(0)
                 _0x20A000E:
000e0c 8119      	LDD  R17,Y+1
000e0d 8108      	LDD  R16,Y+0
000e0e 962a      	ADIW R28,10
000e0f 9508      	RET
                 ; .FEND
                 _dir_next_G101:
                 ; .FSTART _dir_next_G101
000e10 93aa      	ST   -Y,R26
000e11 9724      	SBIW R28,4
000e12 940e 1e9f 	CALL __SAVELOCR4
000e14 85a9      	LDD  R26,Y+9
000e15 85ba      	LDD  R27,Y+9+1
000e16 9614      	ADIW R26,4
000e17 940e 1e45 	CALL __GETW1P
000e19 9631      	ADIW R30,1
000e1a 018f      	MOVW R16,R30
000e1b 2e00      	MOV  R0,R16
000e1c 2a01      	OR   R0,R17
000e1d f031      	BREQ _0x2020071
000e1e 85a9      	LDD  R26,Y+9
000e1f 85ba      	LDD  R27,Y+9+1
000e20 961e      	ADIW R26,14
000e21 940e 1a90 	CALL SUBOPT_0x53
000e23 f411      	BRNE _0x2020070
                 _0x2020071:
000e24 e0e4      	LDI  R30,LOW(4)
000e25 c0d5      	RJMP _0x20A000C
                 _0x2020070:
000e26 01f8      	MOVW R30,R16
000e27 70ef      	ANDI R30,LOW(0xF)
000e28 f009      	BREQ PC+2
000e29 c0be      	RJMP _0x2020073
000e2a 940e 1a03 	CALL SUBOPT_0x3A
000e2c 961a      	ADIW R26,10
000e2d 940e 1a90 	CALL SUBOPT_0x53
000e2f f461      	BRNE _0x2020074
000e30 940e 1a95 	CALL SUBOPT_0x54
000e32 9638      	ADIW R30,8
000e33 01df      	MOVW R26,R30
000e34 940e 1e45 	CALL __GETW1P
000e36 170e      	CP   R16,R30
000e37 071f      	CPC  R17,R31
000e38 f010      	BRLO _0x2020075
000e39 e0e4      	LDI  R30,LOW(4)
000e3a c0c0      	RJMP _0x20A000C
                 _0x2020075:
000e3b c0ac      	RJMP _0x2020076
                 _0x2020074:
000e3c 01f8      	MOVW R30,R16
000e3d 940e 1d9d 	CALL __LSRW4
000e3f 010f      	MOVW R0,R30
000e40 940e 1a95 	CALL SUBOPT_0x54
000e42 81e2      	LDD  R30,Z+2
000e43 e0f0      	LDI  R31,0
000e44 9731      	SBIW R30,1
000e45 21e0      	AND  R30,R0
000e46 21f1      	AND  R31,R1
000e47 9730      	SBIW R30,0
000e48 f009      	BREQ PC+2
000e49 c09e      	RJMP _0x2020077
000e4a 940e 1a95 	CALL SUBOPT_0x54
000e4c 940e 1a9a 	CALL SUBOPT_0x55
000e4e dcb7      	RCALL _get_fat
000e4f 940e 1a21 	CALL SUBOPT_0x3F
000e51 940e 1a19 	CALL SUBOPT_0x3D
000e53 940e 1934 	CALL SUBOPT_0x21
000e55 f410      	BRSH _0x2020078
000e56 e0e2      	LDI  R30,LOW(2)
000e57 c0a3      	RJMP _0x20A000C
                 _0x2020078:
000e58 940e 1a19 	CALL SUBOPT_0x3D
000e5a 940e 19f1 	CALL SUBOPT_0x37
000e5c f411      	BRNE _0x2020079
000e5d e0e1      	LDI  R30,LOW(1)
000e5e c09c      	RJMP _0x20A000C
                 _0x2020079:
000e5f 940e 1a95 	CALL SUBOPT_0x54
000e61 967e      	ADIW R30,30
000e62 01df      	MOVW R26,R30
000e63 940e 1e49 	CALL __GETD1P
000e65 940e 1a19 	CALL SUBOPT_0x3D
000e67 940e 1e98 	CALL __CPD21
000e69 f408      	BRSH PC+2
000e6a c06d      	RJMP _0x202007A
000e6b 85e8      	LDD  R30,Y+8
000e6c 30e0      	CPI  R30,0
000e6d f411      	BRNE _0x202007B
000e6e e0e4      	LDI  R30,LOW(4)
000e6f c08b      	RJMP _0x20A000C
                 _0x202007B:
000e70 940e 1a95 	CALL SUBOPT_0x54
000e72 940e 1a9a 	CALL SUBOPT_0x55
000e74 de05      	RCALL _create_chain_G101
000e75 940e 1aa3 	CALL SUBOPT_0x56
000e77 940e 1e89 	CALL __CPD10
000e79 f411      	BRNE _0x202007C
000e7a e0e7      	LDI  R30,LOW(7)
000e7b c07f      	RJMP _0x20A000C
                 _0x202007C:
000e7c 940e 1a19 	CALL SUBOPT_0x3D
000e7e 940e 19e9 	CALL SUBOPT_0x36
000e80 f411      	BRNE _0x202007D
000e81 e0e2      	LDI  R30,LOW(2)
000e82 c078      	RJMP _0x20A000C
                 _0x202007D:
000e83 940e 1a19 	CALL SUBOPT_0x3D
000e85 940e 19f1 	CALL SUBOPT_0x37
000e87 f411      	BRNE _0x202007E
000e88 e0e1      	LDI  R30,LOW(1)
000e89 c071      	RJMP _0x20A000C
                 _0x202007E:
000e8a 940e 1a95 	CALL SUBOPT_0x54
000e8c 940e 1900 	CALL SUBOPT_0x1A
000e8e 30e0      	CPI  R30,0
000e8f f011      	BREQ _0x202007F
000e90 e0e1      	LDI  R30,LOW(1)
000e91 c069      	RJMP _0x20A000C
                 _0x202007F:
000e92 940e 1a95 	CALL SUBOPT_0x54
000e94 940e 1910 	CALL SUBOPT_0x1C
000e96 940e 1a95 	CALL SUBOPT_0x54
000e98 01df      	MOVW R26,R30
000e99 96be      	ADIW R30,46
000e9a 93ff      	PUSH R31
000e9b 93ef      	PUSH R30
000e9c 01fd      	MOVW R30,R26
000e9d 940e 1aa5 	CALL SUBOPT_0x57
000e9f 91af      	POP  R26
000ea0 91bf      	POP  R27
000ea1 940e 1e54 	CALL __PUTDP1
000ea3 e030      	LDI  R19,LOW(0)
                 _0x2020081:
000ea4 940e 1a95 	CALL SUBOPT_0x54
000ea6 81e2      	LDD  R30,Z+2
000ea7 173e      	CP   R19,R30
000ea8 f4d8      	BRSH _0x2020082
000ea9 940e 1a95 	CALL SUBOPT_0x54
000eab 9634      	ADIW R30,4
000eac e0a1      	LDI  R26,LOW(1)
000ead 83a0      	STD  Z+0,R26
000eae 940e 1a95 	CALL SUBOPT_0x54
000eb0 940e 1900 	CALL SUBOPT_0x1A
000eb2 30e0      	CPI  R30,0
000eb3 f011      	BREQ _0x2020083
000eb4 e0e1      	LDI  R30,LOW(1)
000eb5 c045      	RJMP _0x20A000C
                 _0x2020083:
000eb6 940e 1a95 	CALL SUBOPT_0x54
000eb8 96be      	ADIW R30,46
000eb9 01df      	MOVW R26,R30
000eba 940e 1e4f 	CALL __GETD1P_INC
                +
000ebc 5fef     +SUBI R30 , LOW ( - 1 )
000ebd 4fff     +SBCI R31 , HIGH ( - 1 )
000ebe 4f6f     +SBCI R22 , BYTE3 ( - 1 )
000ebf 4f7f     +SBCI R23 , BYTE4 ( - 1 )
                 	__SUBD1N -1
000ec0 940e 1e59 	CALL __PUTDP1_DEC
000ec2 5f3f      	SUBI R19,-1
000ec3 cfe0      	RJMP _0x2020081
                 _0x2020082:
000ec4 940e 1a95 	CALL SUBOPT_0x54
000ec6 96be      	ADIW R30,46
000ec7 93ff      	PUSH R31
000ec8 93ef      	PUSH R30
000ec9 01df      	MOVW R26,R30
000eca 940e 1e49 	CALL __GETD1P
000ecc 01df      	MOVW R26,R30
000ecd 01cb      	MOVW R24,R22
000ece 2fe3      	MOV  R30,R19
000ecf e0f0      	LDI  R31,0
000ed0 940e 1db5 	CALL __CWD1
000ed2 940e 1a5e 	CALL SUBOPT_0x4B
000ed4 91af      	POP  R26
000ed5 91bf      	POP  R27
000ed6 940e 1e54 	CALL __PUTDP1
                 _0x202007A:
000ed8 940e 1a41 	CALL SUBOPT_0x45
                +
000eda 85a9     +LDD R26 , Y + 9
000edb 85ba     +LDD R27 , Y + 9 + 1
000edc 961a     +ADIW R26 , 10
000edd 940e 1e54+CALL __PUTDP1
                 	__PUTD1SNS 9,10
000edf 940e 1a95 	CALL SUBOPT_0x54
000ee1 940e 1aa5 	CALL SUBOPT_0x57
                +
000ee3 85a9     +LDD R26 , Y + 9
000ee4 85ba     +LDD R27 , Y + 9 + 1
000ee5 961e     +ADIW R26 , 14
000ee6 940e 1e54+CALL __PUTDP1
                 	__PUTD1SNS 9,14
                 _0x2020077:
                 _0x2020076:
                 _0x2020073:
000ee8 01f8      	MOVW R30,R16
                +
000ee9 85a9     +LDD R26 , Y + 9
000eea 85ba     +LDD R27 , Y + 9 + 1
000eeb 9614     +ADIW R26 , 4
000eec 93ed     +ST X + , R30
000eed 93fc     +ST X , R31
                 	__PUTW1SNS 9,4
000eee 940e 1a95 	CALL SUBOPT_0x54
000ef0 96f2      	ADIW R30,50
000ef1 01df      	MOVW R26,R30
000ef2 01f8      	MOVW R30,R16
000ef3 940e 1a88 	CALL SUBOPT_0x52
                +
000ef5 85a9     +LDD R26 , Y + 9
000ef6 85ba     +LDD R27 , Y + 9 + 1
000ef7 9652     +ADIW R26 , 18
000ef8 93ed     +ST X + , R30
000ef9 93fc     +ST X , R31
                 	__PUTW1SNS 9,18
000efa e0e0      	LDI  R30,LOW(0)
                 _0x20A000C:
000efb 940e 1ea6 	CALL __LOADLOCR4
                 _0x20A000D:
000efd 962b      	ADIW R28,11
000efe 9508      	RET
                 ; .FEND
                 _dir_find_G101:
                 ; .FSTART _dir_find_G101
000eff 940e 1aad 	CALL SUBOPT_0x58
000f01 f021      	BREQ _0x2020084
000f02 2fe1      	MOV  R30,R17
000f03 940e 1ea6 	CALL __LOADLOCR4
000f05 c1cf      	RJMP _0x20A0009
                 _0x2020084:
                 _0x2020086:
000f06 940e 1abc 	CALL SUBOPT_0x59
000f08 f501      	BRNE _0x2020087
000f09 81ac      	LDD  R26,Y+4
000f0a 81bd      	LDD  R27,Y+4+1
000f0b 9652      	ADIW R26,18
000f0c 912d      	LD   R18,X+
000f0d 913c      	LD   R19,X
000f0e 01d9      	MOVW R26,R18
000f0f 910c      	LD   R16,X
000f10 3000      	CPI  R16,0
000f11 f411      	BRNE _0x2020089
000f12 e014      	LDI  R17,LOW(4)
000f13 c015      	RJMP _0x2020087
                 _0x2020089:
000f14 01f9      	MOVW R30,R18
000f15 85e3      	LDD  R30,Z+11
000f16 70e8      	ANDI R30,LOW(0x8)
000f17 f431      	BRNE _0x202008B
000f18 940e 1acd 	CALL SUBOPT_0x5A
000f1a 940e 1800 	CALL _memcmp
000f1c 30e0      	CPI  R30,0
000f1d f009      	BREQ _0x202008C
                 _0x202008B:
000f1e c001      	RJMP _0x202008A
                 _0x202008C:
000f1f c009      	RJMP _0x2020087
                 _0x202008A:
000f20 81ec      	LDD  R30,Y+4
000f21 81fd      	LDD  R31,Y+4+1
000f22 93fa      	ST   -Y,R31
000f23 93ea      	ST   -Y,R30
000f24 e0a0      	LDI  R26,LOW(0)
000f25 deea      	RCALL _dir_next_G101
000f26 2f1e      	MOV  R17,R30
000f27 3010      	CPI  R17,0
000f28 f2e9      	BREQ _0x2020086
                 _0x2020087:
000f29 2fe1      	MOV  R30,R17
000f2a 940e 1ea6 	CALL __LOADLOCR4
000f2c c1a8      	RJMP _0x20A0009
                 ; .FEND
                 _dir_register_G101:
                 ; .FSTART _dir_register_G101
000f2d 940e 1aad 	CALL SUBOPT_0x58
000f2f f4b1      	BRNE _0x2020099
                 _0x202009B:
000f30 940e 1abc 	CALL SUBOPT_0x59
000f32 f499      	BRNE _0x202009C
000f33 81ec      	LDD  R30,Y+4
000f34 81fd      	LDD  R31,Y+4+1
000f35 89a2      	LDD  R26,Z+18
000f36 89b3      	LDD  R27,Z+19
000f37 910c      	LD   R16,X
000f38 3e05      	CPI  R16,229
000f39 f011      	BREQ _0x202009F
000f3a 3000      	CPI  R16,0
000f3b f409      	BRNE _0x202009E
                 _0x202009F:
000f3c c009      	RJMP _0x202009C
                 _0x202009E:
000f3d 81ec      	LDD  R30,Y+4
000f3e 81fd      	LDD  R31,Y+4+1
000f3f 93fa      	ST   -Y,R31
000f40 93ea      	ST   -Y,R30
000f41 e0a1      	LDI  R26,LOW(1)
000f42 decd      	RCALL _dir_next_G101
000f43 2f1e      	MOV  R17,R30
000f44 3010      	CPI  R17,0
000f45 f351      	BREQ _0x202009B
                 _0x202009C:
                 _0x2020099:
000f46 3010      	CPI  R17,0
000f47 f529      	BRNE _0x20200A1
000f48 940e 1abc 	CALL SUBOPT_0x59
000f4a f511      	BRNE _0x20200A2
000f4b 81ac      	LDD  R26,Y+4
000f4c 81bd      	LDD  R27,Y+4+1
000f4d 9652      	ADIW R26,18
000f4e 912d      	LD   R18,X+
000f4f 913c      	LD   R19,X
000f50 933a      	ST   -Y,R19
000f51 932a      	ST   -Y,R18
000f52 e0e0      	LDI  R30,LOW(0)
000f53 93ea      	ST   -Y,R30
000f54 e2a0      	LDI  R26,LOW(32)
000f55 e0b0      	LDI  R27,0
000f56 940e 182b 	CALL _memset
000f58 940e 1acd 	CALL SUBOPT_0x5A
000f5a 940e 1819 	CALL _memcpy
000f5c 81ac      	LDD  R26,Y+4
000f5d 81bd      	LDD  R27,Y+4+1
000f5e 9654      	ADIW R26,20
000f5f 940e 1e45 	CALL __GETW1P
000f61 85e3      	LDD  R30,Z+11
000f62 71e8      	ANDI R30,LOW(0x18)
                +
000f63 01d9     +MOVW R26 , R18
000f64 961c     +ADIW R26 , 12
000f65 93ec     +ST X , R30
                 	__PUTB1RNS 18,12
000f66 81ac      	LDD  R26,Y+4
000f67 81bd      	LDD  R27,Y+4+1
000f68 940e 1e45 	CALL __GETW1P
000f6a 9634      	ADIW R30,4
000f6b e0a1      	LDI  R26,LOW(1)
000f6c 83a0      	STD  Z+0,R26
                 _0x20200A2:
                 _0x20200A1:
000f6d 2fe1      	MOV  R30,R17
000f6e 940e 1ea6 	CALL __LOADLOCR4
000f70 c164      	RJMP _0x20A0009
                 ; .FEND
                 _create_name_G101:
                 ; .FSTART _create_name_G101
000f71 93ba      	ST   -Y,R27
000f72 93aa      	ST   -Y,R26
000f73 9725      	SBIW R28,5
000f74 940e 1e9d 	CALL __SAVELOCR6
000f76 85ad      	LDD  R26,Y+13
000f77 85be      	LDD  R27,Y+13+1
000f78 9654      	ADIW R26,20
000f79 914d      	LD   R20,X+
000f7a 915c      	LD   R21,X
000f7b 935a      	ST   -Y,R21
000f7c 934a      	ST   -Y,R20
000f7d e2e0      	LDI  R30,LOW(32)
000f7e 93ea      	ST   -Y,R30
000f7f e0ab      	LDI  R26,LOW(11)
000f80 e0b0      	LDI  R27,0
000f81 940e 182b 	CALL _memset
000f83 e0e0      	LDI  R30,LOW(0)
000f84 87e8      	STD  Y+8,R30
000f85 87e9      	STD  Y+8+1,R30
000f86 2f1e      	MOV  R17,R30
000f87 2f2e      	MOV  R18,R30
000f88 e0e8      	LDI  R30,LOW(8)
000f89 87ea      	STD  Y+10,R30
000f8a 85ab      	LDD  R26,Y+11
000f8b 85bc      	LDD  R27,Y+11+1
000f8c 940e 1e45 	CALL __GETW1P
000f8e 83ee      	STD  Y+6,R30
000f8f 83ff      	STD  Y+6+1,R31
000f90 940e 1ad8 	CALL SUBOPT_0x5B
000f92 0fae      	ADD  R26,R30
000f93 1fbf      	ADC  R27,R31
000f94 91ac      	LD   R26,X
000f95 32ae      	CPI  R26,LOW(0x2E)
000f96 f509      	BRNE _0x20200A5
                 _0x20200A7:
000f97 940e 1add 	CALL SUBOPT_0x5C
000f99 320e      	CPI  R16,46
000f9a f421      	BRNE _0x20200AA
000f9b 85a8      	LDD  R26,Y+8
000f9c 85b9      	LDD  R27,Y+8+1
000f9d 9713      	SBIW R26,3
000f9e f00c      	BRLT _0x20200A9
                 _0x20200AA:
000f9f c003      	RJMP _0x20200A8
                 _0x20200A9:
000fa0 940e 1ae9 	CALL SUBOPT_0x5D
000fa2 cff4      	RJMP _0x20200A7
                 _0x20200A8:
000fa3 320f      	CPI  R16,47
000fa4 f021      	BREQ _0x20200AD
000fa5 350c      	CPI  R16,92
000fa6 f011      	BREQ _0x20200AD
000fa7 3201      	CPI  R16,33
000fa8 f408      	BRSH _0x20200AE
                 _0x20200AD:
000fa9 c002      	RJMP _0x20200AC
                 _0x20200AE:
000faa e0e6      	LDI  R30,LOW(6)
000fab c06f      	RJMP _0x20A000A
                 _0x20200AC:
000fac 940e 1ad8 	CALL SUBOPT_0x5B
000fae 940e 1af0 	CALL SUBOPT_0x5E
000fb0 f410      	BRSH _0x20200AF
000fb1 e2e4      	LDI  R30,LOW(36)
000fb2 c001      	RJMP _0x20200B0
                 _0x20200AF:
000fb3 e2e0      	LDI  R30,LOW(32)
                 _0x20200B0:
                +
000fb4 01da     +MOVW R26 , R20
000fb5 961b     +ADIW R26 , 11
000fb6 93ec     +ST X , R30
                 	__PUTB1RNS 20,11
000fb7 c062      	RJMP _0x20A000B
                 _0x20200A5:
                 _0x20200B3:
000fb8 940e 1add 	CALL SUBOPT_0x5C
000fba 3201      	CPI  R16,33
000fbb f020      	BRLO _0x20200B6
000fbc 320f      	CPI  R16,47
000fbd f011      	BREQ _0x20200B6
000fbe 350c      	CPI  R16,92
000fbf f409      	BRNE _0x20200B5
                 _0x20200B6:
000fc0 c034      	RJMP _0x20200B4
                 _0x20200B5:
000fc1 320e      	CPI  R16,46
000fc2 f019      	BREQ _0x20200B9
000fc3 85ea      	LDD  R30,Y+10
000fc4 172e      	CP   R18,R30
000fc5 f068      	BRLO _0x20200B8
                 _0x20200B9:
000fc6 85aa      	LDD  R26,Y+10
000fc7 30a8      	CPI  R26,LOW(0x8)
000fc8 f411      	BRNE _0x20200BC
000fc9 320e      	CPI  R16,46
000fca f011      	BREQ _0x20200BB
                 _0x20200BC:
000fcb e0e6      	LDI  R30,LOW(6)
000fcc c04e      	RJMP _0x20A000A
                 _0x20200BB:
000fcd e028      	LDI  R18,LOW(8)
000fce e0eb      	LDI  R30,LOW(11)
000fcf 87ea      	STD  Y+10,R30
000fd0 0f11      	LSL  R17
000fd1 0f11      	LSL  R17
000fd2 c021      	RJMP _0x20200B2
                 _0x20200B8:
000fd3 3800      	CPI  R16,128
000fd4 f018      	BRLO _0x20200BE
000fd5 6013      	ORI  R17,LOW(3)
000fd6 e0e6      	LDI  R30,LOW(6)
000fd7 c043      	RJMP _0x20A000A
                 _0x20200BE:
                +
000fd8 e1e0     +LDI R30 , LOW ( 2 * _k1 + ( 0 ) )
000fd9 e0f1     +LDI R31 , HIGH ( 2 * _k1 + ( 0 ) )
000fda e060     +LDI R22 , BYTE3 ( 2 * _k1 + ( 0 ) )
000fdb e070     +LDI R23 , BYTE4 ( 2 * _k1 + ( 0 ) )
                 	__POINTD1FN _k1,0
000fdc 940e 1e72 	CALL __PUTPARD1
000fde 2fa0      	MOV  R26,R16
000fdf da33      	RCALL _chk_chrf_G101
000fe0 9730      	SBIW R30,0
000fe1 f011      	BREQ _0x20200C4
000fe2 e0e6      	LDI  R30,LOW(6)
000fe3 c037      	RJMP _0x20A000A
                 _0x20200C4:
000fe4 3401      	CPI  R16,65
000fe5 f010      	BRLO _0x20200C6
000fe6 350b      	CPI  R16,91
000fe7 f008      	BRLO _0x20200C7
                 _0x20200C6:
000fe8 c002      	RJMP _0x20200C5
                 _0x20200C7:
000fe9 6012      	ORI  R17,LOW(2)
000fea c007      	RJMP _0x20200C8
                 _0x20200C5:
000feb 3601      	CPI  R16,97
000fec f010      	BRLO _0x20200CA
000fed 370b      	CPI  R16,123
000fee f008      	BRLO _0x20200CB
                 _0x20200CA:
000fef c002      	RJMP _0x20200C9
                 _0x20200CB:
000ff0 6011      	ORI  R17,LOW(1)
000ff1 5200      	SUBI R16,LOW(32)
                 _0x20200C9:
                 _0x20200C8:
000ff2 940e 1ae9 	CALL SUBOPT_0x5D
                 _0x20200B2:
000ff4 cfc3      	RJMP _0x20200B3
                 _0x20200B4:
000ff5 940e 1ad8 	CALL SUBOPT_0x5B
000ff7 940e 1af0 	CALL SUBOPT_0x5E
000ff9 f410      	BRSH _0x20200CC
000ffa e0e4      	LDI  R30,LOW(4)
000ffb c001      	RJMP _0x20200CD
                 _0x20200CC:
000ffc e0e0      	LDI  R30,LOW(0)
                 _0x20200CD:
000ffd 2f0e      	MOV  R16,R30
000ffe 3020      	CPI  R18,0
000fff f411      	BRNE _0x20200CF
001000 e0e6      	LDI  R30,LOW(6)
001001 c019      	RJMP _0x20A000A
                 _0x20200CF:
001002 01da      	MOVW R26,R20
001003 91ac      	LD   R26,X
001004 3ea5      	CPI  R26,LOW(0xE5)
001005 f419      	BRNE _0x20200D0
001006 01da      	MOVW R26,R20
001007 e0e5      	LDI  R30,LOW(5)
001008 93ec      	ST   X,R30
                 _0x20200D0:
001009 85aa      	LDD  R26,Y+10
00100a 30a8      	CPI  R26,LOW(0x8)
00100b f411      	BRNE _0x20200D1
00100c 0f11      	LSL  R17
00100d 0f11      	LSL  R17
                 _0x20200D1:
00100e 2fe1      	MOV  R30,R17
00100f 70e3      	ANDI R30,LOW(0x3)
001010 30e1      	CPI  R30,LOW(0x1)
001011 f409      	BRNE _0x20200D2
001012 6100      	ORI  R16,LOW(16)
                 _0x20200D2:
001013 2fe1      	MOV  R30,R17
001014 70ec      	ANDI R30,LOW(0xC)
001015 30e4      	CPI  R30,LOW(0x4)
001016 f409      	BRNE _0x20200D3
001017 6008      	ORI  R16,LOW(8)
                 _0x20200D3:
001018 01fa      	MOVW R30,R20
                +
001019 8703     +STD Z + 11 , R16
                 	__PUTBZR 16,11
                 _0x20A000B:
00101a e0e0      	LDI  R30,LOW(0)
                 _0x20A000A:
00101b 940e 1ea4 	CALL __LOADLOCR6
00101d 962f      	ADIW R28,15
00101e 9508      	RET
                 ; .FEND
                 _follow_path_G101:
                 ; .FSTART _follow_path_G101
00101f 93ba      	ST   -Y,R27
001020 93aa      	ST   -Y,R26
001021 940e 1e9f 	CALL __SAVELOCR4
                 _0x20200E9:
001023 e0e1      	LDI  R30,LOW(1)
001024 30e0      	CPI  R30,0
001025 f029      	BREQ _0x20200EC
001026 81ac      	LDD  R26,Y+4
001027 81bd      	LDD  R27,Y+4+1
001028 91ac      	LD   R26,X
001029 32a0      	CPI  R26,LOW(0x20)
00102a f009      	BREQ _0x20200ED
                 _0x20200EC:
00102b c006      	RJMP _0x20200EB
                 _0x20200ED:
00102c 81ec      	LDD  R30,Y+4
00102d 81fd      	LDD  R31,Y+4+1
00102e 9631      	ADIW R30,1
00102f 83ec      	STD  Y+4,R30
001030 83fd      	STD  Y+4+1,R31
001031 cff1      	RJMP _0x20200E9
                 _0x20200EB:
001032 81ac      	LDD  R26,Y+4
001033 81bd      	LDD  R27,Y+4+1
001034 91ac      	LD   R26,X
001035 32af      	CPI  R26,LOW(0x2F)
001036 f029      	BREQ _0x20200EF
001037 81ac      	LDD  R26,Y+4
001038 81bd      	LDD  R27,Y+4+1
001039 91ac      	LD   R26,X
00103a 35ac      	CPI  R26,LOW(0x5C)
00103b f459      	BRNE _0x20200EE
                 _0x20200EF:
00103c 81ec      	LDD  R30,Y+4
00103d 81fd      	LDD  R31,Y+4+1
00103e 9631      	ADIW R30,1
00103f 83ec      	STD  Y+4,R30
001040 83fd      	STD  Y+4+1,R31
001041 81ae      	LDD  R26,Y+6
001042 81bf      	LDD  R27,Y+6+1
001043 9616      	ADIW R26,6
001044 940e 1af8 	CALL SUBOPT_0x5F
001046 c00a      	RJMP _0x20200F1
                 _0x20200EE:
001047 81ae      	LDD  R26,Y+6
001048 81bf      	LDD  R27,Y+6+1
001049 940e 1e45 	CALL __GETW1P
00104b 9676      	ADIW R30,22
00104c 01df      	MOVW R26,R30
00104d 940e 1e49 	CALL __GETD1P
00104f 940e 1afc 	CALL SUBOPT_0x60
                 _0x20200F1:
001051 81ac      	LDD  R26,Y+4
001052 81bd      	LDD  R27,Y+4+1
001053 91ac      	LD   R26,X
001054 27bb      	CLR  R27
001055 9790      	SBIW R26,32
001056 f460      	BRSH _0x20200F2
001057 940e 1b02 	CALL SUBOPT_0x61
001059 e0a0      	LDI  R26,LOW(0)
00105a e0b0      	LDI  R27,0
00105b dd17      	RCALL _dir_seek_G101
00105c 2f1e      	MOV  R17,R30
00105d 81ae      	LDD  R26,Y+6
00105e 81bf      	LDD  R27,Y+6+1
00105f 9652      	ADIW R26,18
001060 940e 1b07 	CALL SUBOPT_0x62
001062 c03d      	RJMP _0x20200F3
                 _0x20200F2:
                 _0x20200F5:
001063 940e 1b02 	CALL SUBOPT_0x61
001065 01de      	MOVW R26,R28
001066 9616      	ADIW R26,6
001067 df09      	RCALL _create_name_G101
001068 2f1e      	MOV  R17,R30
001069 3010      	CPI  R17,0
00106a f5a9      	BRNE _0x20200F6
00106b 81ae      	LDD  R26,Y+6
00106c 81bf      	LDD  R27,Y+6+1
00106d de91      	RCALL _dir_find_G101
00106e 2f1e      	MOV  R17,R30
00106f 81ae      	LDD  R26,Y+6
001070 81bf      	LDD  R27,Y+6+1
001071 9654      	ADIW R26,20
001072 940e 1e45 	CALL __GETW1P
001074 85e3      	LDD  R30,Z+11
001075 70e4      	ANDI R30,LOW(0x4)
001076 2f0e      	MOV  R16,R30
001077 3010      	CPI  R17,0
001078 f039      	BREQ _0x20200F8
001079 3014      	CPI  R17,4
00107a f411      	BRNE _0x20200FA
00107b 3000      	CPI  R16,0
00107c f009      	BREQ _0x20200FB
                 _0x20200FA:
00107d c001      	RJMP _0x20200F9
                 _0x20200FB:
00107e e015      	LDI  R17,LOW(5)
                 _0x20200F9:
00107f c020      	RJMP _0x20200F6
                 _0x20200F8:
001080 3000      	CPI  R16,0
001081 f4f1      	BRNE _0x20200F6
001082 81ae      	LDD  R26,Y+6
001083 81bf      	LDD  R27,Y+6+1
001084 9652      	ADIW R26,18
001085 912d      	LD   R18,X+
001086 913c      	LD   R19,X
001087 01f9      	MOVW R30,R18
001088 85e3      	LDD  R30,Z+11
001089 71e0      	ANDI R30,LOW(0x10)
00108a f411      	BRNE _0x20200FD
00108b e015      	LDI  R17,LOW(5)
00108c c013      	RJMP _0x20200F6
                 _0x20200FD:
00108d 940e 1b0c 	CALL SUBOPT_0x63
00108f 940e 1db0 	CALL __LSLD16
001091 937f      	PUSH R23
001092 936f      	PUSH R22
001093 93ff      	PUSH R31
001094 93ef      	PUSH R30
001095 940e 1b0f 	CALL SUBOPT_0x64
001097 91af      	POP  R26
001098 91bf      	POP  R27
001099 918f      	POP  R24
00109a 919f      	POP  R25
00109b 940e 1b14 	CALL SUBOPT_0x65
00109d 940e 1afc 	CALL SUBOPT_0x60
00109f cfc3      	RJMP _0x20200F5
                 _0x20200F6:
                 _0x20200F3:
0010a0 2fe1      	MOV  R30,R17
0010a1 940e 1ea6 	CALL __LOADLOCR4
0010a3 9628      	ADIW R28,8
0010a4 9508      	RET
                 ; .FEND
                 _check_fs_G101:
                 ; .FSTART _check_fs_G101
0010a5 940e 1e77 	CALL __PUTPARD2
0010a7 81ec      	LDD  R30,Y+4
0010a8 81fd      	LDD  R31,Y+4+1
0010a9 81a1      	LDD  R26,Z+1
0010aa 93aa      	ST   -Y,R26
0010ab 81ed      	LDD  R30,Y+5
0010ac 81fe      	LDD  R31,Y+5+1
0010ad 96f2      	ADIW R30,50
0010ae 93fa      	ST   -Y,R31
0010af 93ea      	ST   -Y,R30
                +
0010b0 81eb     +LDD R30 , Y + 3
0010b1 81fc     +LDD R31 , Y + 3 + 1
0010b2 816d     +LDD R22 , Y + 3 + 2
0010b3 817e     +LDD R23 , Y + 3 + 3
                 	__GETD1S 3
0010b4 940e 18f9 	CALL SUBOPT_0x19
0010b6 f011      	BREQ _0x20200FE
0010b7 e0e3      	LDI  R30,LOW(3)
0010b8 c01c      	RJMP _0x20A0009
                 _0x20200FE:
0010b9 81ec      	LDD  R30,Y+4
0010ba 81fd      	LDD  R31,Y+4+1
0010bb 940e 1b19 	CALL SUBOPT_0x66
0010bd f011      	BREQ _0x20200FF
0010be e0e2      	LDI  R30,LOW(2)
0010bf c015      	RJMP _0x20A0009
                 _0x20200FF:
0010c0 81ac      	LDD  R26,Y+4
0010c1 81bd      	LDD  R27,Y+4+1
0010c2 59a8      	SUBI R26,LOW(-104)
0010c3 4fbf      	SBCI R27,HIGH(-104)
0010c4 940e 1b23 	CALL SUBOPT_0x67
0010c6 f411      	BRNE _0x2020100
0010c7 e0e0      	LDI  R30,LOW(0)
0010c8 c00c      	RJMP _0x20A0009
                 _0x2020100:
0010c9 81ec      	LDD  R30,Y+4
0010ca 81fd      	LDD  R31,Y+4+1
0010cb 96f2      	ADIW R30,50
0010cc 5aee      	SUBI R30,LOW(-82)
0010cd 4fff      	SBCI R31,HIGH(-82)
0010ce 01df      	MOVW R26,R30
0010cf 940e 1b23 	CALL SUBOPT_0x67
0010d1 f411      	BRNE _0x2020101
0010d2 e0e0      	LDI  R30,LOW(0)
0010d3 c001      	RJMP _0x20A0009
                 _0x2020101:
0010d4 e0e1      	LDI  R30,LOW(1)
                 _0x20A0009:
0010d5 9626      	ADIW R28,6
0010d6 9508      	RET
                 ; .FEND
                 _chk_mounted:
                 ; .FSTART _chk_mounted
0010d7 93aa      	ST   -Y,R26
0010d8 9764      	SBIW R28,20
0010d9 940e 1e9d 	CALL __SAVELOCR6
0010db 8dad      	LDD  R26,Y+29
0010dc 8dbe      	LDD  R27,Y+29+1
0010dd 940e 1e45 	CALL __GETW1P
0010df 87e8      	STD  Y+8,R30
0010e0 87f9      	STD  Y+8+1,R31
0010e1 85a8      	LDD  R26,Y+8
0010e2 85b9      	LDD  R27,Y+8+1
0010e3 91ec      	LD   R30,X
0010e4 53e0      	SUBI R30,LOW(48)
0010e5 2f0e      	MOV  R16,R30
0010e6 300a      	CPI  R16,10
0010e7 f420      	BRSH _0x2020103
0010e8 9611      	ADIW R26,1
0010e9 91ac      	LD   R26,X
0010ea 33aa      	CPI  R26,LOW(0x3A)
0010eb f009      	BREQ _0x2020104
                 _0x2020103:
0010ec c00a      	RJMP _0x2020102
                 _0x2020104:
0010ed 85e8      	LDD  R30,Y+8
0010ee 85f9      	LDD  R31,Y+8+1
0010ef 9632      	ADIW R30,2
0010f0 87e8      	STD  Y+8,R30
0010f1 87f9      	STD  Y+8+1,R31
0010f2 8dad      	LDD  R26,Y+29
0010f3 8dbe      	LDD  R27,Y+29+1
0010f4 93ed      	ST   X+,R30
0010f5 93fc      	ST   X,R31
0010f6 c002      	RJMP _0x2020105
                 _0x2020102:
0010f7 9100 0efd 	LDS  R16,_Drive_G101
                 _0x2020105:
0010f9 3001      	CPI  R16,1
0010fa f010      	BRLO _0x2020106
0010fb e0eb      	LDI  R30,LOW(11)
0010fc c1c9      	RJMP _0x20A0007
                 _0x2020106:
0010fd 2fe0      	MOV  R30,R16
0010fe 940e 1b31 	CALL SUBOPT_0x68
001100 940e 1e45 	CALL __GETW1P
001102 83ee      	STD  Y+6,R30
001103 83ff      	STD  Y+6+1,R31
001104 8dab      	LDD  R26,Y+27
001105 8dbc      	LDD  R27,Y+27+1
001106 93ed      	ST   X+,R30
001107 93fc      	ST   X,R31
001108 9730      	SBIW R30,0
001109 f411      	BRNE _0x2020107
00110a e0ec      	LDI  R30,LOW(12)
00110b c1ba      	RJMP _0x20A0007
                 _0x2020107:
00110c 81ae      	LDD  R26,Y+6
00110d 81bf      	LDD  R27,Y+6+1
00110e 91ec      	LD   R30,X
00110f 30e0      	CPI  R30,0
001110 f089      	BREQ _0x2020108
001111 81ee      	LDD  R30,Y+6
001112 81ff      	LDD  R31,Y+6+1
001113 81a1      	LDD  R26,Z+1
001114 940e 06e6 	CALL _disk_status
001116 2f5e      	MOV  R21,R30
001117 fd50      	SBRC R21,0
001118 c009      	RJMP _0x2020109
001119 8dea      	LDD  R30,Y+26
00111a 30e0      	CPI  R30,0
00111b f011      	BREQ _0x202010B
00111c fd52      	SBRC R21,2
00111d c001      	RJMP _0x202010C
                 _0x202010B:
00111e c002      	RJMP _0x202010A
                 _0x202010C:
00111f e0ea      	LDI  R30,LOW(10)
001120 c1a5      	RJMP _0x20A0007
                 _0x202010A:
001121 c1a3      	RJMP _0x20A0008
                 _0x2020109:
                 _0x2020108:
001122 81ae      	LDD  R26,Y+6
001123 81bf      	LDD  R27,Y+6+1
001124 e0e0      	LDI  R30,LOW(0)
001125 93ec      	ST   X,R30
001126 2fe0      	MOV  R30,R16
                +
001127 81ae     +LDD R26 , Y + 6
001128 81bf     +LDD R27 , Y + 6 + 1
001129 9611     +ADIW R26 , 1
00112a 93ec     +ST X , R30
                 	__PUTB1SNS 6,1
00112b 81ee      	LDD  R30,Y+6
00112c 81ff      	LDD  R31,Y+6+1
00112d 81a1      	LDD  R26,Z+1
00112e 940e 0617 	CALL _disk_initialize
001130 2f5e      	MOV  R21,R30
001131 ff50      	SBRS R21,0
001132 c002      	RJMP _0x202010D
001133 e0e3      	LDI  R30,LOW(3)
001134 c191      	RJMP _0x20A0007
                 _0x202010D:
001135 8dea      	LDD  R30,Y+26
001136 30e0      	CPI  R30,0
001137 f011      	BREQ _0x202010F
001138 fd52      	SBRC R21,2
001139 c001      	RJMP _0x2020110
                 _0x202010F:
00113a c002      	RJMP _0x202010E
                 _0x2020110:
00113b e0ea      	LDI  R30,LOW(10)
00113c c189      	RJMP _0x20A0007
                 _0x202010E:
00113d 940e 1b02 	CALL SUBOPT_0x61
00113f 940e 1a50 	CALL SUBOPT_0x48
                +
001141 8fe8     +STD Y + 24 , R30
001142 8ff9     +STD Y + 24 + 1 , R31
001143 8f6a     +STD Y + 24 + 2 , R22
001144 8f7b     +STD Y + 24 + 3 , R23
                 	__PUTD1S 24
001145 01df      	MOVW R26,R30
001146 01cb      	MOVW R24,R22
001147 df5d      	RCALL _check_fs_G101
001148 2f1e      	MOV  R17,R30
001149 3011      	CPI  R17,1
00114a f4c9      	BRNE _0x2020111
00114b 81ee      	LDD  R30,Y+6
00114c 81ff      	LDD  R31,Y+6+1
00114d 96f2      	ADIW R30,50
00114e 54e2      	SUBI R30,LOW(-446)
00114f 4ffe      	SBCI R31,HIGH(-446)
001150 019f      	MOVW R18,R30
001151 81e4      	LDD  R30,Z+4
001152 30e0      	CPI  R30,0
001153 f081      	BREQ _0x2020112
001154 01d9      	MOVW R26,R18
001155 9618      	ADIW R26,8
001156 940e 1e49 	CALL __GETD1P
                +
001158 8bee     +STD Y + 22 , R30
001159 8bff     +STD Y + 22 + 1 , R31
00115a 8f68     +STD Y + 22 + 2 , R22
00115b 8f79     +STD Y + 22 + 3 , R23
                 	__PUTD1S 22
00115c 940e 1b02 	CALL SUBOPT_0x61
                +
00115e 8da8     +LDD R26 , Y + 24
00115f 8db9     +LDD R27 , Y + 24 + 1
001160 8d8a     +LDD R24 , Y + 24 + 2
001161 8d9b     +LDD R25 , Y + 24 + 3
                 	__GETD2S 24
001162 df42      	RCALL _check_fs_G101
001163 2f1e      	MOV  R17,R30
                 _0x2020112:
                 _0x2020111:
001164 3013      	CPI  R17,3
001165 f411      	BRNE _0x2020113
001166 e0e1      	LDI  R30,LOW(1)
001167 c15e      	RJMP _0x20A0007
                 _0x2020113:
001168 3010      	CPI  R17,0
001169 f449      	BRNE _0x2020115
00116a 81ae      	LDD  R26,Y+6
00116b 81bf      	LDD  R27,Y+6+1
00116c 96dd      	ADIW R26,61
00116d 940e 1e45 	CALL __GETW1P
00116f 30e0      	CPI  R30,LOW(0x200)
001170 e0a2      	LDI  R26,HIGH(0x200)
001171 07fa      	CPC  R31,R26
001172 f011      	BREQ _0x2020114
                 _0x2020115:
001173 e0ed      	LDI  R30,LOW(13)
001174 c151      	RJMP _0x20A0007
                 _0x2020114:
001175 81ae      	LDD  R26,Y+6
001176 81bf      	LDD  R27,Y+6+1
001177 5ba8      	SUBI R26,LOW(-72)
001178 4fbf      	SBCI R27,HIGH(-72)
001179 940e 1988 	CALL SUBOPT_0x2A
00117b 940e 1b39 	CALL SUBOPT_0x69
00117d 940e 1a59 	CALL SUBOPT_0x4A
00117f 940e 1e89 	CALL __CPD10
001181 f441      	BRNE _0x2020117
001182 81ae      	LDD  R26,Y+6
001183 81bf      	LDD  R27,Y+6+1
001184 5aaa      	SUBI R26,LOW(-86)
001185 4fbf      	SBCI R27,HIGH(-86)
001186 940e 1e49 	CALL __GETD1P
001188 940e 1b39 	CALL SUBOPT_0x69
                 _0x2020117:
00118a 940e 1a59 	CALL SUBOPT_0x4A
                +
00118c 81ae     +LDD R26 , Y + 6
00118d 81bf     +LDD R27 , Y + 6 + 1
00118e 965a     +ADIW R26 , 26
00118f 940e 1e54+CALL __PUTDP1
                 	__PUTD1SNS 6,26
001191 81ee      	LDD  R30,Y+6
001192 81ff      	LDD  R31,Y+6+1
001193 5bee      	SUBI R30,LOW(-66)
001194 4fff      	SBCI R31,HIGH(-66)
001195 81e0      	LD   R30,Z
                +
001196 81ae     +LDD R26 , Y + 6
001197 81bf     +LDD R27 , Y + 6 + 1
001198 9613     +ADIW R26 , 3
001199 93ec     +ST X , R30
                 	__PUTB1SNS 6,3
00119a 81ee      	LDD  R30,Y+6
00119b 81ff      	LDD  R31,Y+6+1
00119c 81e3      	LDD  R30,Z+3
00119d e0f0      	LDI  R31,0
00119e 940e 1a2b 	CALL SUBOPT_0x41
0011a0 940e 1db5 	CALL __CWD1
0011a2 940e 1dc6 	CALL __MULD12U
0011a4 940e 1b39 	CALL SUBOPT_0x69
0011a6 940e 1b3e 	CALL SUBOPT_0x6A
0011a8 940e 1b45 	CALL SUBOPT_0x6B
                +
0011aa 81ae     +LDD R26 , Y + 6
0011ab 81bf     +LDD R27 , Y + 6 + 1
0011ac 9692     +ADIW R26 , 34
0011ad 940e 1e54+CALL __PUTDP1
                 	__PUTD1SNS 6,34
0011af 81ee      	LDD  R30,Y+6
0011b0 81ff      	LDD  R31,Y+6+1
0011b1 ade7      	LDD  R30,Z+63
                +
0011b2 81ae     +LDD R26 , Y + 6
0011b3 81bf     +LDD R27 , Y + 6 + 1
0011b4 9612     +ADIW R26 , 2
0011b5 93ec     +ST X , R30
                 	__PUTB1SNS 6,2
0011b6 81ae      	LDD  R26,Y+6
0011b7 81bf      	LDD  R27,Y+6+1
0011b8 5bad      	SUBI R26,LOW(-67)
0011b9 4fbf      	SBCI R27,HIGH(-67)
0011ba 940e 1e45 	CALL __GETW1P
                +
0011bc 81ae     +LDD R26 , Y + 6
0011bd 81bf     +LDD R27 , Y + 6 + 1
0011be 9618     +ADIW R26 , 8
0011bf 93ed     +ST X + , R30
0011c0 93fc     +ST X , R31
                 	__PUTW1SNS 6,8
0011c1 81ae      	LDD  R26,Y+6
0011c2 81bf      	LDD  R27,Y+6+1
0011c3 5bab      	SUBI R26,LOW(-69)
0011c4 4fbf      	SBCI R27,HIGH(-69)
0011c5 940e 1988 	CALL SUBOPT_0x2A
                +
0011c7 87ee     +STD Y + 14 , R30
0011c8 87ff     +STD Y + 14 + 1 , R31
0011c9 8b68     +STD Y + 14 + 2 , R22
0011ca 8b79     +STD Y + 14 + 3 , R23
                 	__PUTD1S 14
0011cb 940e 1e89 	CALL __CPD10
0011cd f451      	BRNE _0x2020118
0011ce 81ae      	LDD  R26,Y+6
0011cf 81bf      	LDD  R27,Y+6+1
0011d0 5aae      	SUBI R26,LOW(-82)
0011d1 4fbf      	SBCI R27,HIGH(-82)
0011d2 940e 1e49 	CALL __GETD1P
                +
0011d4 87ee     +STD Y + 14 , R30
0011d5 87ff     +STD Y + 14 + 1 , R31
0011d6 8b68     +STD Y + 14 + 2 , R22
0011d7 8b79     +STD Y + 14 + 3 , R23
                 	__PUTD1S 14
                 _0x2020118:
0011d8 940e 1b3e 	CALL SUBOPT_0x6A
0011da 940e 1999 	CALL SUBOPT_0x2D
0011dc 2766      	CLR  R22
0011dd 2777      	CLR  R23
0011de 940e 1a5e 	CALL SUBOPT_0x4B
0011e0 940e 1a2b 	CALL SUBOPT_0x41
0011e2 940e 1d61 	CALL __SUBD12
0011e4 937f      	PUSH R23
0011e5 936f      	PUSH R22
0011e6 93ff      	PUSH R31
0011e7 93ef      	PUSH R30
0011e8 940e 1b4a 	CALL SUBOPT_0x6C
0011ea 91af      	POP  R26
0011eb 91bf      	POP  R27
0011ec 918f      	POP  R24
0011ed 919f      	POP  R25
0011ee 2766      	CLR  R22
0011ef 2777      	CLR  R23
0011f0 940e 1d66 	CALL __SUBD21
0011f2 81ee      	LDD  R30,Y+6
0011f3 81ff      	LDD  R31,Y+6+1
0011f4 81e2      	LDD  R30,Z+2
0011f5 e0f0      	LDI  R31,0
0011f6 940e 1db5 	CALL __CWD1
0011f8 940e 1e04 	CALL __DIVD21U
                +
0011fa 5fee     +SUBI R30 , LOW ( - 2 )
0011fb 4fff     +SBCI R31 , HIGH ( - 2 )
0011fc 4f6f     +SBCI R22 , BYTE3 ( - 2 )
0011fd 4f7f     +SBCI R23 , BYTE4 ( - 2 )
                 	__ADDD1N 2
                +
0011fe 87ea     +STD Y + 10 , R30
0011ff 87fb     +STD Y + 10 + 1 , R31
001200 876c     +STD Y + 10 + 2 , R22
001201 877d     +STD Y + 10 + 3 , R23
                 	__PUTD1S 10
                +
001202 81ae     +LDD R26 , Y + 6
001203 81bf     +LDD R27 , Y + 6 + 1
001204 965e     +ADIW R26 , 30
001205 940e 1e54+CALL __PUTDP1
                 	__PUTD1SNS 6,30
001207 e011      	LDI  R17,LOW(1)
001208 940e 19bc 	CALL SUBOPT_0x30
                +
00120a 3fa7     +CPI R26 , LOW ( 0xFF7 )
00120b e0ef     +LDI R30 , HIGH ( 0xFF7 )
00120c 07be     +CPC R27 , R30
00120d e0e0     +LDI R30 , BYTE3 ( 0xFF7 )
00120e 078e     +CPC R24 , R30
00120f e0e0     +LDI R30 , BYTE4 ( 0xFF7 )
001210 079e     +CPC R25 , R30
                 	__CPD2N 0xFF7
001211 f008      	BRLO _0x2020119
001212 e012      	LDI  R17,LOW(2)
                 _0x2020119:
001213 940e 19bc 	CALL SUBOPT_0x30
                +
001215 3fa7     +CPI R26 , LOW ( 0xFFF7 )
001216 efef     +LDI R30 , HIGH ( 0xFFF7 )
001217 07be     +CPC R27 , R30
001218 e0e0     +LDI R30 , BYTE3 ( 0xFFF7 )
001219 078e     +CPC R24 , R30
00121a e0e0     +LDI R30 , BYTE4 ( 0xFFF7 )
00121b 079e     +CPC R25 , R30
                 	__CPD2N 0xFFF7
00121c f008      	BRLO _0x202011A
00121d e013      	LDI  R17,LOW(3)
                 _0x202011A:
00121e 3013      	CPI  R17,3
00121f f439      	BRNE _0x202011B
001220 81ae      	LDD  R26,Y+6
001221 81bf      	LDD  R27,Y+6+1
001222 5aa2      	SUBI R26,LOW(-94)
001223 4fbf      	SBCI R27,HIGH(-94)
001224 940e 1e49 	CALL __GETD1P
001226 c002      	RJMP _0x202027C
                 _0x202011B:
001227 940e 1b52 	CALL SUBOPT_0x6D
                 _0x202027C:
                +
001229 81ae     +LDD R26 , Y + 6
00122a 81bf     +LDD R27 , Y + 6 + 1
00122b 9696     +ADIW R26 , 38
00122c 940e 1e54+CALL __PUTDP1
                 	__PUTD1SNS 6,38
00122e 940e 1b52 	CALL SUBOPT_0x6D
001230 937f      	PUSH R23
001231 936f      	PUSH R22
001232 93ff      	PUSH R31
001233 93ef      	PUSH R30
001234 940e 1b4a 	CALL SUBOPT_0x6C
001236 91af      	POP  R26
001237 91bf      	POP  R27
001238 918f      	POP  R24
001239 919f      	POP  R25
00123a 940e 1a83 	CALL SUBOPT_0x51
                +
00123c 81ae     +LDD R26 , Y + 6
00123d 81bf     +LDD R27 , Y + 6 + 1
00123e 969a     +ADIW R26 , 42
00123f 940e 1e54+CALL __PUTDP1
                 	__PUTD1SNS 6,42
001241 81ae      	LDD  R26,Y+6
001242 81bf      	LDD  R27,Y+6+1
001243 961e      	ADIW R26,14
001244 940e 1994 	CALL SUBOPT_0x2C
001246 940e 1e54 	CALL __PUTDP1
001248 81ae      	LDD  R26,Y+6
001249 81bf      	LDD  R27,Y+6+1
00124a 9614      	ADIW R26,4
00124b e0e0      	LDI  R30,LOW(0)
00124c 93ec      	ST   X,R30
00124d 3013      	CPI  R17,3
00124e f009      	BREQ PC+2
00124f c05f      	RJMP _0x202011D
001250 81ae      	LDD  R26,Y+6
001251 81bf      	LDD  R27,Y+6+1
001252 9615      	ADIW R26,5
001253 93ec      	ST   X,R30
001254 81ae      	LDD  R26,Y+6
001255 81bf      	LDD  R27,Y+6+1
001256 59ae      	SUBI R26,LOW(-98)
001257 4fbf      	SBCI R27,HIGH(-98)
001258 940e 1e45 	CALL __GETW1P
00125a 940e 1b45 	CALL SUBOPT_0x6B
                +
00125c 81ae     +LDD R26 , Y + 6
00125d 81bf     +LDD R27 , Y + 6 + 1
00125e 9652     +ADIW R26 , 18
00125f 940e 1e54+CALL __PUTDP1
                 	__PUTD1SNS 6,18
001261 81ee      	LDD  R30,Y+6
001262 81ff      	LDD  R31,Y+6+1
001263 81a1      	LDD  R26,Z+1
001264 93aa      	ST   -Y,R26
001265 81ef      	LDD  R30,Y+7
001266 85f8      	LDD  R31,Y+7+1
001267 96f2      	ADIW R30,50
001268 93fa      	ST   -Y,R31
001269 93ea      	ST   -Y,R30
00126a 85e9      	LDD  R30,Y+9
00126b 85fa      	LDD  R31,Y+9+1
00126c 940e 1927 	CALL SUBOPT_0x1F
00126e 940e 06f0 	CALL _disk_read
001270 30e0      	CPI  R30,0
001271 f511      	BRNE _0x202011F
001272 81ee      	LDD  R30,Y+6
001273 81ff      	LDD  R31,Y+6+1
001274 940e 1b19 	CALL SUBOPT_0x66
001276 f4e9      	BRNE _0x202011F
001277 81ae      	LDD  R26,Y+6
001278 81bf      	LDD  R27,Y+6+1
001279 96d2      	ADIW R26,50
00127a 940e 1e49 	CALL __GETD1P
                +
00127c 35e2     +CPI R30 , LOW ( 0x41615252 )
00127d e5a2     +LDI R26 , HIGH ( 0x41615252 )
00127e 07fa     +CPC R31 , R26
00127f e6a1     +LDI R26 , BYTE3 ( 0x41615252 )
001280 076a     +CPC R22 , R26
001281 e4a1     +LDI R26 , BYTE4 ( 0x41615252 )
001282 077a     +CPC R23 , R26
                 	__CPD1N 0x41615252
001283 f481      	BRNE _0x202011F
001284 81ee      	LDD  R30,Y+6
001285 81ff      	LDD  R31,Y+6+1
001286 96f2      	ADIW R30,50
001287 51ec      	SUBI R30,LOW(-484)
001288 4ffe      	SBCI R31,HIGH(-484)
001289 01df      	MOVW R26,R30
00128a 940e 1e49 	CALL __GETD1P
                +
00128c 37e2     +CPI R30 , LOW ( 0x61417272 )
00128d e7a2     +LDI R26 , HIGH ( 0x61417272 )
00128e 07fa     +CPC R31 , R26
00128f e4a1     +LDI R26 , BYTE3 ( 0x61417272 )
001290 076a     +CPC R22 , R26
001291 e6a1     +LDI R26 , BYTE4 ( 0x61417272 )
001292 077a     +CPC R23 , R26
                 	__CPD1N 0x61417272
001293 f009      	BREQ _0x2020120
                 _0x202011F:
001294 c01a      	RJMP _0x202011E
                 _0x2020120:
001295 81ee      	LDD  R30,Y+6
001296 81ff      	LDD  R31,Y+6+1
001297 96f2      	ADIW R30,50
001298 51e4      	SUBI R30,LOW(-492)
001299 4ffe      	SBCI R31,HIGH(-492)
00129a 01df      	MOVW R26,R30
00129b 940e 1e49 	CALL __GETD1P
                +
00129d 81ae     +LDD R26 , Y + 6
00129e 81bf     +LDD R27 , Y + 6 + 1
00129f 961a     +ADIW R26 , 10
0012a0 940e 1e54+CALL __PUTDP1
                 	__PUTD1SNS 6,10
0012a2 81ee      	LDD  R30,Y+6
0012a3 81ff      	LDD  R31,Y+6+1
0012a4 96f2      	ADIW R30,50
0012a5 51e8      	SUBI R30,LOW(-488)
0012a6 4ffe      	SBCI R31,HIGH(-488)
0012a7 01df      	MOVW R26,R30
0012a8 940e 1e49 	CALL __GETD1P
                +
0012aa 81ae     +LDD R26 , Y + 6
0012ab 81bf     +LDD R27 , Y + 6 + 1
0012ac 961e     +ADIW R26 , 14
0012ad 940e 1e54+CALL __PUTDP1
                 	__PUTD1SNS 6,14
                 _0x202011E:
                 _0x202011D:
0012af 81ae      	LDD  R26,Y+6
0012b0 81bf      	LDD  R27,Y+6+1
0012b1 931c      	ST   X,R17
0012b2 940e 1908 	CALL SUBOPT_0x1B
0012b4 81ae      	LDD  R26,Y+6
0012b5 81bf      	LDD  R27,Y+6+1
0012b6 9656      	ADIW R26,22
0012b7 940e 1af8 	CALL SUBOPT_0x5F
0012b9 efab      	LDI  R26,LOW(_Fsid_G101)
0012ba e0be      	LDI  R27,HIGH(_Fsid_G101)
0012bb 91ed      	LD   R30,X+
0012bc 91fd      	LD   R31,X+
0012bd 9631      	ADIW R30,1
0012be 93fe      	ST   -X,R31
0012bf 93ee      	ST   -X,R30
                +
0012c0 81ae     +LDD R26 , Y + 6
0012c1 81bf     +LDD R27 , Y + 6 + 1
0012c2 9616     +ADIW R26 , 6
0012c3 93ed     +ST X + , R30
0012c4 93fc     +ST X , R31
                 	__PUTW1SNS 6,6
                 _0x20A0008:
0012c5 e0e0      	LDI  R30,LOW(0)
                 _0x20A0007:
0012c6 940e 1ea4 	CALL __LOADLOCR6
0012c8 966f      	ADIW R28,31
0012c9 9508      	RET
                 ; .FEND
                 _validate_G101:
                 ; .FSTART _validate_G101
0012ca 93ba      	ST   -Y,R27
0012cb 93aa      	ST   -Y,R26
0012cc 81ea      	LDD  R30,Y+2
0012cd 81fb      	LDD  R31,Y+2+1
0012ce 9730      	SBIW R30,0
0012cf f071      	BREQ _0x2020122
0012d0 81aa      	LDD  R26,Y+2
0012d1 81bb      	LDD  R27,Y+2+1
0012d2 91ec      	LD   R30,X
0012d3 30e0      	CPI  R30,0
0012d4 f049      	BREQ _0x2020122
0012d5 81ea      	LDD  R30,Y+2
0012d6 81fb      	LDD  R31,Y+2+1
0012d7 81a6      	LDD  R26,Z+6
0012d8 81b7      	LDD  R27,Z+7
0012d9 81e8      	LD   R30,Y
0012da 81f9      	LDD  R31,Y+1
0012db 17ea      	CP   R30,R26
0012dc 07fb      	CPC  R31,R27
0012dd f011      	BREQ _0x2020121
                 _0x2020122:
0012de e0e9      	LDI  R30,LOW(9)
0012df c00a      	RJMP _0x20A0006
                 _0x2020121:
0012e0 81ea      	LDD  R30,Y+2
0012e1 81fb      	LDD  R31,Y+2+1
0012e2 81a1      	LDD  R26,Z+1
0012e3 940e 06e6 	CALL _disk_status
0012e5 70e1      	ANDI R30,LOW(0x1)
0012e6 f011      	BREQ _0x2020124
0012e7 e0e3      	LDI  R30,LOW(3)
0012e8 c001      	RJMP _0x20A0006
                 _0x2020124:
0012e9 e0e0      	LDI  R30,LOW(0)
                 _0x20A0006:
0012ea 9624      	ADIW R28,4
0012eb 9508      	RET
                 ; .FEND
                 _f_mount:
                 ; .FSTART _f_mount
0012ec 93ba      	ST   -Y,R27
0012ed 93aa      	ST   -Y,R26
0012ee 931a      	ST   -Y,R17
0012ef 930a      	ST   -Y,R16
0012f0 81ac      	LDD  R26,Y+4
0012f1 30a1      	CPI  R26,LOW(0x1)
0012f2 f028      	BRLO _0x2020125
0012f3 e0eb      	LDI  R30,LOW(11)
0012f4 8119      	LDD  R17,Y+1
0012f5 8108      	LDD  R16,Y+0
0012f6 9625      	ADIW R28,5
0012f7 9508      	RET
                 _0x2020125:
0012f8 81ec      	LDD  R30,Y+4
0012f9 940e 1b31 	CALL SUBOPT_0x68
0012fb 910d      	LD   R16,X+
0012fc 911c      	LD   R17,X
0012fd 2e00      	MOV  R0,R16
0012fe 2a01      	OR   R0,R17
0012ff f019      	BREQ _0x2020126
001300 01d8      	MOVW R26,R16
001301 e0e0      	LDI  R30,LOW(0)
001302 93ec      	ST   X,R30
                 _0x2020126:
001303 81ea      	LDD  R30,Y+2
001304 81fb      	LDD  R31,Y+2+1
001305 9730      	SBIW R30,0
001306 f021      	BREQ _0x2020127
001307 81aa      	LDD  R26,Y+2
001308 81bb      	LDD  R27,Y+2+1
001309 e0e0      	LDI  R30,LOW(0)
00130a 93ec      	ST   X,R30
                 _0x2020127:
00130b 81ec      	LDD  R30,Y+4
00130c efa9      	LDI  R26,LOW(_FatFs_G101)
00130d e0be      	LDI  R27,HIGH(_FatFs_G101)
00130e e0f0      	LDI  R31,0
00130f 0fee      	LSL  R30
001310 1fff      	ROL  R31
001311 0fea      	ADD  R30,R26
001312 1ffb      	ADC  R31,R27
001313 81aa      	LDD  R26,Y+2
001314 81bb      	LDD  R27,Y+2+1
001315 83a0      	STD  Z+0,R26
001316 83b1      	STD  Z+1,R27
001317 e0e0      	LDI  R30,LOW(0)
001318 8119      	LDD  R17,Y+1
001319 8108      	LDD  R16,Y+0
00131a 940c 1839 	JMP  _0x20A0001
                 ; .FEND
                 _f_open:
                 ; .FSTART _f_open
00131c 93aa      	ST   -Y,R26
00131d 97a2      	SBIW R28,34
00131e 940e 1e9f 	CALL __SAVELOCR4
001320 a5a9      	LDD  R26,Y+41
001321 a5ba      	LDD  R27,Y+41+1
001322 940e 1b07 	CALL SUBOPT_0x62
001324 a1ee      	LDD  R30,Y+38
001325 71ef      	ANDI R30,LOW(0x1F)
001326 a3ee      	STD  Y+38,R30
001327 01fe      	MOVW R30,R28
001328 96b7      	ADIW R30,39
001329 93fa      	ST   -Y,R31
00132a 93ea      	ST   -Y,R30
00132b 01fe      	MOVW R30,R28
00132c 9672      	ADIW R30,18
00132d 93fa      	ST   -Y,R31
00132e 93ea      	ST   -Y,R30
00132f a5ea      	LDD  R30,Y+42
001330 71ee      	ANDI R30,LOW(0x1E)
001331 2fae      	MOV  R26,R30
001332 dda4      	RCALL _chk_mounted
001333 2f1e      	MOV  R17,R30
001334 3010      	CPI  R17,0
001335 f009      	BREQ _0x2020128
001336 c117      	RJMP _0x20A0005
                 _0x2020128:
001337 01fe      	MOVW R30,R28
001338 9634      	ADIW R30,4
001339 a3ec      	STD  Y+36,R30
00133a a3fd      	STD  Y+36+1,R31
00133b 01fe      	MOVW R30,R28
00133c 9670      	ADIW R30,16
00133d 93fa      	ST   -Y,R31
00133e 93ea      	ST   -Y,R30
00133f a5a9      	LDD  R26,Y+41
001340 a5ba      	LDD  R27,Y+41+1
001341 dcdd      	RCALL _follow_path_G101
001342 2f1e      	MOV  R17,R30
001343 a1ee      	LDD  R30,Y+38
001344 71ec      	ANDI R30,LOW(0x1C)
001345 f409      	BRNE PC+2
001346 c09a      	RJMP _0x2020129
001347 9728      	SBIW R28,8
001348 3010      	CPI  R17,0
001349 f089      	BREQ _0x202012A
00134a 3014      	CPI  R17,4
00134b f421      	BRNE _0x202012B
00134c 01de      	MOVW R26,R28
00134d 9658      	ADIW R26,24
00134e dbde      	RCALL _dir_register_G101
00134f 2f1e      	MOV  R17,R30
                 _0x202012B:
001350 3010      	CPI  R17,0
001351 f019      	BREQ _0x202012C
001352 2fe1      	MOV  R30,R17
001353 9628      	ADIW R28,8
001354 c0f9      	RJMP _0x20A0005
                 _0x202012C:
001355 a5ee      	LDD  R30,Y+46
001356 60e8      	ORI  R30,8
001357 a7ee      	STD  Y+46,R30
                +
001358 a52a     +LDD R18 , Y + 42
001359 a53b     +LDD R19 , Y + 42 + 1
                 	__GETWRS 18,19,42
00135a c06d      	RJMP _0x202012D
                 _0x202012A:
00135b a5ee      	LDD  R30,Y+46
00135c 70e4      	ANDI R30,LOW(0x4)
00135d f019      	BREQ _0x202012E
00135e e0e8      	LDI  R30,LOW(8)
00135f 9628      	ADIW R28,8
001360 c0ed      	RJMP _0x20A0005
                 _0x202012E:
                +
001361 a52a     +LDD R18 , Y + 42
001362 a53b     +LDD R19 , Y + 42 + 1
                 	__GETWRS 18,19,42
001363 2e02      	MOV  R0,R18
001364 2a03      	OR   R0,R19
001365 f021      	BREQ _0x2020130
001366 01f9      	MOVW R30,R18
001367 85e3      	LDD  R30,Z+11
001368 71e1      	ANDI R30,LOW(0x11)
001369 f019      	BREQ _0x202012F
                 _0x2020130:
00136a e0e7      	LDI  R30,LOW(7)
00136b 9628      	ADIW R28,8
00136c c0e1      	RJMP _0x20A0005
                 _0x202012F:
00136d a5ee      	LDD  R30,Y+46
00136e 70e8      	ANDI R30,LOW(0x8)
00136f f409      	BRNE PC+2
001370 c057      	RJMP _0x2020132
001371 940e 1b0c 	CALL SUBOPT_0x63
001373 940e 1db0 	CALL __LSLD16
001375 937f      	PUSH R23
001376 936f      	PUSH R22
001377 93ff      	PUSH R31
001378 93ef      	PUSH R30
001379 940e 1b0f 	CALL SUBOPT_0x64
00137b 91af      	POP  R26
00137c 91bf      	POP  R27
00137d 918f      	POP  R24
00137e 919f      	POP  R25
00137f 940e 1b14 	CALL SUBOPT_0x65
001381 940e 1a11 	CALL SUBOPT_0x3B
001383 01f9      	MOVW R30,R18
001384 9674      	ADIW R30,20
001385 e0a0      	LDI  R26,LOW(0)
001386 e0b0      	LDI  R27,HIGH(0)
001387 83a0      	STD  Z+0,R26
001388 83b1      	STD  Z+1,R27
001389 01f9      	MOVW R30,R18
00138a 967a      	ADIW R30,26
00138b 83a0      	STD  Z+0,R26
00138c 83b1      	STD  Z+1,R27
00138d 01f9      	MOVW R30,R18
00138e 967c      	ADIW R30,28
00138f 940e 19f9 	CALL SUBOPT_0x38
001391 940e 1e6d 	CALL __PUTDZ20
001393 8da8      	LDD  R26,Y+24
001394 8db9      	LDD  R27,Y+24+1
001395 9614      	ADIW R26,4
001396 e0e1      	LDI  R30,LOW(1)
001397 93ec      	ST   X,R30
001398 8da8      	LDD  R26,Y+24
001399 8db9      	LDD  R27,Y+24+1
00139a 969e      	ADIW R26,46
00139b 940e 1941 	CALL SUBOPT_0x23
00139d 940e 1a1e 	CALL SUBOPT_0x3E
00139f 940e 1e89 	CALL __CPD10
0013a1 f0b9      	BREQ _0x2020133
0013a2 8de8      	LDD  R30,Y+24
0013a3 8df9      	LDD  R31,Y+24+1
0013a4 93fa      	ST   -Y,R31
0013a5 93ea      	ST   -Y,R30
0013a6 940e 1a6a 	CALL SUBOPT_0x4D
0013a8 d878      	RCALL _remove_chain_G101
0013a9 2f1e      	MOV  R17,R30
0013aa 3010      	CPI  R17,0
0013ab f011      	BREQ _0x2020134
0013ac 9628      	ADIW R28,8
0013ad c0a0      	RJMP _0x20A0005
                 _0x2020134:
0013ae 940e 1a1e 	CALL SUBOPT_0x3E
                +
0013b0 50e1     +SUBI R30 , LOW ( 1 )
0013b1 40f0     +SBCI R31 , HIGH ( 1 )
0013b2 4060     +SBCI R22 , BYTE3 ( 1 )
0013b3 4070     +SBCI R23 , BYTE4 ( 1 )
                 	__SUBD1N 1
                +
0013b4 8da8     +LDD R26 , Y + 24
0013b5 8db9     +LDD R27 , Y + 24 + 1
0013b6 961a     +ADIW R26 , 10
0013b7 940e 1e54+CALL __PUTDP1
                 	__PUTD1SNS 24,10
                 _0x2020133:
0013b9 8de8      	LDD  R30,Y+24
0013ba 8df9      	LDD  R31,Y+24+1
0013bb 93fa      	ST   -Y,R31
0013bc 93ea      	ST   -Y,R30
                +
0013bd 81ae     +LDD R26 , Y + 6
0013be 81bf     +LDD R27 , Y + 6 + 1
0013bf 8588     +LDD R24 , Y + 6 + 2
0013c0 8599     +LDD R25 , Y + 6 + 3
                 	__GETD2S 6
0013c1 940e 0a34 	CALL _move_window_G101
0013c3 2f1e      	MOV  R17,R30
0013c4 3010      	CPI  R17,0
0013c5 f011      	BREQ _0x2020135
0013c6 9628      	ADIW R28,8
0013c7 c086      	RJMP _0x20A0005
                 _0x2020135:
                 _0x2020132:
                 _0x202012D:
0013c8 a5ee      	LDD  R30,Y+46
0013c9 70e8      	ANDI R30,LOW(0x8)
0013ca f0a1      	BREQ _0x2020136
0013cb 01f9      	MOVW R30,R18
0013cc 963b      	ADIW R30,11
0013cd e0a0      	LDI  R26,LOW(0)
0013ce 83a0      	STD  Z+0,R26
0013cf 940e 0992 	CALL _get_fattime
0013d1 940e 1aa3 	CALL SUBOPT_0x56
                +
0013d3 01d9     +MOVW R26 , R18
0013d4 961e     +ADIW R26 , 14
0013d5 940e 1e54+CALL __PUTDP1
                 	__PUTD1RNS 18,14
0013d7 8da8      	LDD  R26,Y+24
0013d8 8db9      	LDD  R27,Y+24+1
0013d9 9614      	ADIW R26,4
0013da e0e1      	LDI  R30,LOW(1)
0013db 93ec      	ST   X,R30
0013dc a5ee      	LDD  R30,Y+46
0013dd 62e0      	ORI  R30,0x20
0013de a7ee      	STD  Y+46,R30
                 _0x2020136:
0013df 9628      	ADIW R28,8
0013e0 c019      	RJMP _0x2020137
                 _0x2020129:
0013e1 3010      	CPI  R17,0
0013e2 f011      	BREQ _0x2020138
0013e3 2fe1      	MOV  R30,R17
0013e4 c069      	RJMP _0x20A0005
                 _0x2020138:
                +
0013e5 a12a     +LDD R18 , Y + 34
0013e6 a13b     +LDD R19 , Y + 34 + 1
                 	__GETWRS 18,19,34
0013e7 2e02      	MOV  R0,R18
0013e8 2a03      	OR   R0,R19
0013e9 f021      	BREQ _0x202013A
0013ea 01f9      	MOVW R30,R18
0013eb 85e3      	LDD  R30,Z+11
0013ec 71e0      	ANDI R30,LOW(0x10)
0013ed f011      	BREQ _0x2020139
                 _0x202013A:
0013ee e0e4      	LDI  R30,LOW(4)
0013ef c05e      	RJMP _0x20A0005
                 _0x2020139:
0013f0 a1ee      	LDD  R30,Y+38
0013f1 70e2      	ANDI R30,LOW(0x2)
0013f2 f021      	BREQ _0x202013D
0013f3 01f9      	MOVW R30,R18
0013f4 85e3      	LDD  R30,Z+11
0013f5 70e1      	ANDI R30,LOW(0x1)
0013f6 f409      	BRNE _0x202013E
                 _0x202013D:
0013f7 c002      	RJMP _0x202013C
                 _0x202013E:
0013f8 e0e7      	LDI  R30,LOW(7)
0013f9 c054      	RJMP _0x20A0005
                 _0x202013C:
                 _0x2020137:
0013fa 89a8      	LDD  R26,Y+16
0013fb 89b9      	LDD  R27,Y+16+1
0013fc 969e      	ADIW R26,46
0013fd 940e 1e49 	CALL __GETD1P
                +
0013ff a5a9     +LDD R26 , Y + 41
001400 a5ba     +LDD R27 , Y + 41 + 1
001401 965a     +ADIW R26 , 26
001402 940e 1e54+CALL __PUTDP1
                 	__PUTD1SNS 41,26
001404 a1ea      	LDD  R30,Y+34
001405 a1fb      	LDD  R31,Y+34+1
                +
001406 a5a9     +LDD R26 , Y + 41
001407 a5ba     +LDD R27 , Y + 41 + 1
001408 965e     +ADIW R26 , 30
001409 93ed     +ST X + , R30
00140a 93fc     +ST X , R31
                 	__PUTW1SNS 41,30
00140b a1ee      	LDD  R30,Y+38
                +
00140c a5a9     +LDD R26 , Y + 41
00140d a5ba     +LDD R27 , Y + 41 + 1
00140e 9614     +ADIW R26 , 4
00140f 93ec     +ST X , R30
                 	__PUTB1SNS 41,4
001410 940e 1b0c 	CALL SUBOPT_0x63
001412 940e 1db0 	CALL __LSLD16
001414 937f      	PUSH R23
001415 936f      	PUSH R22
001416 93ff      	PUSH R31
001417 93ef      	PUSH R30
001418 940e 1b0f 	CALL SUBOPT_0x64
00141a 91af      	POP  R26
00141b 91bf      	POP  R27
00141c 918f      	POP  R24
00141d 919f      	POP  R25
00141e 940e 1b14 	CALL SUBOPT_0x65
                +
001420 a5a9     +LDD R26 , Y + 41
001421 a5ba     +LDD R27 , Y + 41 + 1
001422 961e     +ADIW R26 , 14
001423 940e 1e54+CALL __PUTDP1
                 	__PUTD1SNS 41,14
001425 01d9      	MOVW R26,R18
001426 965c      	ADIW R26,28
001427 940e 1e49 	CALL __GETD1P
                +
001429 a5a9     +LDD R26 , Y + 41
00142a a5ba     +LDD R27 , Y + 41 + 1
00142b 961a     +ADIW R26 , 10
00142c 940e 1e54+CALL __PUTDP1
                 	__PUTD1SNS 41,10
00142e a5a9      	LDD  R26,Y+41
00142f a5ba      	LDD  R27,Y+41+1
001430 9616      	ADIW R26,6
001431 940e 1af8 	CALL SUBOPT_0x5F
001433 a5a9      	LDD  R26,Y+41
001434 a5ba      	LDD  R27,Y+41+1
001435 9615      	ADIW R26,5
001436 efef      	LDI  R30,LOW(255)
001437 93ec      	ST   X,R30
001438 a5a9      	LDD  R26,Y+41
001439 a5ba      	LDD  R27,Y+41+1
00143a 9656      	ADIW R26,22
00143b 940e 1af8 	CALL SUBOPT_0x5F
00143d 89e8      	LDD  R30,Y+16
00143e 89f9      	LDD  R31,Y+16+1
00143f a5a9      	LDD  R26,Y+41
001440 a5ba      	LDD  R27,Y+41+1
001441 93ed      	ST   X+,R30
001442 93fc      	ST   X,R31
001443 89a8      	LDD  R26,Y+16
001444 89b9      	LDD  R27,Y+16+1
001445 9616      	ADIW R26,6
001446 940e 1e45 	CALL __GETW1P
                +
001448 a5a9     +LDD R26 , Y + 41
001449 a5ba     +LDD R27 , Y + 41 + 1
00144a 9612     +ADIW R26 , 2
00144b 93ed     +ST X + , R30
00144c 93fc     +ST X , R31
                 	__PUTW1SNS 41,2
00144d e0e0      	LDI  R30,LOW(0)
                 _0x20A0005:
00144e 940e 1ea6 	CALL __LOADLOCR4
001450 96ab      	ADIW R28,43
001451 9508      	RET
                 ; .FEND
                 _f_read:
                 ; .FSTART _f_read
001452 93ba      	ST   -Y,R27
001453 93aa      	ST   -Y,R26
001454 972e      	SBIW R28,14
001455 940e 1e9d 	CALL __SAVELOCR6
001457 8de8      	LDD  R30,Y+24
001458 8df9      	LDD  R31,Y+24+1
001459 83ee      	STD  Y+6,R30
00145a 83ff      	STD  Y+6+1,R31
00145b 89ac      	LDD  R26,Y+20
00145c 89bd      	LDD  R27,Y+20+1
00145d 940e 1b07 	CALL SUBOPT_0x62
00145f 940e 1b59 	CALL SUBOPT_0x6E
001461 940e 1b5e 	CALL SUBOPT_0x6F
001463 940e 1b63 	CALL SUBOPT_0x70
001465 f011      	BREQ _0x202013F
001466 2fe1      	MOV  R30,R17
001467 c152      	RJMP _0x20A0004
                 _0x202013F:
001468 8dea      	LDD  R30,Y+26
001469 8dfb      	LDD  R31,Y+26+1
00146a 81a4      	LDD  R26,Z+4
00146b 78a0      	ANDI R26,LOW(0x80)
00146c f011      	BREQ _0x2020140
00146d e0e2      	LDI  R30,LOW(2)
00146e c14b      	RJMP _0x20A0004
                 _0x2020140:
00146f 8dea      	LDD  R30,Y+26
001470 8dfb      	LDD  R31,Y+26+1
001471 81a4      	LDD  R26,Z+4
001472 70a1      	ANDI R26,LOW(0x1)
001473 f411      	BRNE _0x2020141
001474 e0e7      	LDI  R30,LOW(7)
001475 c144      	RJMP _0x20A0004
                 _0x2020141:
001476 8dea      	LDD  R30,Y+26
001477 8dfb      	LDD  R31,Y+26+1
                +
001478 85a2     +LDD R26 , Z + 10
001479 85b3     +LDD R27 , Z + 10 + 1
00147a 8584     +LDD R24 , Z + 10 + 2
00147b 8595     +LDD R25 , Z + 10 + 3
                 	__GETD2Z 10
00147c 939f      	PUSH R25
00147d 938f      	PUSH R24
00147e 93bf      	PUSH R27
00147f 93af      	PUSH R26
001480 940e 1b6a 	CALL SUBOPT_0x71
001482 91ef      	POP  R30
001483 91ff      	POP  R31
001484 916f      	POP  R22
001485 917f      	POP  R23
001486 940e 1d61 	CALL __SUBD12
001488 940e 1a46 	CALL SUBOPT_0x46
00148a 940e 18f4 	CALL SUBOPT_0x18
00148c 89ae      	LDD  R26,Y+22
00148d 89bf      	LDD  R27,Y+22+1
00148e 2788      	CLR  R24
00148f 2799      	CLR  R25
001490 940e 1e93 	CALL __CPD12
001492 f420      	BRSH _0x2020142
001493 85e8      	LDD  R30,Y+8
001494 85f9      	LDD  R31,Y+8+1
001495 8bee      	STD  Y+22,R30
001496 8bff      	STD  Y+22+1,R31
                 _0x2020142:
                 _0x2020144:
001497 89ee      	LDD  R30,Y+22
001498 89ff      	LDD  R31,Y+22+1
001499 9730      	SBIW R30,0
00149a f409      	BRNE PC+2
00149b c11d      	RJMP _0x2020145
00149c 940e 1b6a 	CALL SUBOPT_0x71
00149e 01fd      	MOVW R30,R26
00149f 01bc      	MOVW R22,R24
0014a0 70f1      	ANDI R31,HIGH(0x1FF)
0014a1 9730      	SBIW R30,0
0014a2 f009      	BREQ PC+2
0014a3 c0e1      	RJMP _0x2020146
0014a4 8dea      	LDD  R30,Y+26
0014a5 8dfb      	LDD  R31,Y+26+1
0014a6 8005      	LDD  R0,Z+5
0014a7 940e 1b59 	CALL SUBOPT_0x6E
0014a9 81e2      	LDD  R30,Z+2
0014aa 160e      	CP   R0,R30
0014ab f1c8      	BRLO _0x2020147
0014ac 940e 1b6a 	CALL SUBOPT_0x71
0014ae 940e 1e8d 	CALL __CPD02
0014b0 f431      	BRNE _0x2020148
0014b1 8daa      	LDD  R26,Y+26
0014b2 8dbb      	LDD  R27,Y+26+1
0014b3 961e      	ADIW R26,14
0014b4 940e 1e49 	CALL __GETD1P
0014b6 c008      	RJMP _0x2020149
                 _0x2020148:
0014b7 940e 1b59 	CALL SUBOPT_0x6E
0014b9 940e 1b5e 	CALL SUBOPT_0x6F
0014bb 940e 1b71 	CALL SUBOPT_0x72
0014bd 940e 0b06 	CALL _get_fat
                 _0x2020149:
                +
0014bf 8be8     +STD Y + 16 , R30
0014c0 8bf9     +STD Y + 16 + 1 , R31
0014c1 8b6a     +STD Y + 16 + 2 , R22
0014c2 8b7b     +STD Y + 16 + 3 , R23
                 	__PUTD1S 16
                +
0014c3 89a8     +LDD R26 , Y + 16
0014c4 89b9     +LDD R27 , Y + 16 + 1
0014c5 898a     +LDD R24 , Y + 16 + 2
0014c6 899b     +LDD R25 , Y + 16 + 3
                 	__GETD2S 16
0014c7 940e 1934 	CALL SUBOPT_0x21
0014c9 f420      	BRSH _0x202014B
0014ca 940e 1b76 	CALL SUBOPT_0x73
0014cc e0e2      	LDI  R30,LOW(2)
0014cd c0ec      	RJMP _0x20A0004
                 _0x202014B:
                +
0014ce 89a8     +LDD R26 , Y + 16
0014cf 89b9     +LDD R27 , Y + 16 + 1
0014d0 898a     +LDD R24 , Y + 16 + 2
0014d1 899b     +LDD R25 , Y + 16 + 3
                 	__GETD2S 16
0014d2 940e 19f1 	CALL SUBOPT_0x37
0014d4 f421      	BRNE _0x202014C
0014d5 940e 1b76 	CALL SUBOPT_0x73
0014d7 e0e1      	LDI  R30,LOW(1)
0014d8 c0e1      	RJMP _0x20A0004
                 _0x202014C:
0014d9 940e 1a14 	CALL SUBOPT_0x3C
                +
0014db 8daa     +LDD R26 , Y + 26
0014dc 8dbb     +LDD R27 , Y + 26 + 1
0014dd 9652     +ADIW R26 , 18
0014de 940e 1e54+CALL __PUTDP1
                 	__PUTD1SNS 26,18
0014e0 8daa      	LDD  R26,Y+26
0014e1 8dbb      	LDD  R27,Y+26+1
0014e2 9615      	ADIW R26,5
0014e3 e0e0      	LDI  R30,LOW(0)
0014e4 93ec      	ST   X,R30
                 _0x2020147:
0014e5 940e 1b59 	CALL SUBOPT_0x6E
0014e7 940e 1b5e 	CALL SUBOPT_0x6F
0014e9 940e 1b71 	CALL SUBOPT_0x72
0014eb d84f      	RCALL _clust2sect
0014ec 940e 1b7d 	CALL SUBOPT_0x74
0014ee 940e 1a55 	CALL SUBOPT_0x49
0014f0 f421      	BRNE _0x202014D
0014f1 940e 1b76 	CALL SUBOPT_0x73
0014f3 e0e2      	LDI  R30,LOW(2)
0014f4 c0c5      	RJMP _0x20A0004
                 _0x202014D:
0014f5 940e 1b82 	CALL SUBOPT_0x75
0014f7 940e 1a37 	CALL SUBOPT_0x43
0014f9 940e 1db5 	CALL __CWD1
0014fb 940e 1d57 	CALL __ADDD12
0014fd 940e 1b7d 	CALL SUBOPT_0x74
0014ff 89ae      	LDD  R26,Y+22
001500 89bf      	LDD  R27,Y+22+1
001501 940e 1b87 	CALL SUBOPT_0x76
001503 f409      	BRNE PC+2
001504 c049      	RJMP _0x202014E
001505 940e 1b82 	CALL SUBOPT_0x75
001507 0fe4      	ADD  R30,R20
001508 1ff5      	ADC  R31,R21
001509 010f      	MOVW R0,R30
00150a 940e 1b59 	CALL SUBOPT_0x6E
00150c 81e2      	LDD  R30,Z+2
00150d 01d0      	MOVW R26,R0
00150e e0f0      	LDI  R31,0
00150f 17ea      	CP   R30,R26
001510 07fb      	CPC  R31,R27
001511 f450      	BRSH _0x202014F
001512 940e 1b59 	CALL SUBOPT_0x6E
001514 81e2      	LDD  R30,Z+2
001515 e0f0      	LDI  R31,0
001516 01df      	MOVW R26,R30
001517 940e 1b82 	CALL SUBOPT_0x75
001519 1bae      	SUB  R26,R30
00151a 0bbf      	SBC  R27,R31
00151b 01ad      	MOVW R20,R26
                 _0x202014F:
00151c 940e 1b59 	CALL SUBOPT_0x6E
00151e 940e 1b8f 	CALL SUBOPT_0x77
                +
001520 85ef     +LDD R30 , Y + 15
001521 89f8     +LDD R31 , Y + 15 + 1
001522 8969     +LDD R22 , Y + 15 + 2
001523 897a     +LDD R23 , Y + 15 + 3
                 	__GETD1S 15
001524 940e 1e72 	CALL __PUTPARD1
001526 2fa4      	MOV  R26,R20
001527 940e 06f0 	CALL _disk_read
001529 30e0      	CPI  R30,0
00152a f021      	BREQ _0x2020150
00152b 940e 1b76 	CALL SUBOPT_0x73
00152d e0e1      	LDI  R30,LOW(1)
00152e c08b      	RJMP _0x20A0004
                 _0x2020150:
00152f 8dea      	LDD  R30,Y+26
001530 8dfb      	LDD  R31,Y+26+1
001531 81a4      	LDD  R26,Z+4
001532 74a0      	ANDI R26,LOW(0x40)
001533 f029      	BREQ _0x2020152
001534 940e 1b96 	CALL SUBOPT_0x78
001536 940e 1b9d 	CALL SUBOPT_0x79
001538 f008      	BRLO _0x2020153
                 _0x2020152:
001539 c00f      	RJMP _0x2020151
                 _0x2020153:
00153a 940e 1b96 	CALL SUBOPT_0x78
00153c 940e 1ba5 	CALL SUBOPT_0x7A
00153e 81ae      	LDD  R26,Y+6
00153f 81bf      	LDD  R27,Y+6+1
001540 2788      	CLR  R24
001541 2799      	CLR  R25
001542 0fea      	ADD  R30,R26
001543 1ffb      	ADC  R31,R27
001544 940e 1b5e 	CALL SUBOPT_0x6F
001546 96b0      	ADIW R30,32
001547 940e 1bae 	CALL SUBOPT_0x7B
                 _0x2020151:
001549 8daa      	LDD  R26,Y+26
00154a 8dbb      	LDD  R27,Y+26+1
00154b 940e 1bb4 	CALL SUBOPT_0x7C
00154d c057      	RJMP _0x2020143
                 _0x202014E:
00154e 8dea      	LDD  R30,Y+26
00154f 8dfb      	LDD  R31,Y+26+1
001550 81a4      	LDD  R26,Z+4
001551 74a0      	ANDI R26,LOW(0x40)
001552 f089      	BREQ _0x2020154
001553 940e 1b59 	CALL SUBOPT_0x6E
001555 940e 1bbf 	CALL SUBOPT_0x7D
001557 8ded      	LDD  R30,Y+29
001558 8dfe      	LDD  R31,Y+29+1
001559 940e 1bc7 	CALL SUBOPT_0x7E
00155b f021      	BREQ _0x2020155
00155c 940e 1b76 	CALL SUBOPT_0x73
00155e e0e1      	LDI  R30,LOW(1)
00155f c05a      	RJMP _0x20A0004
                 _0x2020155:
001560 8daa      	LDD  R26,Y+26
001561 8dbb      	LDD  R27,Y+26+1
001562 940e 1bd2 	CALL SUBOPT_0x7F
                 _0x2020154:
001564 940e 1b96 	CALL SUBOPT_0x78
001566 940e 1e93 	CALL __CPD12
001568 f079      	BREQ _0x2020156
001569 940e 1b59 	CALL SUBOPT_0x6E
00156b 940e 1bbf 	CALL SUBOPT_0x7D
                +
00156d 85ef     +LDD R30 , Y + 15
00156e 89f8     +LDD R31 , Y + 15 + 1
00156f 8969     +LDD R22 , Y + 15 + 2
001570 897a     +LDD R23 , Y + 15 + 3
                 	__GETD1S 15
001571 940e 18f9 	CALL SUBOPT_0x19
001573 f021      	BREQ _0x2020157
001574 940e 1b76 	CALL SUBOPT_0x73
001576 e0e1      	LDI  R30,LOW(1)
001577 c042      	RJMP _0x20A0004
                 _0x2020157:
                 _0x2020156:
001578 940e 1a3c 	CALL SUBOPT_0x44
                +
00157a 8daa     +LDD R26 , Y + 26
00157b 8dbb     +LDD R27 , Y + 26 + 1
00157c 9656     +ADIW R26 , 22
00157d 940e 1e54+CALL __PUTDP1
                 	__PUTD1SNS 26,22
00157f 8daa      	LDD  R26,Y+26
001580 8dbb      	LDD  R27,Y+26+1
001581 9615      	ADIW R26,5
001582 91ec      	LD   R30,X
001583 5fef      	SUBI R30,-LOW(1)
001584 93ec      	ST   X,R30
                 _0x2020146:
001585 8daa      	LDD  R26,Y+26
001586 8dbb      	LDD  R27,Y+26+1
001587 940e 1bd7 	CALL SUBOPT_0x80
001589 e0a0      	LDI  R26,LOW(512)
00158a e0b2      	LDI  R27,HIGH(512)
00158b 1bae      	SUB  R26,R30
00158c 0bbf      	SBC  R27,R31
00158d 019d      	MOVW R18,R26
00158e 89ee      	LDD  R30,Y+22
00158f 89ff      	LDD  R31,Y+22+1
001590 17e2      	CP   R30,R18
001591 07f3      	CPC  R31,R19
001592 f410      	BRSH _0x2020158
                +
001593 892e     +LDD R18 , Y + 22
001594 893f     +LDD R19 , Y + 22 + 1
                 	__GETWRS 18,19,22
                 _0x2020158:
001595 940e 1b02 	CALL SUBOPT_0x61
001597 8dac      	LDD  R26,Y+28
001598 8dbd      	LDD  R27,Y+28+1
001599 940e 1bd7 	CALL SUBOPT_0x80
00159b 8dac      	LDD  R26,Y+28
00159c 8dbd      	LDD  R27,Y+28+1
00159d 9690      	ADIW R26,32
00159e 0fea      	ADD  R30,R26
00159f 1ffb      	ADC  R31,R27
0015a0 93fa      	ST   -Y,R31
0015a1 93ea      	ST   -Y,R30
0015a2 01d9      	MOVW R26,R18
0015a3 940e 1819 	CALL _memcpy
                 _0x2020143:
0015a5 940e 1bdc 	CALL SUBOPT_0x81
0015a7 8dea      	LDD  R30,Y+26
0015a8 8dfb      	LDD  R31,Y+26+1
0015a9 940e 1be4 	CALL SUBOPT_0x82
0015ab 01d0      	MOVW R26,R0
0015ac 940e 1e54 	CALL __PUTDP1
0015ae 89ac      	LDD  R26,Y+20
0015af 89bd      	LDD  R27,Y+20+1
0015b0 940e 1bed 	CALL SUBOPT_0x83
0015b2 89ee      	LDD  R30,Y+22
0015b3 89ff      	LDD  R31,Y+22+1
0015b4 1be2      	SUB  R30,R18
0015b5 0bf3      	SBC  R31,R19
0015b6 8bee      	STD  Y+22,R30
0015b7 8bff      	STD  Y+22+1,R31
0015b8 cede      	RJMP _0x2020144
                 _0x2020145:
0015b9 e0e0      	LDI  R30,LOW(0)
                 _0x20A0004:
0015ba 940e 1ea4 	CALL __LOADLOCR6
0015bc 966c      	ADIW R28,28
0015bd 9508      	RET
                 ; .FEND
                 _f_write:
                 ; .FSTART _f_write
0015be 93ba      	ST   -Y,R27
0015bf 93aa      	ST   -Y,R26
0015c0 972a      	SBIW R28,10
0015c1 940e 1e9d 	CALL __SAVELOCR6
0015c3 89ec      	LDD  R30,Y+20
0015c4 89fd      	LDD  R31,Y+20+1
0015c5 83ee      	STD  Y+6,R30
0015c6 83ff      	STD  Y+6+1,R31
0015c7 89a8      	LDD  R26,Y+16
0015c8 89b9      	LDD  R27,Y+16+1
0015c9 940e 1b07 	CALL SUBOPT_0x62
0015cb 940e 1bf4 	CALL SUBOPT_0x84
0015cd 940e 1bf9 	CALL SUBOPT_0x85
0015cf 940e 1b63 	CALL SUBOPT_0x70
0015d1 f011      	BREQ _0x2020159
0015d2 2fe1      	MOV  R30,R17
0015d3 c193      	RJMP _0x20A0003
                 _0x2020159:
0015d4 89ee      	LDD  R30,Y+22
0015d5 89ff      	LDD  R31,Y+22+1
0015d6 81a4      	LDD  R26,Z+4
0015d7 78a0      	ANDI R26,LOW(0x80)
0015d8 f011      	BREQ _0x202015A
0015d9 e0e2      	LDI  R30,LOW(2)
0015da c18c      	RJMP _0x20A0003
                 _0x202015A:
0015db 89ee      	LDD  R30,Y+22
0015dc 89ff      	LDD  R31,Y+22+1
0015dd 81a4      	LDD  R26,Z+4
0015de 70a2      	ANDI R26,LOW(0x2)
0015df f411      	BRNE _0x202015B
0015e0 e0e7      	LDI  R30,LOW(7)
0015e1 c185      	RJMP _0x20A0003
                 _0x202015B:
0015e2 89ee      	LDD  R30,Y+22
0015e3 89ff      	LDD  R31,Y+22+1
                +
0015e4 85a2     +LDD R26 , Z + 10
0015e5 85b3     +LDD R27 , Z + 10 + 1
0015e6 8584     +LDD R24 , Z + 10 + 2
0015e7 8595     +LDD R25 , Z + 10 + 3
                 	__GETD2Z 10
0015e8 89ea      	LDD  R30,Y+18
0015e9 89fb      	LDD  R31,Y+18+1
0015ea 940e 1a83 	CALL SUBOPT_0x51
0015ec 937f      	PUSH R23
0015ed 936f      	PUSH R22
0015ee 93ff      	PUSH R31
0015ef 93ef      	PUSH R30
0015f0 940e 1bfe 	CALL SUBOPT_0x86
0015f2 91af      	POP  R26
0015f3 91bf      	POP  R27
0015f4 918f      	POP  R24
0015f5 919f      	POP  R25
0015f6 940e 1e98 	CALL __CPD21
0015f8 f418      	BRSH _0x202015C
0015f9 e0e0      	LDI  R30,LOW(0)
0015fa 8bea      	STD  Y+18,R30
0015fb 8beb      	STD  Y+18+1,R30
                 _0x202015C:
                 _0x202015E:
0015fc 89ea      	LDD  R30,Y+18
0015fd 89fb      	LDD  R31,Y+18+1
0015fe 9730      	SBIW R30,0
0015ff f409      	BRNE PC+2
001600 c14c      	RJMP _0x202015F
001601 940e 1c04 	CALL SUBOPT_0x87
001603 01fd      	MOVW R30,R26
001604 01bc      	MOVW R22,R24
001605 70f1      	ANDI R31,HIGH(0x1FF)
001606 9730      	SBIW R30,0
001607 f009      	BREQ PC+2
001608 c108      	RJMP _0x2020160
001609 89ee      	LDD  R30,Y+22
00160a 89ff      	LDD  R31,Y+22+1
00160b 8005      	LDD  R0,Z+5
00160c 940e 1bf4 	CALL SUBOPT_0x84
00160e 81e2      	LDD  R30,Z+2
00160f 160e      	CP   R0,R30
001610 f408      	BRSH PC+2
001611 c04c      	RJMP _0x2020161
001612 89ae      	LDD  R26,Y+22
001613 89bf      	LDD  R27,Y+22+1
001614 9616      	ADIW R26,6
001615 940e 1a90 	CALL SUBOPT_0x53
001617 f4d1      	BRNE _0x2020162
001618 89ae      	LDD  R26,Y+22
001619 89bf      	LDD  R27,Y+22+1
00161a 961e      	ADIW R26,14
00161b 940e 1e49 	CALL __GETD1P
00161d 940e 1b7d 	CALL SUBOPT_0x74
00161f 940e 1a55 	CALL SUBOPT_0x49
001621 f479      	BRNE _0x2020163
001622 940e 1bf4 	CALL SUBOPT_0x84
001624 93fa      	ST   -Y,R31
001625 93ea      	ST   -Y,R30
001626 940e 19f9 	CALL SUBOPT_0x38
001628 940e 0c7a 	CALL _create_chain_G101
00162a 940e 1b7d 	CALL SUBOPT_0x74
                +
00162c 89ae     +LDD R26 , Y + 22
00162d 89bf     +LDD R27 , Y + 22 + 1
00162e 961e     +ADIW R26 , 14
00162f 940e 1e54+CALL __PUTDP1
                 	__PUTD1SNS 22,14
                 _0x2020163:
001631 c00a      	RJMP _0x2020164
                 _0x2020162:
001632 940e 1bf4 	CALL SUBOPT_0x84
001634 940e 1bf9 	CALL SUBOPT_0x85
001636 940e 1b71 	CALL SUBOPT_0x72
001638 940e 0c7a 	CALL _create_chain_G101
00163a 940e 1b7d 	CALL SUBOPT_0x74
                 _0x2020164:
00163c 940e 1a55 	CALL SUBOPT_0x49
00163e f409      	BRNE _0x2020165
00163f c10d      	RJMP _0x202015F
                 _0x2020165:
001640 940e 1a37 	CALL SUBOPT_0x43
001642 940e 19e9 	CALL SUBOPT_0x36
001644 f421      	BRNE _0x2020166
001645 940e 1c0b 	CALL SUBOPT_0x88
001647 e0e2      	LDI  R30,LOW(2)
001648 c11e      	RJMP _0x20A0003
                 _0x2020166:
001649 940e 1a37 	CALL SUBOPT_0x43
00164b 940e 19f1 	CALL SUBOPT_0x37
00164d f421      	BRNE _0x2020167
00164e 940e 1c0b 	CALL SUBOPT_0x88
001650 e0e1      	LDI  R30,LOW(1)
001651 c115      	RJMP _0x20A0003
                 _0x2020167:
001652 940e 1a3c 	CALL SUBOPT_0x44
                +
001654 89ae     +LDD R26 , Y + 22
001655 89bf     +LDD R27 , Y + 22 + 1
001656 9652     +ADIW R26 , 18
001657 940e 1e54+CALL __PUTDP1
                 	__PUTD1SNS 22,18
001659 89ae      	LDD  R26,Y+22
00165a 89bf      	LDD  R27,Y+22+1
00165b 9615      	ADIW R26,5
00165c e0e0      	LDI  R30,LOW(0)
00165d 93ec      	ST   X,R30
                 _0x2020161:
00165e 89ee      	LDD  R30,Y+22
00165f 89ff      	LDD  R31,Y+22+1
001660 81a4      	LDD  R26,Z+4
001661 74a0      	ANDI R26,LOW(0x40)
001662 f089      	BREQ _0x2020168
001663 940e 1bf4 	CALL SUBOPT_0x84
001665 940e 1c12 	CALL SUBOPT_0x89
001667 8de9      	LDD  R30,Y+25
001668 8dfa      	LDD  R31,Y+25+1
001669 940e 1bc7 	CALL SUBOPT_0x7E
00166b f021      	BREQ _0x2020169
00166c 940e 1c0b 	CALL SUBOPT_0x88
00166e e0e1      	LDI  R30,LOW(1)
00166f c0f7      	RJMP _0x20A0003
                 _0x2020169:
001670 89ae      	LDD  R26,Y+22
001671 89bf      	LDD  R27,Y+22+1
001672 940e 1bd2 	CALL SUBOPT_0x7F
                 _0x2020168:
001674 940e 1bf4 	CALL SUBOPT_0x84
001676 940e 1bf9 	CALL SUBOPT_0x85
001678 940e 1b71 	CALL SUBOPT_0x72
00167a 940e 0d3b 	CALL _clust2sect
00167c 940e 1a46 	CALL SUBOPT_0x46
00167e 940e 18f4 	CALL SUBOPT_0x18
001680 940e 1e89 	CALL __CPD10
001682 f421      	BRNE _0x202016A
001683 940e 1c0b 	CALL SUBOPT_0x88
001685 e0e2      	LDI  R30,LOW(2)
001686 c0e0      	RJMP _0x20A0003
                 _0x202016A:
001687 940e 1c1a 	CALL SUBOPT_0x8A
001689 940e 192f 	CALL SUBOPT_0x20
00168b 940e 1db5 	CALL __CWD1
00168d 940e 1d57 	CALL __ADDD12
00168f 940e 1a46 	CALL SUBOPT_0x46
001691 89aa      	LDD  R26,Y+18
001692 89bb      	LDD  R27,Y+18+1
001693 940e 1b87 	CALL SUBOPT_0x76
001695 f409      	BRNE PC+2
001696 c04f      	RJMP _0x202016B
001697 940e 1c1a 	CALL SUBOPT_0x8A
001699 0fe4      	ADD  R30,R20
00169a 1ff5      	ADC  R31,R21
00169b 010f      	MOVW R0,R30
00169c 940e 1bf4 	CALL SUBOPT_0x84
00169e 81e2      	LDD  R30,Z+2
00169f 01d0      	MOVW R26,R0
0016a0 e0f0      	LDI  R31,0
0016a1 17ea      	CP   R30,R26
0016a2 07fb      	CPC  R31,R27
0016a3 f450      	BRSH _0x202016C
0016a4 940e 1bf4 	CALL SUBOPT_0x84
0016a6 81e2      	LDD  R30,Z+2
0016a7 e0f0      	LDI  R31,0
0016a8 01df      	MOVW R26,R30
0016a9 940e 1c1a 	CALL SUBOPT_0x8A
0016ab 1bae      	SUB  R26,R30
0016ac 0bbf      	SBC  R27,R31
0016ad 01ad      	MOVW R20,R26
                 _0x202016C:
0016ae 940e 1bf4 	CALL SUBOPT_0x84
0016b0 940e 1b8f 	CALL SUBOPT_0x77
                +
0016b2 85eb     +LDD R30 , Y + 11
0016b3 85fc     +LDD R31 , Y + 11 + 1
0016b4 856d     +LDD R22 , Y + 11 + 2
0016b5 857e     +LDD R23 , Y + 11 + 3
                 	__GETD1S 11
0016b6 940e 1e72 	CALL __PUTPARD1
0016b8 2fa4      	MOV  R26,R20
0016b9 940e 0754 	CALL _disk_write
0016bb 30e0      	CPI  R30,0
0016bc f021      	BREQ _0x202016D
0016bd 940e 1c0b 	CALL SUBOPT_0x88
0016bf e0e1      	LDI  R30,LOW(1)
0016c0 c0a6      	RJMP _0x20A0003
                 _0x202016D:
0016c1 940e 1c1f 	CALL SUBOPT_0x8B
0016c3 940e 1b9d 	CALL SUBOPT_0x79
0016c5 f4d8      	BRSH _0x202016E
0016c6 89ee      	LDD  R30,Y+22
0016c7 89ff      	LDD  R31,Y+22+1
0016c8 96b0      	ADIW R30,32
0016c9 940e 1bf9 	CALL SUBOPT_0x85
                +
0016cb 89a6     +LDD R26 , Z + 22
0016cc 89b7     +LDD R27 , Z + 22 + 1
0016cd 8d80     +LDD R24 , Z + 22 + 2
0016ce 8d91     +LDD R25 , Z + 22 + 3
                 	__GETD2Z 22
                +
0016cf 85ea     +LDD R30 , Y + 10
0016d0 85fb     +LDD R31 , Y + 10 + 1
0016d1 856c     +LDD R22 , Y + 10 + 2
0016d2 857d     +LDD R23 , Y + 10 + 3
                 	__GETD1S 10
0016d3 940e 1ba5 	CALL SUBOPT_0x7A
0016d5 85a8      	LDD  R26,Y+8
0016d6 85b9      	LDD  R27,Y+8+1
0016d7 2788      	CLR  R24
0016d8 2799      	CLR  R25
0016d9 0fea      	ADD  R30,R26
0016da 1ffb      	ADC  R31,R27
0016db 940e 1bae 	CALL SUBOPT_0x7B
0016dd 89ae      	LDD  R26,Y+22
0016de 89bf      	LDD  R27,Y+22+1
0016df 940e 1bd2 	CALL SUBOPT_0x7F
                 _0x202016E:
0016e1 89ae      	LDD  R26,Y+22
0016e2 89bf      	LDD  R27,Y+22+1
0016e3 940e 1bb4 	CALL SUBOPT_0x7C
0016e5 c053      	RJMP _0x202015D
                 _0x202016B:
0016e6 940e 1c1f 	CALL SUBOPT_0x8B
0016e8 940e 1e93 	CALL __CPD12
0016ea f0c9      	BREQ _0x202016F
0016eb 940e 1c04 	CALL SUBOPT_0x87
0016ed 010d      	MOVW R0,R26
0016ee 940e 1bfe 	CALL SUBOPT_0x86
0016f0 01d0      	MOVW R26,R0
0016f1 940e 1e98 	CALL __CPD21
0016f3 f458      	BRSH _0x2020171
0016f4 940e 1bf4 	CALL SUBOPT_0x84
0016f6 940e 1c12 	CALL SUBOPT_0x89
                +
0016f8 85eb     +LDD R30 , Y + 11
0016f9 85fc     +LDD R31 , Y + 11 + 1
0016fa 856d     +LDD R22 , Y + 11 + 2
0016fb 857e     +LDD R23 , Y + 11 + 3
                 	__GETD1S 11
0016fc 940e 18f9 	CALL SUBOPT_0x19
0016fe f409      	BRNE _0x2020172
                 _0x2020171:
0016ff c004      	RJMP _0x2020170
                 _0x2020172:
001700 940e 1c0b 	CALL SUBOPT_0x88
001702 e0e1      	LDI  R30,LOW(1)
001703 c063      	RJMP _0x20A0003
                 _0x2020170:
                 _0x202016F:
001704 940e 18f4 	CALL SUBOPT_0x18
                +
001706 89ae     +LDD R26 , Y + 22
001707 89bf     +LDD R27 , Y + 22 + 1
001708 9656     +ADIW R26 , 22
001709 940e 1e54+CALL __PUTDP1
                 	__PUTD1SNS 22,22
00170b 89ae      	LDD  R26,Y+22
00170c 89bf      	LDD  R27,Y+22+1
00170d 9615      	ADIW R26,5
00170e 91ec      	LD   R30,X
00170f 5fef      	SUBI R30,-LOW(1)
001710 93ec      	ST   X,R30
                 _0x2020160:
001711 89ae      	LDD  R26,Y+22
001712 89bf      	LDD  R27,Y+22+1
001713 940e 1bd7 	CALL SUBOPT_0x80
001715 e0a0      	LDI  R26,LOW(512)
001716 e0b2      	LDI  R27,HIGH(512)
001717 1bae      	SUB  R26,R30
001718 0bbf      	SBC  R27,R31
001719 019d      	MOVW R18,R26
00171a 89ea      	LDD  R30,Y+18
00171b 89fb      	LDD  R31,Y+18+1
00171c 17e2      	CP   R30,R18
00171d 07f3      	CPC  R31,R19
00171e f410      	BRSH _0x2020173
                +
00171f 892a     +LDD R18 , Y + 18
001720 893b     +LDD R19 , Y + 18 + 1
                 	__GETWRS 18,19,18
                 _0x2020173:
001721 89ae      	LDD  R26,Y+22
001722 89bf      	LDD  R27,Y+22+1
001723 940e 1bd7 	CALL SUBOPT_0x80
001725 89ae      	LDD  R26,Y+22
001726 89bf      	LDD  R27,Y+22+1
001727 9690      	ADIW R26,32
001728 0fea      	ADD  R30,R26
001729 1ffb      	ADC  R31,R27
00172a 93fa      	ST   -Y,R31
00172b 93ea      	ST   -Y,R30
00172c 85e8      	LDD  R30,Y+8
00172d 85f9      	LDD  R31,Y+8+1
00172e 93fa      	ST   -Y,R31
00172f 93ea      	ST   -Y,R30
001730 01d9      	MOVW R26,R18
001731 940e 1819 	CALL _memcpy
001733 89ae      	LDD  R26,Y+22
001734 89bf      	LDD  R27,Y+22+1
001735 9614      	ADIW R26,4
001736 91ec      	LD   R30,X
001737 64e0      	ORI  R30,0x40
001738 93ec      	ST   X,R30
                 _0x202015D:
001739 940e 1bdc 	CALL SUBOPT_0x81
00173b 89ee      	LDD  R30,Y+22
00173c 89ff      	LDD  R31,Y+22+1
00173d 940e 1be4 	CALL SUBOPT_0x82
00173f 01d0      	MOVW R26,R0
001740 940e 1e54 	CALL __PUTDP1
001742 89a8      	LDD  R26,Y+16
001743 89b9      	LDD  R27,Y+16+1
001744 940e 1bed 	CALL SUBOPT_0x83
001746 89ea      	LDD  R30,Y+18
001747 89fb      	LDD  R31,Y+18+1
001748 1be2      	SUB  R30,R18
001749 0bf3      	SBC  R31,R19
00174a 8bea      	STD  Y+18,R30
00174b 8bfb      	STD  Y+18+1,R31
00174c ceaf      	RJMP _0x202015E
                 _0x202015F:
00174d 940e 1c04 	CALL SUBOPT_0x87
00174f 010d      	MOVW R0,R26
001750 940e 1bfe 	CALL SUBOPT_0x86
001752 01d0      	MOVW R26,R0
001753 940e 1e93 	CALL __CPD12
001755 f450      	BRSH _0x2020174
001756 89ae      	LDD  R26,Y+22
001757 89bf      	LDD  R27,Y+22+1
001758 9616      	ADIW R26,6
001759 940e 1e49 	CALL __GETD1P
                +
00175b 89ae     +LDD R26 , Y + 22
00175c 89bf     +LDD R27 , Y + 22 + 1
00175d 961a     +ADIW R26 , 10
00175e 940e 1e54+CALL __PUTDP1
                 	__PUTD1SNS 22,10
                 _0x2020174:
001760 89ae      	LDD  R26,Y+22
001761 89bf      	LDD  R27,Y+22+1
001762 9614      	ADIW R26,4
001763 91ec      	LD   R30,X
001764 62e0      	ORI  R30,0x20
001765 93ec      	ST   X,R30
001766 e0e0      	LDI  R30,LOW(0)
                 _0x20A0003:
001767 940e 1ea4 	CALL __LOADLOCR6
001769 9668      	ADIW R28,24
00176a 9508      	RET
                 ; .FEND
                 _f_sync:
                 ; .FSTART _f_sync
00176b 93ba      	ST   -Y,R27
00176c 93aa      	ST   -Y,R26
00176d 9724      	SBIW R28,4
00176e 940e 1e9f 	CALL __SAVELOCR4
001770 940e 1a6f 	CALL SUBOPT_0x4E
001772 93fa      	ST   -Y,R31
001773 93ea      	ST   -Y,R30
001774 85ea      	LDD  R30,Y+10
001775 85fb      	LDD  R31,Y+10+1
001776 940e 1b63 	CALL SUBOPT_0x70
001778 f009      	BREQ PC+2
001779 c070      	RJMP _0x2020175
00177a 85e8      	LDD  R30,Y+8
00177b 85f9      	LDD  R31,Y+8+1
00177c 81a4      	LDD  R26,Z+4
00177d 72a0      	ANDI R26,LOW(0x20)
00177e f409      	BRNE PC+2
00177f c06a      	RJMP _0x2020176
001780 81a4      	LDD  R26,Z+4
001781 74a0      	ANDI R26,LOW(0x40)
001782 f0a1      	BREQ _0x2020177
001783 940e 1a6f 	CALL SUBOPT_0x4E
001785 81e1      	LDD  R30,Z+1
001786 93ea      	ST   -Y,R30
001787 85e9      	LDD  R30,Y+9
001788 85fa      	LDD  R31,Y+9+1
001789 96b0      	ADIW R30,32
00178a 93fa      	ST   -Y,R31
00178b 93ea      	ST   -Y,R30
00178c 85eb      	LDD  R30,Y+11
00178d 85fc      	LDD  R31,Y+11+1
00178e 940e 1bc7 	CALL SUBOPT_0x7E
001790 f011      	BREQ _0x2020178
001791 e0e1      	LDI  R30,LOW(1)
001792 c058      	RJMP _0x20A0002
                 _0x2020178:
001793 85a8      	LDD  R26,Y+8
001794 85b9      	LDD  R27,Y+8+1
001795 940e 1bd2 	CALL SUBOPT_0x7F
                 _0x2020177:
001797 940e 1a6f 	CALL SUBOPT_0x4E
001799 93fa      	ST   -Y,R31
00179a 93ea      	ST   -Y,R30
00179b 85ea      	LDD  R30,Y+10
00179c 85fb      	LDD  R31,Y+10+1
                +
00179d 8da2     +LDD R26 , Z + 26
00179e 8db3     +LDD R27 , Z + 26 + 1
00179f 8d84     +LDD R24 , Z + 26 + 2
0017a0 8d95     +LDD R25 , Z + 26 + 3
                 	__GETD2Z 26
0017a1 940e 0a34 	CALL _move_window_G101
0017a3 2f1e      	MOV  R17,R30
0017a4 3010      	CPI  R17,0
0017a5 f009      	BREQ PC+2
0017a6 c043      	RJMP _0x2020179
0017a7 85a8      	LDD  R26,Y+8
0017a8 85b9      	LDD  R27,Y+8+1
0017a9 965e      	ADIW R26,30
0017aa 912d      	LD   R18,X+
0017ab 913c      	LD   R19,X
0017ac 01d9      	MOVW R26,R18
0017ad 961b      	ADIW R26,11
0017ae 91ec      	LD   R30,X
0017af 62e0      	ORI  R30,0x20
0017b0 93ec      	ST   X,R30
0017b1 85a8      	LDD  R26,Y+8
0017b2 85b9      	LDD  R27,Y+8+1
0017b3 961a      	ADIW R26,10
0017b4 940e 1e49 	CALL __GETD1P
                +
0017b6 01d9     +MOVW R26 , R18
0017b7 965c     +ADIW R26 , 28
0017b8 940e 1e54+CALL __PUTDP1
                 	__PUTD1RNS 18,28
0017ba 85a8      	LDD  R26,Y+8
0017bb 85b9      	LDD  R27,Y+8+1
0017bc 961e      	ADIW R26,14
0017bd 940e 1e45 	CALL __GETW1P
                +
0017bf 01d9     +MOVW R26 , R18
0017c0 965a     +ADIW R26 , 26
0017c1 93ed     +ST X + , R30
0017c2 93fc     +ST X , R31
                 	__PUTW1RNS 18,26
0017c3 85e8      	LDD  R30,Y+8
0017c4 85f9      	LDD  R31,Y+8+1
                +
0017c5 85a6     +LDD R26 , Z + 14
0017c6 85b7     +LDD R27 , Z + 14 + 1
0017c7 8980     +LDD R24 , Z + 14 + 2
0017c8 8991     +LDD R25 , Z + 14 + 3
                 	__GETD2Z 14
0017c9 01fd      	MOVW R30,R26
0017ca 01bc      	MOVW R22,R24
0017cb 940e 1dab 	CALL __LSRD16
                +
0017cd 01d9     +MOVW R26 , R18
0017ce 9654     +ADIW R26 , 20
0017cf 93ed     +ST X + , R30
0017d0 93fc     +ST X , R31
                 	__PUTW1RNS 18,20
0017d1 940e 0992 	CALL _get_fattime
0017d3 940e 1aa3 	CALL SUBOPT_0x56
                +
0017d5 01d9     +MOVW R26 , R18
0017d6 9656     +ADIW R26 , 22
0017d7 940e 1e54+CALL __PUTDP1
                 	__PUTD1RNS 18,22
0017d9 85a8      	LDD  R26,Y+8
0017da 85b9      	LDD  R27,Y+8+1
0017db 9614      	ADIW R26,4
0017dc 91ec      	LD   R30,X
0017dd 7def      	ANDI R30,0xDF
0017de 93ec      	ST   X,R30
0017df 940e 1a6f 	CALL SUBOPT_0x4E
0017e1 9634      	ADIW R30,4
0017e2 e0a1      	LDI  R26,LOW(1)
0017e3 83a0      	STD  Z+0,R26
0017e4 940e 1a6f 	CALL SUBOPT_0x4E
0017e6 01df      	MOVW R26,R30
0017e7 940e 0a9c 	CALL _sync_G101
0017e9 2f1e      	MOV  R17,R30
                 _0x2020179:
                 _0x2020176:
                 _0x2020175:
0017ea 2fe1      	MOV  R30,R17
                 _0x20A0002:
0017eb 940e 1ea6 	CALL __LOADLOCR4
0017ed 962a      	ADIW R28,10
0017ee 9508      	RET
                 ; .FEND
                 _f_close:
                 ; .FSTART _f_close
0017ef 93ba      	ST   -Y,R27
0017f0 93aa      	ST   -Y,R26
0017f1 931a      	ST   -Y,R17
0017f2 81a9      	LDD  R26,Y+1
0017f3 81ba      	LDD  R27,Y+1+1
0017f4 df76      	RCALL _f_sync
0017f5 2f1e      	MOV  R17,R30
0017f6 3010      	CPI  R17,0
0017f7 f421      	BRNE _0x202017A
0017f8 81a9      	LDD  R26,Y+1
0017f9 81ba      	LDD  R27,Y+1+1
0017fa 940e 1b07 	CALL SUBOPT_0x62
                 _0x202017A:
0017fc 2fe1      	MOV  R30,R17
0017fd 8118      	LDD  R17,Y+0
0017fe 9623      	ADIW R28,3
0017ff 9508      	RET
                 ; .FEND
                 	#ifndef __SLEEP_DEFINED__
                 	#endif
                 
                 	.CSEG
                 
                 	.CSEG
                 _memcmp:
                 ; .FSTART _memcmp
001800 93ba      	ST   -Y,R27
001801 93aa      	ST   -Y,R26
001802 2766          clr  r22
001803 2777          clr  r23
001804 9189          ld   r24,y+
001805 9199          ld   r25,y+
001806 91e9          ld   r30,y+
001807 91f9          ld   r31,y+
001808 91a9          ld   r26,y+
001809 91b9          ld   r27,y+
                 memcmp0:
00180a 9600          adiw r24,0
00180b f029          breq memcmp1
00180c 9701          sbiw r24,1
00180d 916d          ld   r22,x+
00180e 9171          ld   r23,z+
00180f 1767          cp   r22,r23
001810 f3c9          breq memcmp0
                 memcmp1:
001811 1b67          sub  r22,r23
001812 f410          brcc memcmp2
001813 efef          ldi  r30,-1
001814 9508          ret
                 memcmp2:
001815 e0e0          ldi  r30,0
001816 f009          breq memcmp3
001817 95e3          inc  r30
                 memcmp3:
001818 9508          ret
                 ; .FEND
                 _memcpy:
                 ; .FSTART _memcpy
001819 93ba      	ST   -Y,R27
00181a 93aa      	ST   -Y,R26
00181b 8199          ldd  r25,y+1
00181c 8188          ld   r24,y
00181d 9600          adiw r24,0
00181e f041          breq memcpy1
00181f 81bd          ldd  r27,y+5
001820 81ac          ldd  r26,y+4
001821 81fb          ldd  r31,y+3
001822 81ea          ldd  r30,y+2
                 memcpy0:
001823 9161          ld   r22,z+
001824 936d          st   x+,r22
001825 9701          sbiw r24,1
001826 f7e1          brne memcpy0
                 memcpy1:
001827 81fd          ldd  r31,y+5
001828 81ec          ldd  r30,y+4
001829 9626      	ADIW R28,6
00182a 9508      	RET
                 ; .FEND
                 _memset:
                 ; .FSTART _memset
00182b 93ba      	ST   -Y,R27
00182c 93aa      	ST   -Y,R26
00182d 81b9          ldd  r27,y+1
00182e 81a8          ld   r26,y
00182f 9610          adiw r26,0
001830 f031          breq memset1
001831 81fc          ldd  r31,y+4
001832 81eb          ldd  r30,y+3
001833 816a          ldd  r22,y+2
                 memset0:
001834 9361          st   z+,r22
001835 9711          sbiw r26,1
001836 f7e9          brne memset0
                 memset1:
001837 81eb          ldd  r30,y+3
001838 81fc          ldd  r31,y+4
                 _0x20A0001:
001839 9625      	ADIW R28,5
00183a 9508      	RET
                 ; .FEND
                 
                 	.CSEG
                 
                 	.DSEG
                 _prtc_get_time:
00090b           	.BYTE 0x2
                 _prtc_get_date:
00090d           	.BYTE 0x2
                 _buffer:
00090f           	.BYTE 0x100
                 _fileName:
000a0f           	.BYTE 0xC
                 _drive:
000a1b           	.BYTE 0x232
                 _archivo:
000c4d           	.BYTE 0x220
                 _encabezado:
000e6d           	.BYTE 0x3E
                 _output:
000eab           	.BYTE 0x40
                 _aNum:
000eeb           	.BYTE 0x9
                 _status_G100:
000ef4           	.BYTE 0x1
                 _timer1_G100:
000ef5           	.BYTE 0x1
                 _timer2_G100:
000ef6           	.BYTE 0x1
                 _card_type_G100:
000ef7           	.BYTE 0x1
                 _flags_S100000C000:
000ef8           	.BYTE 0x1
                 _FatFs_G101:
000ef9           	.BYTE 0x2
                 _Fsid_G101:
000efb           	.BYTE 0x2
                 _Drive_G101:
000efd           	.BYTE 0x1
                 
                 	.CSEG
                 ;OPTIMIZER ADDED SUBROUTINE, CALLED 5 TIMES, CODE SIZE REDUCTION:5 WORDS
                 SUBOPT_0x0:
00183b e0a2      	LDI  R26,LOW(2)
00183c e0b0      	LDI  R27,0
00183d 940c 1c26 	JMP  _delay_ms
                 
                 ;OPTIMIZER ADDED SUBROUTINE, CALLED 3 TIMES, CODE SIZE REDUCTION:1 WORDS
                 SUBOPT_0x1:
00183f 940e 017f 	CALL _SendDataBitsLCD
001841 940c 017c 	JMP  _PulseEn
                 
                 ;OPTIMIZER ADDED SUBROUTINE, CALLED 2 TIMES, CODE SIZE REDUCTION:3 WORDS
                 SUBOPT_0x2:
001843 81e9      	LDD  R30,Y+1
001844 7fe0      	ANDI R30,LOW(0xF0)
001845 2f1e      	MOV  R17,R30
001846 9512      	SWAP R17
001847 701f      	ANDI R17,0xF
001848 2fa1      	MOV  R26,R17
001849 cff5      	RJMP SUBOPT_0x1
                 
                 ;OPTIMIZER ADDED SUBROUTINE, CALLED 2 TIMES, CODE SIZE REDUCTION:3 WORDS
                 SUBOPT_0x3:
00184a 81e9      	LDD  R30,Y+1
00184b 70ef      	ANDI R30,LOW(0xF)
00184c 2f1e      	MOV  R17,R30
00184d 2fa1      	MOV  R26,R17
00184e 940e 017f 	CALL _SendDataBitsLCD
001850 cfea      	RJMP SUBOPT_0x0
                 
                 ;OPTIMIZER ADDED SUBROUTINE, CALLED 2 TIMES, CODE SIZE REDUCTION:4 WORDS
                 SUBOPT_0x4:
                +
001851 81a9     +LDD R26 , Y + 1
001852 81ba     +LDD R27 , Y + 1 + 1
001853 818b     +LDD R24 , Y + 1 + 2
001854 819c     +LDD R25 , Y + 1 + 3
                 	__GETD2S 1
001855 27ff      	CLR  R31
001856 2766      	CLR  R22
001857 2777      	CLR  R23
001858 940e 1d57 	CALL __ADDD12
00185a 9508      	RET
                 
                 ;OPTIMIZER ADDED SUBROUTINE, CALLED 2 TIMES, CODE SIZE REDUCTION:7 WORDS
                 SUBOPT_0x5:
00185b 2fe1      	MOV  R30,R17
00185c e0af      	LDI  R26,LOW(_buffer)
00185d e0b9      	LDI  R27,HIGH(_buffer)
00185e e0f0      	LDI  R31,0
00185f 0fee      	LSL  R30
001860 1fff      	ROL  R31
001861 0fae      	ADD  R26,R30
001862 1fbf      	ADC  R27,R31
001863 940e 1e45 	CALL __GETW1P
001865 2fa0      	MOV  R26,R16
001866 e0b0      	LDI  R27,0
001867 9508      	RET
                 
                 ;OPTIMIZER ADDED SUBROUTINE, CALLED 2 TIMES, CODE SIZE REDUCTION:2 WORDS
                 SUBOPT_0x6:
001868 e0af      	LDI  R26,LOW(_buffer)
001869 e0b9      	LDI  R27,HIGH(_buffer)
00186a e0f0      	LDI  R31,0
00186b 0fee      	LSL  R30
00186c 1fff      	ROL  R31
00186d 0fae      	ADD  R26,R30
00186e 1fbf      	ADC  R27,R31
00186f 9508      	RET
                 
                 ;OPTIMIZER ADDED SUBROUTINE, CALLED 4 TIMES, CODE SIZE REDUCTION:12 WORDS
                 SUBOPT_0x7:
001870 940e 01c7 	CALL _EraseLCD
001872 e0e0      	LDI  R30,LOW(0)
001873 93ea      	ST   -Y,R30
001874 e0a0      	LDI  R26,LOW(0)
001875 940c 01ca 	JMP  _MoveCursor
                 
                 ;OPTIMIZER ADDED SUBROUTINE, CALLED 2 TIMES, CODE SIZE REDUCTION:1 WORDS
                 SUBOPT_0x8:
001877 940e 01b2 	CALL _StringLCD
001879 eea8      	LDI  R26,LOW(1000)
00187a e0b3      	LDI  R27,HIGH(1000)
00187b 940c 1c26 	JMP  _delay_ms
                 
                 ;OPTIMIZER ADDED SUBROUTINE, CALLED 13 TIMES, CODE SIZE REDUCTION:69 WORDS
                 SUBOPT_0x9:
00187d 2fa1      	MOV  R26,R17
00187e e0b0      	LDI  R27,0
00187f 51a5      	SUBI R26,LOW(-_aNum)
001880 4fb1      	SBCI R27,HIGH(-_aNum)
001881 2fe1      	MOV  R30,R17
001882 27ff      	CLR  R31
001883 2766      	CLR  R22
001884 2777      	CLR  R23
001885 9508      	RET
                 
                 ;OPTIMIZER ADDED SUBROUTINE, CALLED 2 TIMES, CODE SIZE REDUCTION:1 WORDS
                 SUBOPT_0xA:
001886 56e8      	SUBI R30,LOW(-_Letra0*2)
001887 4fff      	SBCI R31,HIGH(-_Letra0*2)
001888 4f6f      	SBCI R22,BYTE3(-_Letra0*2)
                +
001889 bf6b     +OUT RAMPZ , R22
00188a 91e6     +ELPM R30 , Z
                 	__GETBRPF 30
00188b 93ec      	ST   X,R30
00188c 9508      	RET
                 
                 ;OPTIMIZER ADDED SUBROUTINE, CALLED 2 TIMES, CODE SIZE REDUCTION:1 WORDS
                 SUBOPT_0xB:
00188d e8e0      	LDI  R30,LOW(128)
00188e 93e0 0061 	STS  97,R30
001890 e0e0      	LDI  R30,LOW(0)
001891 93e0 0061 	STS  97,R30
001893 9508      	RET
                 
                 ;OPTIMIZER ADDED SUBROUTINE, CALLED 5 TIMES, CODE SIZE REDUCTION:5 WORDS
                 SUBOPT_0xC:
001894 e4ed      	LDI  R30,LOW(_archivo)
001895 e0fc      	LDI  R31,HIGH(_archivo)
001896 93fa      	ST   -Y,R31
001897 93ea      	ST   -Y,R30
001898 9508      	RET
                 
                 ;OPTIMIZER ADDED SUBROUTINE, CALLED 2 TIMES, CODE SIZE REDUCTION:3 WORDS
                 SUBOPT_0xD:
001899 93fa      	ST   -Y,R31
00189a 93ea      	ST   -Y,R30
00189b e4e0      	LDI  R30,LOW(64)
00189c e0f0      	LDI  R31,HIGH(64)
00189d 93fa      	ST   -Y,R31
00189e 93ea      	ST   -Y,R30
00189f e0a7      	LDI  R26,LOW(7)
0018a0 e0b0      	LDI  R27,HIGH(7)
0018a1 9508      	RET
                 
                 ;OPTIMIZER ADDED SUBROUTINE, CALLED 2 TIMES, CODE SIZE REDUCTION:5 WORDS
                 SUBOPT_0xE:
0018a2 2da3      	MOV  R26,R3
0018a3 e0b0      	LDI  R27,0
0018a4 e0e2      	LDI  R30,LOW(2)
0018a5 e0f0      	LDI  R31,HIGH(2)
0018a6 940e 1dff 	CALL __DIVW21
0018a8 55e5      	SUBI R30,LOW(-_output)
0018a9 4ff1      	SBCI R31,HIGH(-_output)
0018aa 01bf      	MOVW R22,R30
0018ab 81e0      	LD   R30,Z
0018ac 9508      	RET
                 
                 ;OPTIMIZER ADDED SUBROUTINE, CALLED 3 TIMES, CODE SIZE REDUCTION:13 WORDS
                 SUBOPT_0xF:
0018ad 27bb      	CLR  R27
0018ae 940e 02a9 	CALL _getNum
0018b0 e1e2      	LDI  R30,LOW(18)
0018b1 e0f0      	LDI  R31,HIGH(18)
0018b2 19e9      	SUB  R30,R9
0018b3 09fa      	SBC  R31,R10
0018b4 51e5      	SUBI R30,LOW(-_aNum)
0018b5 4ff1      	SBCI R31,HIGH(-_aNum)
0018b6 81e0      	LD   R30,Z
0018b7 9508      	RET
                 
                 ;OPTIMIZER ADDED SUBROUTINE, CALLED 2 TIMES, CODE SIZE REDUCTION:5 WORDS
                 SUBOPT_0x10:
0018b8 e0b0      	LDI  R27,0
0018b9 940e 02a9 	CALL _getNum
0018bb e1e2      	LDI  R30,LOW(18)
0018bc e0f0      	LDI  R31,HIGH(18)
0018bd 19e9      	SUB  R30,R9
0018be 09fa      	SBC  R31,R10
0018bf 51e5      	SUBI R30,LOW(-_aNum)
0018c0 4ff1      	SBCI R31,HIGH(-_aNum)
0018c1 81e0      	LD   R30,Z
0018c2 9508      	RET
                 
                 ;OPTIMIZER ADDED SUBROUTINE, CALLED 3 TIMES, CODE SIZE REDUCTION:3 WORDS
                 SUBOPT_0x11:
0018c3 e0f0      	LDI  R31,0
0018c4 940e 1db5 	CALL __CWD1
0018c6 01df      	MOVW R26,R30
0018c7 01cb      	MOVW R24,R22
0018c8 9508      	RET
                 
                 ;OPTIMIZER ADDED SUBROUTINE, CALLED 5 TIMES, CODE SIZE REDUCTION:5 WORDS
                 SUBOPT_0x12:
                +
0018c9 81ea     +LDD R30 , Y + 2
0018ca 81fb     +LDD R31 , Y + 2 + 1
0018cb 816c     +LDD R22 , Y + 2 + 2
0018cc 817d     +LDD R23 , Y + 2 + 3
                 	__GETD1S 2
0018cd 9508      	RET
                 
                 ;OPTIMIZER ADDED SUBROUTINE, CALLED 3 TIMES, CODE SIZE REDUCTION:1 WORDS
                 SUBOPT_0x13:
                +
0018ce 83e9     +STD Y + 1 , R30
0018cf 83fa     +STD Y + 1 + 1 , R31
0018d0 836b     +STD Y + 1 + 2 , R22
0018d1 837c     +STD Y + 1 + 3 , R23
                 	__PUTD1S 1
0018d2 9508      	RET
                 
                 ;OPTIMIZER ADDED SUBROUTINE, CALLED 3 TIMES, CODE SIZE REDUCTION:1 WORDS
                 SUBOPT_0x14:
                +
0018d3 81ed     +LDD R30 , Y + 5
0018d4 81fe     +LDD R31 , Y + 5 + 1
0018d5 816f     +LDD R22 , Y + 5 + 2
0018d6 8578     +LDD R23 , Y + 5 + 3
                 	__GETD1S 5
0018d7 9508      	RET
                 
                 ;OPTIMIZER ADDED SUBROUTINE, CALLED 5 TIMES, CODE SIZE REDUCTION:5 WORDS
                 SUBOPT_0x15:
                +
0018d8 81a9     +LDD R26 , Y + 1
0018d9 81ba     +LDD R27 , Y + 1 + 1
0018da 818b     +LDD R24 , Y + 1 + 2
0018db 819c     +LDD R25 , Y + 1 + 3
                 	__GETD2S 1
0018dc 9508      	RET
                 
                 ;OPTIMIZER ADDED SUBROUTINE, CALLED 2 TIMES, CODE SIZE REDUCTION:13 WORDS
                 SUBOPT_0x16:
0018dd 85e9      	LDD  R30,Y+9
0018de 85fa      	LDD  R31,Y+9+1
0018df 81a1      	LDD  R26,Z+1
0018e0 93aa      	ST   -Y,R26
0018e1 85ea      	LDD  R30,Y+10
0018e2 85fb      	LDD  R31,Y+10+1
0018e3 96f2      	ADIW R30,50
0018e4 93fa      	ST   -Y,R31
0018e5 93ea      	ST   -Y,R30
                +
0018e6 81ec     +LDD R30 , Y + 4
0018e7 81fd     +LDD R31 , Y + 4 + 1
0018e8 816e     +LDD R22 , Y + 4 + 2
0018e9 817f     +LDD R23 , Y + 4 + 3
                 	__GETD1S 4
0018ea 940e 1e72 	CALL __PUTPARD1
0018ec e0a1      	LDI  R26,LOW(1)
0018ed 940c 0754 	JMP  _disk_write
                 
                 ;OPTIMIZER ADDED SUBROUTINE, CALLED 3 TIMES, CODE SIZE REDUCTION:1 WORDS
                 SUBOPT_0x17:
                +
0018ef a1a2     +LDD R26 , Z + 34
0018f0 a1b3     +LDD R27 , Z + 34 + 1
0018f1 a184     +LDD R24 , Z + 34 + 2
0018f2 a195     +LDD R25 , Z + 34 + 3
                 	__GETD2Z 34
0018f3 9508      	RET
                 
                 ;OPTIMIZER ADDED SUBROUTINE, CALLED 9 TIMES, CODE SIZE REDUCTION:13 WORDS
                 SUBOPT_0x18:
                +
0018f4 85e8     +LDD R30 , Y + 8
0018f5 85f9     +LDD R31 , Y + 8 + 1
0018f6 856a     +LDD R22 , Y + 8 + 2
0018f7 857b     +LDD R23 , Y + 8 + 3
                 	__GETD1S 8
0018f8 9508      	RET
                 
                 ;OPTIMIZER ADDED SUBROUTINE, CALLED 4 TIMES, CODE SIZE REDUCTION:9 WORDS
                 SUBOPT_0x19:
0018f9 940e 1e72 	CALL __PUTPARD1
0018fb e0a1      	LDI  R26,LOW(1)
0018fc 940e 06f0 	CALL _disk_read
0018fe 30e0      	CPI  R30,0
0018ff 9508      	RET
                 
                 ;OPTIMIZER ADDED SUBROUTINE, CALLED 3 TIMES, CODE SIZE REDUCTION:9 WORDS
                 SUBOPT_0x1A:
001900 93fa      	ST   -Y,R31
001901 93ea      	ST   -Y,R30
                +
001902 e0a0     +LDI R26 , LOW ( 0x0 )
001903 e0b0     +LDI R27 , HIGH ( 0x0 )
001904 e080     +LDI R24 , BYTE3 ( 0x0 )
001905 e090     +LDI R25 , BYTE4 ( 0x0 )
                 	__GETD2N 0x0
001906 940c 0a34 	JMP  _move_window_G101
                 
                 ;OPTIMIZER ADDED SUBROUTINE, CALLED 2 TIMES, CODE SIZE REDUCTION:2 WORDS
                 SUBOPT_0x1B:
001908 969e      	ADIW R26,46
                +
001909 e0e0     +LDI R30 , LOW ( 0x0 )
00190a e0f0     +LDI R31 , HIGH ( 0x0 )
00190b e060     +LDI R22 , BYTE3 ( 0x0 )
00190c e070     +LDI R23 , BYTE4 ( 0x0 )
                 	__GETD1N 0x0
00190d 940e 1e54 	CALL __PUTDP1
00190f 9508      	RET
                 
                 ;OPTIMIZER ADDED SUBROUTINE, CALLED 2 TIMES, CODE SIZE REDUCTION:4 WORDS
                 SUBOPT_0x1C:
001910 96f2      	ADIW R30,50
001911 93fa      	ST   -Y,R31
001912 93ea      	ST   -Y,R30
001913 e0e0      	LDI  R30,LOW(0)
001914 93ea      	ST   -Y,R30
001915 e0a0      	LDI  R26,LOW(512)
001916 e0b2      	LDI  R27,HIGH(512)
001917 940c 182b 	JMP  _memset
                 
                 ;OPTIMIZER ADDED SUBROUTINE, CALLED 2 TIMES, CODE SIZE REDUCTION:2 WORDS
                 SUBOPT_0x1D:
001919 940e 1e6d 	CALL __PUTDZ20
00191b 81e9      	LDD  R30,Y+1
00191c 81fa      	LDD  R31,Y+1+1
00191d 96f2      	ADIW R30,50
00191e 9508      	RET
                 
                 ;OPTIMIZER ADDED SUBROUTINE, CALLED 2 TIMES, CODE SIZE REDUCTION:2 WORDS
                 SUBOPT_0x1E:
00191f 940e 1e49 	CALL __GETD1P
001921 01d0      	MOVW R26,R0
001922 940e 1e54 	CALL __PUTDP1
001924 81e9      	LDD  R30,Y+1
001925 81fa      	LDD  R31,Y+1+1
001926 9508      	RET
                 
                 ;OPTIMIZER ADDED SUBROUTINE, CALLED 2 TIMES, CODE SIZE REDUCTION:2 WORDS
                 SUBOPT_0x1F:
                +
001927 89a2     +LDD R26 , Z + 18
001928 89b3     +LDD R27 , Z + 18 + 1
001929 8984     +LDD R24 , Z + 18 + 2
00192a 8995     +LDD R25 , Z + 18 + 3
                 	__GETD2Z 18
00192b 940e 1e77 	CALL __PUTPARD2
00192d e0a1      	LDI  R26,LOW(1)
00192e 9508      	RET
                 
                 ;OPTIMIZER ADDED SUBROUTINE, CALLED 10 TIMES, CODE SIZE REDUCTION:15 WORDS
                 SUBOPT_0x20:
                +
00192f 85a8     +LDD R26 , Y + 8
001930 85b9     +LDD R27 , Y + 8 + 1
001931 858a     +LDD R24 , Y + 8 + 2
001932 859b     +LDD R25 , Y + 8 + 3
                 	__GETD2S 8
001933 9508      	RET
                 
                 ;OPTIMIZER ADDED SUBROUTINE, CALLED 7 TIMES, CODE SIZE REDUCTION:27 WORDS
                 SUBOPT_0x21:
                +
001934 30a2     +CPI R26 , LOW ( 0x2 )
001935 e0e0     +LDI R30 , HIGH ( 0x2 )
001936 07be     +CPC R27 , R30
001937 e0e0     +LDI R30 , BYTE3 ( 0x2 )
001938 078e     +CPC R24 , R30
001939 e0e0     +LDI R30 , BYTE4 ( 0x2 )
00193a 079e     +CPC R25 , R30
                 	__CPD2N 0x2
00193b 9508      	RET
                 
                 ;OPTIMIZER ADDED SUBROUTINE, CALLED 3 TIMES, CODE SIZE REDUCTION:1 WORDS
                 SUBOPT_0x22:
                +
00193c e0e1     +LDI R30 , LOW ( 0x1 )
00193d e0f0     +LDI R31 , HIGH ( 0x1 )
00193e e060     +LDI R22 , BYTE3 ( 0x1 )
00193f e070     +LDI R23 , BYTE4 ( 0x1 )
                 	__GETD1N 0x1
001940 9508      	RET
                 
                 ;OPTIMIZER ADDED SUBROUTINE, CALLED 3 TIMES, CODE SIZE REDUCTION:5 WORDS
                 SUBOPT_0x23:
001941 940e 1e49 	CALL __GETD1P
                +
001943 83ec     +STD Y + 4 , R30
001944 83fd     +STD Y + 4 + 1 , R31
001945 836e     +STD Y + 4 + 2 , R22
001946 837f     +STD Y + 4 + 3 , R23
                 	__PUTD1S 4
001947 9508      	RET
                 
                 ;OPTIMIZER ADDED SUBROUTINE, CALLED 2 TIMES, CODE SIZE REDUCTION:15 WORDS
                 SUBOPT_0x24:
001948 85ec      	LDD  R30,Y+12
001949 85fd      	LDD  R31,Y+12+1
00194a 93fa      	ST   -Y,R31
00194b 93ea      	ST   -Y,R30
00194c 01d9      	MOVW R26,R18
00194d e0e0      	LDI  R30,LOW(512)
00194e e0f2      	LDI  R31,HIGH(512)
00194f 940e 1dec 	CALL __DIVW21U
                +
001951 81ae     +LDD R26 , Y + 6
001952 81bf     +LDD R27 , Y + 6 + 1
001953 8588     +LDD R24 , Y + 6 + 2
001954 8599     +LDD R25 , Y + 6 + 3
                 	__GETD2S 6
001955 2766      	CLR  R22
001956 2777      	CLR  R23
001957 940e 1d5c 	CALL __ADDD21
001959 940e 0a34 	CALL _move_window_G101
00195b 30e0      	CPI  R30,0
00195c 9508      	RET
                 
                 ;OPTIMIZER ADDED SUBROUTINE, CALLED 2 TIMES, CODE SIZE REDUCTION:2 WORDS
                 SUBOPT_0x25:
00195d 85ac      	LDD  R26,Y+12
00195e 85bd      	LDD  R27,Y+12+1
00195f 96d2      	ADIW R26,50
001960 01f9      	MOVW R30,R18
001961 70f1      	ANDI R31,HIGH(0x1FF)
001962 0fae      	ADD  R26,R30
001963 1fbf      	ADC  R27,R31
001964 9508      	RET
                 
                 ;OPTIMIZER ADDED SUBROUTINE, CALLED 2 TIMES, CODE SIZE REDUCTION:3 WORDS
                 SUBOPT_0x26:
001965 85ec      	LDD  R30,Y+12
001966 85fd      	LDD  R31,Y+12+1
001967 93fa      	ST   -Y,R31
001968 93ea      	ST   -Y,R30
                +
001969 85aa     +LDD R26 , Y + 10
00196a 85bb     +LDD R27 , Y + 10 + 1
00196b 858c     +LDD R24 , Y + 10 + 2
00196c 859d     +LDD R25 , Y + 10 + 3
                 	__GETD2S 10
00196d 9508      	RET
                 
                 ;OPTIMIZER ADDED SUBROUTINE, CALLED 2 TIMES, CODE SIZE REDUCTION:1 WORDS
                 SUBOPT_0x27:
                +
00196e e0e0     +LDI R30 , LOW ( 0x100 )
00196f e0f1     +LDI R31 , HIGH ( 0x100 )
001970 e060     +LDI R22 , BYTE3 ( 0x100 )
001971 e070     +LDI R23 , BYTE4 ( 0x100 )
                 	__GETD1N 0x100
001972 940e 1e04 	CALL __DIVD21U
001974 9508      	RET
                 
                 ;OPTIMIZER ADDED SUBROUTINE, CALLED 2 TIMES, CODE SIZE REDUCTION:4 WORDS
                 SUBOPT_0x28:
                +
001975 81ae     +LDD R26 , Y + 6
001976 81bf     +LDD R27 , Y + 6 + 1
001977 8588     +LDD R24 , Y + 6 + 2
001978 8599     +LDD R25 , Y + 6 + 3
                 	__GETD2S 6
001979 940e 1d5c 	CALL __ADDD21
00197b 940e 0a34 	CALL _move_window_G101
00197d 30e0      	CPI  R30,0
00197e 9508      	RET
                 
                 ;OPTIMIZER ADDED SUBROUTINE, CALLED 2 TIMES, CODE SIZE REDUCTION:3 WORDS
                 SUBOPT_0x29:
00197f 940e 1de6 	CALL __MULB1W2U
001981 70f1      	ANDI R31,HIGH(0x1FF)
001982 85ac      	LDD  R26,Y+12
001983 85bd      	LDD  R27,Y+12+1
001984 96d2      	ADIW R26,50
001985 0fae      	ADD  R26,R30
001986 1fbf      	ADC  R27,R31
001987 9508      	RET
                 
                 ;OPTIMIZER ADDED SUBROUTINE, CALLED 6 TIMES, CODE SIZE REDUCTION:7 WORDS
                 SUBOPT_0x2A:
001988 940e 1e45 	CALL __GETW1P
00198a 2766      	CLR  R22
00198b 2777      	CLR  R23
00198c 9508      	RET
                 
                 ;OPTIMIZER ADDED SUBROUTINE, CALLED 2 TIMES, CODE SIZE REDUCTION:1 WORDS
                 SUBOPT_0x2B:
                +
00198d e8e0     +LDI R30 , LOW ( 0x80 )
00198e e0f0     +LDI R31 , HIGH ( 0x80 )
00198f e060     +LDI R22 , BYTE3 ( 0x80 )
001990 e070     +LDI R23 , BYTE4 ( 0x80 )
                 	__GETD1N 0x80
001991 940e 1e04 	CALL __DIVD21U
001993 9508      	RET
                 
                 ;OPTIMIZER ADDED SUBROUTINE, CALLED 4 TIMES, CODE SIZE REDUCTION:3 WORDS
                 SUBOPT_0x2C:
                +
001994 efef     +LDI R30 , LOW ( 0xFFFFFFFF )
001995 efff     +LDI R31 , HIGH ( 0xFFFFFFFF )
001996 ef6f     +LDI R22 , BYTE3 ( 0xFFFFFFFF )
001997 ef7f     +LDI R23 , BYTE4 ( 0xFFFFFFFF )
                 	__GETD1N 0xFFFFFFFF
001998 9508      	RET
                 
                 ;OPTIMIZER ADDED SUBROUTINE, CALLED 4 TIMES, CODE SIZE REDUCTION:3 WORDS
                 SUBOPT_0x2D:
                +
001999 85ae     +LDD R26 , Y + 14
00199a 85bf     +LDD R27 , Y + 14 + 1
00199b 8988     +LDD R24 , Y + 14 + 2
00199c 8999     +LDD R25 , Y + 14 + 3
                 	__GETD2S 14
00199d 9508      	RET
                 
                 ;OPTIMIZER ADDED SUBROUTINE, CALLED 2 TIMES, CODE SIZE REDUCTION:14 WORDS
                 SUBOPT_0x2E:
00199e 89ea      	LDD  R30,Y+18
00199f 89fb      	LDD  R31,Y+18+1
0019a0 93fa      	ST   -Y,R31
0019a1 93ea      	ST   -Y,R30
0019a2 01d8      	MOVW R26,R16
0019a3 e0e0      	LDI  R30,LOW(512)
0019a4 e0f2      	LDI  R31,HIGH(512)
0019a5 940e 1dec 	CALL __DIVW21U
0019a7 df87      	RCALL SUBOPT_0x20
0019a8 2766      	CLR  R22
0019a9 2777      	CLR  R23
0019aa 940e 1d5c 	CALL __ADDD21
0019ac 940e 0a34 	CALL _move_window_G101
0019ae 2f5e      	MOV  R21,R30
0019af 3050      	CPI  R21,0
0019b0 9508      	RET
                 
                 ;OPTIMIZER ADDED SUBROUTINE, CALLED 2 TIMES, CODE SIZE REDUCTION:5 WORDS
                 SUBOPT_0x2F:
0019b1 89aa      	LDD  R26,Y+18
0019b2 89bb      	LDD  R27,Y+18+1
0019b3 96d2      	ADIW R26,50
0019b4 01f8      	MOVW R30,R16
0019b5 70f1      	ANDI R31,HIGH(0x1FF)
0019b6 0fea      	ADD  R30,R26
0019b7 1ffb      	ADC  R31,R27
0019b8 019f      	MOVW R18,R30
0019b9 85ee      	LDD  R30,Y+14
0019ba 70e1      	ANDI R30,LOW(0x1)
0019bb 9508      	RET
                 
                 ;OPTIMIZER ADDED SUBROUTINE, CALLED 6 TIMES, CODE SIZE REDUCTION:7 WORDS
                 SUBOPT_0x30:
                +
0019bc 85aa     +LDD R26 , Y + 10
0019bd 85bb     +LDD R27 , Y + 10 + 1
0019be 858c     +LDD R24 , Y + 10 + 2
0019bf 859d     +LDD R25 , Y + 10 + 3
                 	__GETD2S 10
0019c0 9508      	RET
                 
                 ;OPTIMIZER ADDED SUBROUTINE, CALLED 2 TIMES, CODE SIZE REDUCTION:3 WORDS
                 SUBOPT_0x31:
0019c1 89ea      	LDD  R30,Y+18
0019c2 89fb      	LDD  R31,Y+18+1
0019c3 93fa      	ST   -Y,R31
0019c4 93ea      	ST   -Y,R30
                +
0019c5 89a8     +LDD R26 , Y + 16
0019c6 89b9     +LDD R27 , Y + 16 + 1
0019c7 898a     +LDD R24 , Y + 16 + 2
0019c8 899b     +LDD R25 , Y + 16 + 3
                 	__GETD2S 16
0019c9 9508      	RET
                 
                 ;OPTIMIZER ADDED SUBROUTINE, CALLED 2 TIMES, CODE SIZE REDUCTION:3 WORDS
                 SUBOPT_0x32:
0019ca df64      	RCALL SUBOPT_0x20
0019cb 940e 1d5c 	CALL __ADDD21
0019cd 940e 0a34 	CALL _move_window_G101
0019cf 2f5e      	MOV  R21,R30
0019d0 3050      	CPI  R21,0
0019d1 9508      	RET
                 
                 ;OPTIMIZER ADDED SUBROUTINE, CALLED 2 TIMES, CODE SIZE REDUCTION:3 WORDS
                 SUBOPT_0x33:
0019d2 940e 1de6 	CALL __MULB1W2U
0019d4 70f1      	ANDI R31,HIGH(0x1FF)
0019d5 89aa      	LDD  R26,Y+18
0019d6 89bb      	LDD  R27,Y+18+1
0019d7 96d2      	ADIW R26,50
0019d8 0fea      	ADD  R30,R26
0019d9 1ffb      	ADC  R31,R27
0019da 9508      	RET
                 
                 ;OPTIMIZER ADDED SUBROUTINE, CALLED 3 TIMES, CODE SIZE REDUCTION:1 WORDS
                 SUBOPT_0x34:
                +
0019db 81ad     +LDD R26 , Y + 5
0019dc 81be     +LDD R27 , Y + 5 + 1
0019dd 818f     +LDD R24 , Y + 5 + 2
0019de 8598     +LDD R25 , Y + 5 + 3
                 	__GETD2S 5
0019df 9508      	RET
                 
                 ;OPTIMIZER ADDED SUBROUTINE, CALLED 2 TIMES, CODE SIZE REDUCTION:4 WORDS
                 SUBOPT_0x35:
0019e0 85a9      	LDD  R26,Y+9
0019e1 85ba      	LDD  R27,Y+9+1
0019e2 965e      	ADIW R26,30
0019e3 940e 1e49 	CALL __GETD1P
0019e5 dff5      	RCALL SUBOPT_0x34
0019e6 940e 1e98 	CALL __CPD21
0019e8 9508      	RET
                 
                 ;OPTIMIZER ADDED SUBROUTINE, CALLED 5 TIMES, CODE SIZE REDUCTION:17 WORDS
                 SUBOPT_0x36:
                +
0019e9 30a1     +CPI R26 , LOW ( 0x1 )
0019ea e0e0     +LDI R30 , HIGH ( 0x1 )
0019eb 07be     +CPC R27 , R30
0019ec e0e0     +LDI R30 , BYTE3 ( 0x1 )
0019ed 078e     +CPC R24 , R30
0019ee e0e0     +LDI R30 , BYTE4 ( 0x1 )
0019ef 079e     +CPC R25 , R30
                 	__CPD2N 0x1
0019f0 9508      	RET
                 
                 ;OPTIMIZER ADDED SUBROUTINE, CALLED 9 TIMES, CODE SIZE REDUCTION:37 WORDS
                 SUBOPT_0x37:
                +
0019f1 3faf     +CPI R26 , LOW ( 0xFFFFFFFF )
0019f2 efef     +LDI R30 , HIGH ( 0xFFFFFFFF )
0019f3 07be     +CPC R27 , R30
0019f4 efef     +LDI R30 , BYTE3 ( 0xFFFFFFFF )
0019f5 078e     +CPC R24 , R30
0019f6 efef     +LDI R30 , BYTE4 ( 0xFFFFFFFF )
0019f7 079e     +CPC R25 , R30
                 	__CPD2N 0xFFFFFFFF
0019f8 9508      	RET
                 
                 ;OPTIMIZER ADDED SUBROUTINE, CALLED 3 TIMES, CODE SIZE REDUCTION:1 WORDS
                 SUBOPT_0x38:
                +
0019f9 e0a0     +LDI R26 , LOW ( 0x0 )
0019fa e0b0     +LDI R27 , HIGH ( 0x0 )
0019fb e080     +LDI R24 , BYTE3 ( 0x0 )
0019fc e090     +LDI R25 , BYTE4 ( 0x0 )
                 	__GETD2N 0x0
0019fd 9508      	RET
                 
                 ;OPTIMIZER ADDED SUBROUTINE, CALLED 2 TIMES, CODE SIZE REDUCTION:1 WORDS
                 SUBOPT_0x39:
                +
0019fe 85a6     +LDD R26 , Z + 14
0019ff 85b7     +LDD R27 , Z + 14 + 1
001a00 8980     +LDD R24 , Z + 14 + 2
001a01 8991     +LDD R25 , Z + 14 + 3
                 	__GETD2Z 14
001a02 cfee      	RJMP SUBOPT_0x37
                 
                 ;OPTIMIZER ADDED SUBROUTINE, CALLED 2 TIMES, CODE SIZE REDUCTION:8 WORDS
                 SUBOPT_0x3A:
001a03 85a9      	LDD  R26,Y+9
001a04 85ba      	LDD  R27,Y+9+1
001a05 961e      	ADIW R26,14
001a06 940e 1e4f 	CALL __GETD1P_INC
                +
001a08 5fef     +SUBI R30 , LOW ( - 1 )
001a09 4fff     +SBCI R31 , HIGH ( - 1 )
001a0a 4f6f     +SBCI R22 , BYTE3 ( - 1 )
001a0b 4f7f     +SBCI R23 , BYTE4 ( - 1 )
                 	__SUBD1N -1
001a0c 940e 1e59 	CALL __PUTDP1_DEC
001a0e 85a9      	LDD  R26,Y+9
001a0f 85ba      	LDD  R27,Y+9+1
001a10 9508      	RET
                 
                 ;OPTIMIZER ADDED SUBROUTINE, CALLED 3 TIMES, CODE SIZE REDUCTION:1 WORDS
                 SUBOPT_0x3B:
001a11 940e 1e68 	CALL __PUTD1S0
001a13 9508      	RET
                 
                 ;OPTIMIZER ADDED SUBROUTINE, CALLED 4 TIMES, CODE SIZE REDUCTION:3 WORDS
                 SUBOPT_0x3C:
                +
001a14 89e8     +LDD R30 , Y + 16
001a15 89f9     +LDD R31 , Y + 16 + 1
001a16 896a     +LDD R22 , Y + 16 + 2
001a17 897b     +LDD R23 , Y + 16 + 3
                 	__GETD1S 16
001a18 9508      	RET
                 
                 ;OPTIMIZER ADDED SUBROUTINE, CALLED 9 TIMES, CODE SIZE REDUCTION:13 WORDS
                 SUBOPT_0x3D:
                +
001a19 81ac     +LDD R26 , Y + 4
001a1a 81bd     +LDD R27 , Y + 4 + 1
001a1b 818e     +LDD R24 , Y + 4 + 2
001a1c 819f     +LDD R25 , Y + 4 + 3
                 	__GETD2S 4
001a1d 9508      	RET
                 
                 ;OPTIMIZER ADDED SUBROUTINE, CALLED 6 TIMES, CODE SIZE REDUCTION:7 WORDS
                 SUBOPT_0x3E:
001a1e 940e 1e5e 	CALL __GETD1S0
001a20 9508      	RET
                 
                 ;OPTIMIZER ADDED SUBROUTINE, CALLED 6 TIMES, CODE SIZE REDUCTION:7 WORDS
                 SUBOPT_0x3F:
                +
001a21 83ec     +STD Y + 4 , R30
001a22 83fd     +STD Y + 4 + 1 , R31
001a23 836e     +STD Y + 4 + 2 , R22
001a24 837f     +STD Y + 4 + 3 , R23
                 	__PUTD1S 4
001a25 9508      	RET
                 
                 ;OPTIMIZER ADDED SUBROUTINE, CALLED 4 TIMES, CODE SIZE REDUCTION:3 WORDS
                 SUBOPT_0x40:
001a26 89ec      	LDD  R30,Y+20
001a27 89fd      	LDD  R31,Y+20+1
001a28 93fa      	ST   -Y,R31
001a29 93ea      	ST   -Y,R30
001a2a 9508      	RET
                 
                 ;OPTIMIZER ADDED SUBROUTINE, CALLED 3 TIMES, CODE SIZE REDUCTION:1 WORDS
                 SUBOPT_0x41:
                +
001a2b 89aa     +LDD R26 , Y + 18
001a2c 89bb     +LDD R27 , Y + 18 + 1
001a2d 898c     +LDD R24 , Y + 18 + 2
001a2e 899d     +LDD R25 , Y + 18 + 3
                 	__GETD2S 18
001a2f 9508      	RET
                 
                 ;OPTIMIZER ADDED SUBROUTINE, CALLED 2 TIMES, CODE SIZE REDUCTION:1 WORDS
                 SUBOPT_0x42:
001a30 940e 0b06 	CALL _get_fat
                +
001a32 87ec     +STD Y + 12 , R30
001a33 87fd     +STD Y + 12 + 1 , R31
001a34 876e     +STD Y + 12 + 2 , R22
001a35 877f     +STD Y + 12 + 3 , R23
                 	__PUTD1S 12
001a36 9508      	RET
                 
                 ;OPTIMIZER ADDED SUBROUTINE, CALLED 7 TIMES, CODE SIZE REDUCTION:9 WORDS
                 SUBOPT_0x43:
                +
001a37 85ac     +LDD R26 , Y + 12
001a38 85bd     +LDD R27 , Y + 12 + 1
001a39 858e     +LDD R24 , Y + 12 + 2
001a3a 859f     +LDD R25 , Y + 12 + 3
                 	__GETD2S 12
001a3b 9508      	RET
                 
                 ;OPTIMIZER ADDED SUBROUTINE, CALLED 11 TIMES, CODE SIZE REDUCTION:17 WORDS
                 SUBOPT_0x44:
                +
001a3c 85ec     +LDD R30 , Y + 12
001a3d 85fd     +LDD R31 , Y + 12 + 1
001a3e 856e     +LDD R22 , Y + 12 + 2
001a3f 857f     +LDD R23 , Y + 12 + 3
                 	__GETD1S 12
001a40 9508      	RET
                 
                 ;OPTIMIZER ADDED SUBROUTINE, CALLED 7 TIMES, CODE SIZE REDUCTION:9 WORDS
                 SUBOPT_0x45:
                +
001a41 81ec     +LDD R30 , Y + 4
001a42 81fd     +LDD R31 , Y + 4 + 1
001a43 816e     +LDD R22 , Y + 4 + 2
001a44 817f     +LDD R23 , Y + 4 + 3
                 	__GETD1S 4
001a45 9508      	RET
                 
                 ;OPTIMIZER ADDED SUBROUTINE, CALLED 6 TIMES, CODE SIZE REDUCTION:7 WORDS
                 SUBOPT_0x46:
                +
001a46 87e8     +STD Y + 8 , R30
001a47 87f9     +STD Y + 8 + 1 , R31
001a48 876a     +STD Y + 8 + 2 , R22
001a49 877b     +STD Y + 8 + 3 , R23
                 	__PUTD1S 8
001a4a 9508      	RET
                 
                 ;OPTIMIZER ADDED SUBROUTINE, CALLED 2 TIMES, CODE SIZE REDUCTION:1 WORDS
                 SUBOPT_0x47:
001a4b dff5      	RCALL SUBOPT_0x45
001a4c dee2      	RCALL SUBOPT_0x20
001a4d 940e 1e93 	CALL __CPD12
001a4f 9508      	RET
                 
                 ;OPTIMIZER ADDED SUBROUTINE, CALLED 8 TIMES, CODE SIZE REDUCTION:11 WORDS
                 SUBOPT_0x48:
                +
001a50 e0e0     +LDI R30 , LOW ( 0x0 )
001a51 e0f0     +LDI R31 , HIGH ( 0x0 )
001a52 e060     +LDI R22 , BYTE3 ( 0x0 )
001a53 e070     +LDI R23 , BYTE4 ( 0x0 )
                 	__GETD1N 0x0
001a54 9508      	RET
                 
                 ;OPTIMIZER ADDED SUBROUTINE, CALLED 4 TIMES, CODE SIZE REDUCTION:3 WORDS
                 SUBOPT_0x49:
001a55 dfe6      	RCALL SUBOPT_0x44
001a56 940e 1e89 	CALL __CPD10
001a58 9508      	RET
                 
                 ;OPTIMIZER ADDED SUBROUTINE, CALLED 5 TIMES, CODE SIZE REDUCTION:5 WORDS
                 SUBOPT_0x4A:
                +
001a59 89ea     +LDD R30 , Y + 18
001a5a 89fb     +LDD R31 , Y + 18 + 1
001a5b 896c     +LDD R22 , Y + 18 + 2
001a5c 897d     +LDD R23 , Y + 18 + 3
                 	__GETD1S 18
001a5d 9508      	RET
                 
                 ;OPTIMIZER ADDED SUBROUTINE, CALLED 3 TIMES, CODE SIZE REDUCTION:1 WORDS
                 SUBOPT_0x4B:
001a5e 940e 1e7c 	CALL __SWAPD12
001a60 940e 1d61 	CALL __SUBD12
001a62 9508      	RET
                 
                 ;OPTIMIZER ADDED SUBROUTINE, CALLED 2 TIMES, CODE SIZE REDUCTION:1 WORDS
                 SUBOPT_0x4C:
001a63 940e 1e49 	CALL __GETD1P
                +
001a65 83ea     +STD Y + 2 , R30
001a66 83fb     +STD Y + 2 + 1 , R31
001a67 836c     +STD Y + 2 + 2 , R22
001a68 837d     +STD Y + 2 + 3 , R23
                 	__PUTD1S 2
001a69 9508      	RET
                 
                 ;OPTIMIZER ADDED SUBROUTINE, CALLED 6 TIMES, CODE SIZE REDUCTION:7 WORDS
                 SUBOPT_0x4D:
                +
001a6a 81aa     +LDD R26 , Y + 2
001a6b 81bb     +LDD R27 , Y + 2 + 1
001a6c 818c     +LDD R24 , Y + 2 + 2
001a6d 819d     +LDD R25 , Y + 2 + 3
                 	__GETD2S 2
001a6e 9508      	RET
                 
                 ;OPTIMIZER ADDED SUBROUTINE, CALLED 15 TIMES, CODE SIZE REDUCTION:25 WORDS
                 SUBOPT_0x4E:
001a6f 85a8      	LDD  R26,Y+8
001a70 85b9      	LDD  R27,Y+8+1
001a71 940e 1e45 	CALL __GETW1P
001a73 9508      	RET
                 
                 ;OPTIMIZER ADDED SUBROUTINE, CALLED 2 TIMES, CODE SIZE REDUCTION:3 WORDS
                 SUBOPT_0x4F:
001a74 967e      	ADIW R30,30
001a75 01df      	MOVW R26,R30
001a76 940e 1e49 	CALL __GETD1P
001a78 dff1      	RCALL SUBOPT_0x4D
001a79 940e 1e98 	CALL __CPD21
001a7b 9508      	RET
                 
                 ;OPTIMIZER ADDED SUBROUTINE, CALLED 2 TIMES, CODE SIZE REDUCTION:5 WORDS
                 SUBOPT_0x50:
001a7c de4c      	RCALL SUBOPT_0x12
                +
001a7d 85a8     +LDD R26 , Y + 8
001a7e 85b9     +LDD R27 , Y + 8 + 1
001a7f 961a     +ADIW R26 , 10
001a80 940e 1e54+CALL __PUTDP1
                 	__PUTD1SNS 8,10
001a82 cfec      	RJMP SUBOPT_0x4E
                 
                 ;OPTIMIZER ADDED SUBROUTINE, CALLED 7 TIMES, CODE SIZE REDUCTION:9 WORDS
                 SUBOPT_0x51:
001a83 2766      	CLR  R22
001a84 2777      	CLR  R23
001a85 940e 1d57 	CALL __ADDD12
001a87 9508      	RET
                 
                 ;OPTIMIZER ADDED SUBROUTINE, CALLED 2 TIMES, CODE SIZE REDUCTION:2 WORDS
                 SUBOPT_0x52:
001a88 70ef      	ANDI R30,LOW(0xF)
001a89 70f0      	ANDI R31,HIGH(0xF)
001a8a 0fee      	LSL  R30
001a8b 940e 1d94 	CALL __LSLW4
001a8d 0fea      	ADD  R30,R26
001a8e 1ffb      	ADC  R31,R27
001a8f 9508      	RET
                 
                 ;OPTIMIZER ADDED SUBROUTINE, CALLED 3 TIMES, CODE SIZE REDUCTION:1 WORDS
                 SUBOPT_0x53:
001a90 940e 1e49 	CALL __GETD1P
001a92 940e 1e89 	CALL __CPD10
001a94 9508      	RET
                 
                 ;OPTIMIZER ADDED SUBROUTINE, CALLED 15 TIMES, CODE SIZE REDUCTION:25 WORDS
                 SUBOPT_0x54:
001a95 85a9      	LDD  R26,Y+9
001a96 85ba      	LDD  R27,Y+9+1
001a97 940e 1e45 	CALL __GETW1P
001a99 9508      	RET
                 
                 ;OPTIMIZER ADDED SUBROUTINE, CALLED 2 TIMES, CODE SIZE REDUCTION:3 WORDS
                 SUBOPT_0x55:
001a9a 93fa      	ST   -Y,R31
001a9b 93ea      	ST   -Y,R30
001a9c 85eb      	LDD  R30,Y+11
001a9d 85fc      	LDD  R31,Y+11+1
                +
001a9e 85a2     +LDD R26 , Z + 10
001a9f 85b3     +LDD R27 , Z + 10 + 1
001aa0 8584     +LDD R24 , Z + 10 + 2
001aa1 8595     +LDD R25 , Z + 10 + 3
                 	__GETD2Z 10
001aa2 9508      	RET
                 
                 ;OPTIMIZER ADDED SUBROUTINE, CALLED 3 TIMES, CODE SIZE REDUCTION:1 WORDS
                 SUBOPT_0x56:
001aa3 df7d      	RCALL SUBOPT_0x3F
001aa4 cf9c      	RJMP SUBOPT_0x45
                 
                 ;OPTIMIZER ADDED SUBROUTINE, CALLED 2 TIMES, CODE SIZE REDUCTION:3 WORDS
                 SUBOPT_0x57:
001aa5 93fa      	ST   -Y,R31
001aa6 93ea      	ST   -Y,R30
                +
001aa7 81ae     +LDD R26 , Y + 6
001aa8 81bf     +LDD R27 , Y + 6 + 1
001aa9 8588     +LDD R24 , Y + 6 + 2
001aaa 8599     +LDD R25 , Y + 6 + 3
                 	__GETD2S 6
001aab 940c 0d3b 	JMP  _clust2sect
                 
                 ;OPTIMIZER ADDED SUBROUTINE, CALLED 2 TIMES, CODE SIZE REDUCTION:9 WORDS
                 SUBOPT_0x58:
001aad 93ba      	ST   -Y,R27
001aae 93aa      	ST   -Y,R26
001aaf 940e 1e9f 	CALL __SAVELOCR4
001ab1 81ec      	LDD  R30,Y+4
001ab2 81fd      	LDD  R31,Y+4+1
001ab3 93fa      	ST   -Y,R31
001ab4 93ea      	ST   -Y,R30
001ab5 e0a0      	LDI  R26,LOW(0)
001ab6 e0b0      	LDI  R27,0
001ab7 940e 0d73 	CALL _dir_seek_G101
001ab9 2f1e      	MOV  R17,R30
001aba 3010      	CPI  R17,0
001abb 9508      	RET
                 
                 ;OPTIMIZER ADDED SUBROUTINE, CALLED 3 TIMES, CODE SIZE REDUCTION:25 WORDS
                 SUBOPT_0x59:
001abc 81ac      	LDD  R26,Y+4
001abd 81bd      	LDD  R27,Y+4+1
001abe 940e 1e45 	CALL __GETW1P
001ac0 93fa      	ST   -Y,R31
001ac1 93ea      	ST   -Y,R30
001ac2 81ee      	LDD  R30,Y+6
001ac3 81ff      	LDD  R31,Y+6+1
                +
001ac4 85a6     +LDD R26 , Z + 14
001ac5 85b7     +LDD R27 , Z + 14 + 1
001ac6 8980     +LDD R24 , Z + 14 + 2
001ac7 8991     +LDD R25 , Z + 14 + 3
                 	__GETD2Z 14
001ac8 940e 0a34 	CALL _move_window_G101
001aca 2f1e      	MOV  R17,R30
001acb 3010      	CPI  R17,0
001acc 9508      	RET
                 
                 ;OPTIMIZER ADDED SUBROUTINE, CALLED 2 TIMES, CODE SIZE REDUCTION:5 WORDS
                 SUBOPT_0x5A:
001acd 933a      	ST   -Y,R19
001ace 932a      	ST   -Y,R18
001acf 81ee      	LDD  R30,Y+6
001ad0 81ff      	LDD  R31,Y+6+1
001ad1 89a4      	LDD  R26,Z+20
001ad2 89b5      	LDD  R27,Z+21
001ad3 93ba      	ST   -Y,R27
001ad4 93aa      	ST   -Y,R26
001ad5 e0ab      	LDI  R26,LOW(11)
001ad6 e0b0      	LDI  R27,0
001ad7 9508      	RET
                 
                 ;OPTIMIZER ADDED SUBROUTINE, CALLED 3 TIMES, CODE SIZE REDUCTION:1 WORDS
                 SUBOPT_0x5B:
001ad8 85e8      	LDD  R30,Y+8
001ad9 85f9      	LDD  R31,Y+8+1
001ada 81ae      	LDD  R26,Y+6
001adb 81bf      	LDD  R27,Y+6+1
001adc 9508      	RET
                 
                 ;OPTIMIZER ADDED SUBROUTINE, CALLED 2 TIMES, CODE SIZE REDUCTION:6 WORDS
                 SUBOPT_0x5C:
001add 85e8      	LDD  R30,Y+8
001ade 85f9      	LDD  R31,Y+8+1
001adf 9631      	ADIW R30,1
001ae0 87e8      	STD  Y+8,R30
001ae1 87f9      	STD  Y+8+1,R31
001ae2 9731      	SBIW R30,1
001ae3 81ae      	LDD  R26,Y+6
001ae4 81bf      	LDD  R27,Y+6+1
001ae5 0fae      	ADD  R26,R30
001ae6 1fbf      	ADC  R27,R31
001ae7 910c      	LD   R16,X
001ae8 9508      	RET
                 
                 ;OPTIMIZER ADDED SUBROUTINE, CALLED 3 TIMES, CODE SIZE REDUCTION:5 WORDS
                 SUBOPT_0x5D:
001ae9 2fe2      	MOV  R30,R18
001aea 5f2f      	SUBI R18,-1
001aeb e0f0      	LDI  R31,0
001aec 0fe4      	ADD  R30,R20
001aed 1ff5      	ADC  R31,R21
001aee 8300      	ST   Z,R16
001aef 9508      	RET
                 
                 ;OPTIMIZER ADDED SUBROUTINE, CALLED 2 TIMES, CODE SIZE REDUCTION:2 WORDS
                 SUBOPT_0x5E:
001af0 0fea      	ADD  R30,R26
001af1 1ffb      	ADC  R31,R27
001af2 85ab      	LDD  R26,Y+11
001af3 85bc      	LDD  R27,Y+11+1
001af4 93ed      	ST   X+,R30
001af5 93fc      	ST   X,R31
001af6 3201      	CPI  R16,33
001af7 9508      	RET
                 
                 ;OPTIMIZER ADDED SUBROUTINE, CALLED 4 TIMES, CODE SIZE REDUCTION:3 WORDS
                 SUBOPT_0x5F:
001af8 df57      	RCALL SUBOPT_0x48
001af9 940e 1e54 	CALL __PUTDP1
001afb 9508      	RET
                 
                 ;OPTIMIZER ADDED SUBROUTINE, CALLED 2 TIMES, CODE SIZE REDUCTION:1 WORDS
                 SUBOPT_0x60:
                +
001afc 81ae     +LDD R26 , Y + 6
001afd 81bf     +LDD R27 , Y + 6 + 1
001afe 9616     +ADIW R26 , 6
001aff 940e 1e54+CALL __PUTDP1
                 	__PUTD1SNS 6,6
001b01 9508      	RET
                 
                 ;OPTIMIZER ADDED SUBROUTINE, CALLED 5 TIMES, CODE SIZE REDUCTION:5 WORDS
                 SUBOPT_0x61:
001b02 81ee      	LDD  R30,Y+6
001b03 81ff      	LDD  R31,Y+6+1
001b04 93fa      	ST   -Y,R31
001b05 93ea      	ST   -Y,R30
001b06 9508      	RET
                 
                 ;OPTIMIZER ADDED SUBROUTINE, CALLED 5 TIMES, CODE SIZE REDUCTION:5 WORDS
                 SUBOPT_0x62:
001b07 e0e0      	LDI  R30,LOW(0)
001b08 e0f0      	LDI  R31,HIGH(0)
001b09 93ed      	ST   X+,R30
001b0a 93fc      	ST   X,R31
001b0b 9508      	RET
                 
                 ;OPTIMIZER ADDED SUBROUTINE, CALLED 3 TIMES, CODE SIZE REDUCTION:1 WORDS
                 SUBOPT_0x63:
001b0c 01d9      	MOVW R26,R18
001b0d 9654      	ADIW R26,20
001b0e ce79      	RJMP SUBOPT_0x2A
                 
                 ;OPTIMIZER ADDED SUBROUTINE, CALLED 3 TIMES, CODE SIZE REDUCTION:1 WORDS
                 SUBOPT_0x64:
001b0f 01d9      	MOVW R26,R18
001b10 965a      	ADIW R26,26
001b11 940e 1e45 	CALL __GETW1P
001b13 9508      	RET
                 
                 ;OPTIMIZER ADDED SUBROUTINE, CALLED 3 TIMES, CODE SIZE REDUCTION:1 WORDS
                 SUBOPT_0x65:
001b14 2766      	CLR  R22
001b15 2777      	CLR  R23
001b16 940e 1d6b 	CALL __ORD12
001b18 9508      	RET
                 
                 ;OPTIMIZER ADDED SUBROUTINE, CALLED 2 TIMES, CODE SIZE REDUCTION:4 WORDS
                 SUBOPT_0x66:
001b19 96f2      	ADIW R30,50
001b1a 50e2      	SUBI R30,LOW(-510)
001b1b 4ffe      	SBCI R31,HIGH(-510)
001b1c 01df      	MOVW R26,R30
001b1d 940e 1e45 	CALL __GETW1P
001b1f 35e5      	CPI  R30,LOW(0xAA55)
001b20 eaaa      	LDI  R26,HIGH(0xAA55)
001b21 07fa      	CPC  R31,R26
001b22 9508      	RET
                 
                 ;OPTIMIZER ADDED SUBROUTINE, CALLED 2 TIMES, CODE SIZE REDUCTION:8 WORDS
                 SUBOPT_0x67:
001b23 940e 1e49 	CALL __GETD1P
                +
001b25 7fef     +ANDI R30 , LOW ( 0xFFFFFF )
001b26 7fff     +ANDI R31 , HIGH ( 0xFFFFFF )
001b27 7f6f     +ANDI R22 , BYTE3 ( 0xFFFFFF )
001b28 7070     +ANDI R23 , BYTE4 ( 0xFFFFFF )
                 	__ANDD1N 0xFFFFFF
                +
001b29 34e6     +CPI R30 , LOW ( 0x544146 )
001b2a e4a1     +LDI R26 , HIGH ( 0x544146 )
001b2b 07fa     +CPC R31 , R26
001b2c e5a4     +LDI R26 , BYTE3 ( 0x544146 )
001b2d 076a     +CPC R22 , R26
001b2e e0a0     +LDI R26 , BYTE4 ( 0x544146 )
001b2f 077a     +CPC R23 , R26
                 	__CPD1N 0x544146
001b30 9508      	RET
                 
                 ;OPTIMIZER ADDED SUBROUTINE, CALLED 2 TIMES, CODE SIZE REDUCTION:2 WORDS
                 SUBOPT_0x68:
001b31 efa9      	LDI  R26,LOW(_FatFs_G101)
001b32 e0be      	LDI  R27,HIGH(_FatFs_G101)
001b33 e0f0      	LDI  R31,0
001b34 0fee      	LSL  R30
001b35 1fff      	ROL  R31
001b36 0fae      	ADD  R26,R30
001b37 1fbf      	ADC  R27,R31
001b38 9508      	RET
                 
                 ;OPTIMIZER ADDED SUBROUTINE, CALLED 3 TIMES, CODE SIZE REDUCTION:1 WORDS
                 SUBOPT_0x69:
                +
001b39 8bea     +STD Y + 18 , R30
001b3a 8bfb     +STD Y + 18 + 1 , R31
001b3b 8b6c     +STD Y + 18 + 2 , R22
001b3c 8b7d     +STD Y + 18 + 3 , R23
                 	__PUTD1S 18
001b3d 9508      	RET
                 
                 ;OPTIMIZER ADDED SUBROUTINE, CALLED 2 TIMES, CODE SIZE REDUCTION:1 WORDS
                 SUBOPT_0x6A:
001b3e 81ae      	LDD  R26,Y+6
001b3f 81bf      	LDD  R27,Y+6+1
001b40 5ca0      	SUBI R26,LOW(-64)
001b41 4fbf      	SBCI R27,HIGH(-64)
001b42 940e 1e45 	CALL __GETW1P
001b44 9508      	RET
                 
                 ;OPTIMIZER ADDED SUBROUTINE, CALLED 2 TIMES, CODE SIZE REDUCTION:1 WORDS
                 SUBOPT_0x6B:
                +
001b45 89ae     +LDD R26 , Y + 22
001b46 89bf     +LDD R27 , Y + 22 + 1
001b47 8d88     +LDD R24 , Y + 22 + 2
001b48 8d99     +LDD R25 , Y + 22 + 3
                 	__GETD2S 22
001b49 cf39      	RJMP SUBOPT_0x51
                 
                 ;OPTIMIZER ADDED SUBROUTINE, CALLED 2 TIMES, CODE SIZE REDUCTION:2 WORDS
                 SUBOPT_0x6C:
001b4a 81ee      	LDD  R30,Y+6
001b4b 81ff      	LDD  R31,Y+6+1
001b4c 85a0      	LDD  R26,Z+8
001b4d 85b1      	LDD  R27,Z+9
001b4e 01fd      	MOVW R30,R26
001b4f 940e 1d9d 	CALL __LSRW4
001b51 9508      	RET
                 
                 ;OPTIMIZER ADDED SUBROUTINE, CALLED 2 TIMES, CODE SIZE REDUCTION:3 WORDS
                 SUBOPT_0x6D:
001b52 81ee      	LDD  R30,Y+6
001b53 81ff      	LDD  R31,Y+6+1
001b54 dd9a      	RCALL SUBOPT_0x17
001b55 df03      	RCALL SUBOPT_0x4A
001b56 940e 1d57 	CALL __ADDD12
001b58 9508      	RET
                 
                 ;OPTIMIZER ADDED SUBROUTINE, CALLED 9 TIMES, CODE SIZE REDUCTION:13 WORDS
                 SUBOPT_0x6E:
001b59 8daa      	LDD  R26,Y+26
001b5a 8dbb      	LDD  R27,Y+26+1
001b5b 940e 1e45 	CALL __GETW1P
001b5d 9508      	RET
                 
                 ;OPTIMIZER ADDED SUBROUTINE, CALLED 4 TIMES, CODE SIZE REDUCTION:3 WORDS
                 SUBOPT_0x6F:
001b5e 93fa      	ST   -Y,R31
001b5f 93ea      	ST   -Y,R30
001b60 8dec      	LDD  R30,Y+28
001b61 8dfd      	LDD  R31,Y+28+1
001b62 9508      	RET
                 
                 ;OPTIMIZER ADDED SUBROUTINE, CALLED 3 TIMES, CODE SIZE REDUCTION:5 WORDS
                 SUBOPT_0x70:
001b63 81a2      	LDD  R26,Z+2
001b64 81b3      	LDD  R27,Z+3
001b65 940e 12ca 	CALL _validate_G101
001b67 2f1e      	MOV  R17,R30
001b68 3010      	CPI  R17,0
001b69 9508      	RET
                 
                 ;OPTIMIZER ADDED SUBROUTINE, CALLED 3 TIMES, CODE SIZE REDUCTION:5 WORDS
                 SUBOPT_0x71:
001b6a 8dea      	LDD  R30,Y+26
001b6b 8dfb      	LDD  R31,Y+26+1
                +
001b6c 81a6     +LDD R26 , Z + 6
001b6d 81b7     +LDD R27 , Z + 6 + 1
001b6e 8580     +LDD R24 , Z + 6 + 2
001b6f 8591     +LDD R25 , Z + 6 + 3
                 	__GETD2Z 6
001b70 9508      	RET
                 
                 ;OPTIMIZER ADDED SUBROUTINE, CALLED 4 TIMES, CODE SIZE REDUCTION:3 WORDS
                 SUBOPT_0x72:
                +
001b71 89a2     +LDD R26 , Z + 18
001b72 89b3     +LDD R27 , Z + 18 + 1
001b73 8984     +LDD R24 , Z + 18 + 2
001b74 8995     +LDD R25 , Z + 18 + 3
                 	__GETD2Z 18
001b75 9508      	RET
                 
                 ;OPTIMIZER ADDED SUBROUTINE, CALLED 6 TIMES, CODE SIZE REDUCTION:17 WORDS
                 SUBOPT_0x73:
001b76 8daa      	LDD  R26,Y+26
001b77 8dbb      	LDD  R27,Y+26+1
001b78 9614      	ADIW R26,4
001b79 91ec      	LD   R30,X
001b7a 68e0      	ORI  R30,0x80
001b7b 93ec      	ST   X,R30
001b7c 9508      	RET
                 
                 ;OPTIMIZER ADDED SUBROUTINE, CALLED 5 TIMES, CODE SIZE REDUCTION:5 WORDS
                 SUBOPT_0x74:
                +
001b7d 87ec     +STD Y + 12 , R30
001b7e 87fd     +STD Y + 12 + 1 , R31
001b7f 876e     +STD Y + 12 + 2 , R22
001b80 877f     +STD Y + 12 + 3 , R23
                 	__PUTD1S 12
001b81 9508      	RET
                 
                 ;OPTIMIZER ADDED SUBROUTINE, CALLED 3 TIMES, CODE SIZE REDUCTION:1 WORDS
                 SUBOPT_0x75:
001b82 8dea      	LDD  R30,Y+26
001b83 8dfb      	LDD  R31,Y+26+1
001b84 81e5      	LDD  R30,Z+5
001b85 e0f0      	LDI  R31,0
001b86 9508      	RET
                 
                 ;OPTIMIZER ADDED SUBROUTINE, CALLED 2 TIMES, CODE SIZE REDUCTION:2 WORDS
                 SUBOPT_0x76:
001b87 e0e0      	LDI  R30,LOW(512)
001b88 e0f2      	LDI  R31,HIGH(512)
001b89 940e 1dec 	CALL __DIVW21U
001b8b 01af      	MOVW R20,R30
001b8c 2e04      	MOV  R0,R20
001b8d 2a05      	OR   R0,R21
001b8e 9508      	RET
                 
                 ;OPTIMIZER ADDED SUBROUTINE, CALLED 2 TIMES, CODE SIZE REDUCTION:1 WORDS
                 SUBOPT_0x77:
001b8f 81e1      	LDD  R30,Z+1
001b90 93ea      	ST   -Y,R30
001b91 81ef      	LDD  R30,Y+7
001b92 85f8      	LDD  R31,Y+7+1
001b93 93fa      	ST   -Y,R31
001b94 93ea      	ST   -Y,R30
001b95 9508      	RET
                 
                 ;OPTIMIZER ADDED SUBROUTINE, CALLED 3 TIMES, CODE SIZE REDUCTION:9 WORDS
                 SUBOPT_0x78:
001b96 8dea      	LDD  R30,Y+26
001b97 8dfb      	LDD  R31,Y+26+1
                +
001b98 89a6     +LDD R26 , Z + 22
001b99 89b7     +LDD R27 , Z + 22 + 1
001b9a 8d80     +LDD R24 , Z + 22 + 2
001b9b 8d91     +LDD R25 , Z + 22 + 3
                 	__GETD2Z 22
001b9c ce9f      	RJMP SUBOPT_0x44
                 
                 ;OPTIMIZER ADDED SUBROUTINE, CALLED 2 TIMES, CODE SIZE REDUCTION:2 WORDS
                 SUBOPT_0x79:
001b9d 940e 1d66 	CALL __SUBD21
001b9f 01fa      	MOVW R30,R20
001ba0 2766      	CLR  R22
001ba1 2777      	CLR  R23
001ba2 940e 1e98 	CALL __CPD21
001ba4 9508      	RET
                 
                 ;OPTIMIZER ADDED SUBROUTINE, CALLED 2 TIMES, CODE SIZE REDUCTION:3 WORDS
                 SUBOPT_0x7A:
001ba5 940e 1d66 	CALL __SUBD21
                +
001ba7 e0e0     +LDI R30 , LOW ( 0x200 )
001ba8 e0f2     +LDI R31 , HIGH ( 0x200 )
001ba9 e060     +LDI R22 , BYTE3 ( 0x200 )
001baa e070     +LDI R23 , BYTE4 ( 0x200 )
                 	__GETD1N 0x200
001bab 940e 1dc6 	CALL __MULD12U
001bad 9508      	RET
                 
                 ;OPTIMIZER ADDED SUBROUTINE, CALLED 2 TIMES, CODE SIZE REDUCTION:1 WORDS
                 SUBOPT_0x7B:
001bae 93fa      	ST   -Y,R31
001baf 93ea      	ST   -Y,R30
001bb0 e0a0      	LDI  R26,LOW(512)
001bb1 e0b2      	LDI  R27,HIGH(512)
001bb2 940c 1819 	JMP  _memcpy
                 
                 ;OPTIMIZER ADDED SUBROUTINE, CALLED 2 TIMES, CODE SIZE REDUCTION:5 WORDS
                 SUBOPT_0x7C:
001bb4 9615      	ADIW R26,5
001bb5 91ec      	LD   R30,X
001bb6 0fe4      	ADD  R30,R20
001bb7 93ec      	ST   X,R30
001bb8 01fa      	MOVW R30,R20
001bb9 0fee      	LSL  R30
001bba 1fff      	ROL  R31
001bbb 2ffe      	MOV  R31,R30
001bbc e0e0      	LDI  R30,0
001bbd 019f      	MOVW R18,R30
001bbe 9508      	RET
                 
                 ;OPTIMIZER ADDED SUBROUTINE, CALLED 2 TIMES, CODE SIZE REDUCTION:2 WORDS
                 SUBOPT_0x7D:
001bbf 81e1      	LDD  R30,Z+1
001bc0 93ea      	ST   -Y,R30
001bc1 8deb      	LDD  R30,Y+27
001bc2 8dfc      	LDD  R31,Y+27+1
001bc3 96b0      	ADIW R30,32
001bc4 93fa      	ST   -Y,R31
001bc5 93ea      	ST   -Y,R30
001bc6 9508      	RET
                 
                 ;OPTIMIZER ADDED SUBROUTINE, CALLED 3 TIMES, CODE SIZE REDUCTION:13 WORDS
                 SUBOPT_0x7E:
                +
001bc7 89a6     +LDD R26 , Z + 22
001bc8 89b7     +LDD R27 , Z + 22 + 1
001bc9 8d80     +LDD R24 , Z + 22 + 2
001bca 8d91     +LDD R25 , Z + 22 + 3
                 	__GETD2Z 22
001bcb 940e 1e77 	CALL __PUTPARD2
001bcd e0a1      	LDI  R26,LOW(1)
001bce 940e 0754 	CALL _disk_write
001bd0 30e0      	CPI  R30,0
001bd1 9508      	RET
                 
                 ;OPTIMIZER ADDED SUBROUTINE, CALLED 4 TIMES, CODE SIZE REDUCTION:3 WORDS
                 SUBOPT_0x7F:
001bd2 9614      	ADIW R26,4
001bd3 91ec      	LD   R30,X
001bd4 7bef      	ANDI R30,0xBF
001bd5 93ec      	ST   X,R30
001bd6 9508      	RET
                 
                 ;OPTIMIZER ADDED SUBROUTINE, CALLED 4 TIMES, CODE SIZE REDUCTION:3 WORDS
                 SUBOPT_0x80:
001bd7 9616      	ADIW R26,6
001bd8 940e 1e45 	CALL __GETW1P
001bda 70f1      	ANDI R31,HIGH(0x1FF)
001bdb 9508      	RET
                 
                 ;OPTIMIZER ADDED SUBROUTINE, CALLED 2 TIMES, CODE SIZE REDUCTION:2 WORDS
                 SUBOPT_0x81:
001bdc 01f9      	MOVW R30,R18
001bdd 81ae      	LDD  R26,Y+6
001bde 81bf      	LDD  R27,Y+6+1
001bdf 0fea      	ADD  R30,R26
001be0 1ffb      	ADC  R31,R27
001be1 83ee      	STD  Y+6,R30
001be2 83ff      	STD  Y+6+1,R31
001be3 9508      	RET
                 
                 ;OPTIMIZER ADDED SUBROUTINE, CALLED 2 TIMES, CODE SIZE REDUCTION:5 WORDS
                 SUBOPT_0x82:
001be4 9636      	ADIW R30,6
001be5 010f      	MOVW R0,R30
001be6 01df      	MOVW R26,R30
001be7 940e 1e49 	CALL __GETD1P
001be9 01df      	MOVW R26,R30
001bea 01cb      	MOVW R24,R22
001beb 01f9      	MOVW R30,R18
001bec ce96      	RJMP SUBOPT_0x51
                 
                 ;OPTIMIZER ADDED SUBROUTINE, CALLED 2 TIMES, CODE SIZE REDUCTION:1 WORDS
                 SUBOPT_0x83:
001bed 91ed      	LD   R30,X+
001bee 91fd      	LD   R31,X+
001bef 0fe2      	ADD  R30,R18
001bf0 1ff3      	ADC  R31,R19
001bf1 93fe      	ST   -X,R31
001bf2 93ee      	ST   -X,R30
001bf3 9508      	RET
                 
                 ;OPTIMIZER ADDED SUBROUTINE, CALLED 10 TIMES, CODE SIZE REDUCTION:15 WORDS
                 SUBOPT_0x84:
001bf4 89ae      	LDD  R26,Y+22
001bf5 89bf      	LDD  R27,Y+22+1
001bf6 940e 1e45 	CALL __GETW1P
001bf8 9508      	RET
                 
                 ;OPTIMIZER ADDED SUBROUTINE, CALLED 4 TIMES, CODE SIZE REDUCTION:3 WORDS
                 SUBOPT_0x85:
001bf9 93fa      	ST   -Y,R31
001bfa 93ea      	ST   -Y,R30
001bfb 8de8      	LDD  R30,Y+24
001bfc 8df9      	LDD  R31,Y+24+1
001bfd 9508      	RET
                 
                 ;OPTIMIZER ADDED SUBROUTINE, CALLED 3 TIMES, CODE SIZE REDUCTION:3 WORDS
                 SUBOPT_0x86:
001bfe 89ae      	LDD  R26,Y+22
001bff 89bf      	LDD  R27,Y+22+1
001c00 961a      	ADIW R26,10
001c01 940e 1e49 	CALL __GETD1P
001c03 9508      	RET
                 
                 ;OPTIMIZER ADDED SUBROUTINE, CALLED 3 TIMES, CODE SIZE REDUCTION:5 WORDS
                 SUBOPT_0x87:
001c04 89ee      	LDD  R30,Y+22
001c05 89ff      	LDD  R31,Y+22+1
                +
001c06 81a6     +LDD R26 , Z + 6
001c07 81b7     +LDD R27 , Z + 6 + 1
001c08 8580     +LDD R24 , Z + 6 + 2
001c09 8591     +LDD R25 , Z + 6 + 3
                 	__GETD2Z 6
001c0a 9508      	RET
                 
                 ;OPTIMIZER ADDED SUBROUTINE, CALLED 6 TIMES, CODE SIZE REDUCTION:17 WORDS
                 SUBOPT_0x88:
001c0b 89ae      	LDD  R26,Y+22
001c0c 89bf      	LDD  R27,Y+22+1
001c0d 9614      	ADIW R26,4
001c0e 91ec      	LD   R30,X
001c0f 68e0      	ORI  R30,0x80
001c10 93ec      	ST   X,R30
001c11 9508      	RET
                 
                 ;OPTIMIZER ADDED SUBROUTINE, CALLED 2 TIMES, CODE SIZE REDUCTION:2 WORDS
                 SUBOPT_0x89:
001c12 81e1      	LDD  R30,Z+1
001c13 93ea      	ST   -Y,R30
001c14 89ef      	LDD  R30,Y+23
001c15 8df8      	LDD  R31,Y+23+1
001c16 96b0      	ADIW R30,32
001c17 93fa      	ST   -Y,R31
001c18 93ea      	ST   -Y,R30
001c19 9508      	RET
                 
                 ;OPTIMIZER ADDED SUBROUTINE, CALLED 3 TIMES, CODE SIZE REDUCTION:1 WORDS
                 SUBOPT_0x8A:
001c1a 89ee      	LDD  R30,Y+22
001c1b 89ff      	LDD  R31,Y+22+1
001c1c 81e5      	LDD  R30,Z+5
001c1d e0f0      	LDI  R31,0
001c1e 9508      	RET
                 
                 ;OPTIMIZER ADDED SUBROUTINE, CALLED 2 TIMES, CODE SIZE REDUCTION:3 WORDS
                 SUBOPT_0x8B:
001c1f 89ee      	LDD  R30,Y+22
001c20 89ff      	LDD  R31,Y+22+1
                +
001c21 89a6     +LDD R26 , Z + 22
001c22 89b7     +LDD R27 , Z + 22 + 1
001c23 8d80     +LDD R24 , Z + 22 + 2
001c24 8d91     +LDD R25 , Z + 22 + 3
                 	__GETD2Z 22
001c25 ccce      	RJMP SUBOPT_0x18
                 
                 
                 	.CSEG
                 _delay_ms:
001c26 9610      	adiw r26,0
001c27 f039      	breq __delay_ms1
                 __delay_ms0:
                +
001c28 ea80     +LDI R24 , LOW ( 0xFA0 )
001c29 e09f     +LDI R25 , HIGH ( 0xFA0 )
                +__DELAY_USW_LOOP :
001c2a 9701     +SBIW R24 , 1
001c2b f7f1     +BRNE __DELAY_USW_LOOP
                 	__DELAY_USW 0xFA0
001c2c 95a8      	wdr
001c2d 9711      	sbiw r26,1
001c2e f7c9      	brne __delay_ms0
                 __delay_ms1:
001c2f 9508      	ret
                 
                 __ROUND_REPACK:
001c30 2355      	TST  R21
001c31 f442      	BRPL __REPACK
001c32 3850      	CPI  R21,0x80
001c33 f411      	BRNE __ROUND_REPACK0
001c34 ffe0      	SBRS R30,0
001c35 c004      	RJMP __REPACK
                 __ROUND_REPACK0:
001c36 9631      	ADIW R30,1
001c37 1f69      	ADC  R22,R25
001c38 1f79      	ADC  R23,R25
001c39 f06b      	BRVS __REPACK1
                 
                 __REPACK:
001c3a e850      	LDI  R21,0x80
001c3b 2757      	EOR  R21,R23
001c3c f411      	BRNE __REPACK0
001c3d 935f      	PUSH R21
001c3e c073      	RJMP __ZERORES
                 __REPACK0:
001c3f 3f5f      	CPI  R21,0xFF
001c40 f031      	BREQ __REPACK1
001c41 0f66      	LSL  R22
001c42 0c00      	LSL  R0
001c43 9557      	ROR  R21
001c44 9567      	ROR  R22
001c45 2f75      	MOV  R23,R21
001c46 9508      	RET
                 __REPACK1:
001c47 935f      	PUSH R21
001c48 2000      	TST  R0
001c49 f00a      	BRMI __REPACK2
001c4a c073      	RJMP __MAXRES
                 __REPACK2:
001c4b c06c      	RJMP __MINRES
                 
                 __UNPACK:
001c4c e850      	LDI  R21,0x80
001c4d 2e19      	MOV  R1,R25
001c4e 2215      	AND  R1,R21
001c4f 0f88      	LSL  R24
001c50 1f99      	ROL  R25
001c51 2795      	EOR  R25,R21
001c52 0f55      	LSL  R21
001c53 9587      	ROR  R24
                 
                 __UNPACK1:
001c54 e850      	LDI  R21,0x80
001c55 2e07      	MOV  R0,R23
001c56 2205      	AND  R0,R21
001c57 0f66      	LSL  R22
001c58 1f77      	ROL  R23
001c59 2775      	EOR  R23,R21
001c5a 0f55      	LSL  R21
001c5b 9567      	ROR  R22
001c5c 9508      	RET
                 
                 __CFD1U:
001c5d 9468      	SET
001c5e c001      	RJMP __CFD1U0
                 __CFD1:
001c5f 94e8      	CLT
                 __CFD1U0:
001c60 935f      	PUSH R21
001c61 dff2      	RCALL __UNPACK1
001c62 3870      	CPI  R23,0x80
001c63 f018      	BRLO __CFD10
001c64 3f7f      	CPI  R23,0xFF
001c65 f408      	BRCC __CFD10
001c66 c04b      	RJMP __ZERORES
                 __CFD10:
001c67 e156      	LDI  R21,22
001c68 1b57      	SUB  R21,R23
001c69 f4aa      	BRPL __CFD11
001c6a 9551      	NEG  R21
001c6b 3058      	CPI  R21,8
001c6c f40e      	BRTC __CFD19
001c6d 3059      	CPI  R21,9
                 __CFD19:
001c6e f030      	BRLO __CFD17
001c6f efef      	SER  R30
001c70 efff      	SER  R31
001c71 ef6f      	SER  R22
001c72 e77f      	LDI  R23,0x7F
001c73 f977      	BLD  R23,7
001c74 c01a      	RJMP __CFD15
                 __CFD17:
001c75 2777      	CLR  R23
001c76 2355      	TST  R21
001c77 f0b9      	BREQ __CFD15
                 __CFD18:
001c78 0fee      	LSL  R30
001c79 1fff      	ROL  R31
001c7a 1f66      	ROL  R22
001c7b 1f77      	ROL  R23
001c7c 955a      	DEC  R21
001c7d f7d1      	BRNE __CFD18
001c7e c010      	RJMP __CFD15
                 __CFD11:
001c7f 2777      	CLR  R23
                 __CFD12:
001c80 3058      	CPI  R21,8
001c81 f028      	BRLO __CFD13
001c82 2fef      	MOV  R30,R31
001c83 2ff6      	MOV  R31,R22
001c84 2f67      	MOV  R22,R23
001c85 5058      	SUBI R21,8
001c86 cff9      	RJMP __CFD12
                 __CFD13:
001c87 2355      	TST  R21
001c88 f031      	BREQ __CFD15
                 __CFD14:
001c89 9576      	LSR  R23
001c8a 9567      	ROR  R22
001c8b 95f7      	ROR  R31
001c8c 95e7      	ROR  R30
001c8d 955a      	DEC  R21
001c8e f7d1      	BRNE __CFD14
                 __CFD15:
001c8f 2000      	TST  R0
001c90 f40a      	BRPL __CFD16
001c91 d0e2      	RCALL __ANEGD1
                 __CFD16:
001c92 915f      	POP  R21
001c93 9508      	RET
                 
                 __CDF1U:
001c94 9468      	SET
001c95 c001      	RJMP __CDF1U0
                 __CDF1:
001c96 94e8      	CLT
                 __CDF1U0:
001c97 9730      	SBIW R30,0
001c98 4060      	SBCI R22,0
001c99 4070      	SBCI R23,0
001c9a f0b1      	BREQ __CDF10
001c9b 2400      	CLR  R0
001c9c f026      	BRTS __CDF11
001c9d 2377      	TST  R23
001c9e f412      	BRPL __CDF11
001c9f 9400      	COM  R0
001ca0 d0d3      	RCALL __ANEGD1
                 __CDF11:
001ca1 2e17      	MOV  R1,R23
001ca2 e17e      	LDI  R23,30
001ca3 2011      	TST  R1
                 __CDF12:
001ca4 f032      	BRMI __CDF13
001ca5 957a      	DEC  R23
001ca6 0fee      	LSL  R30
001ca7 1fff      	ROL  R31
001ca8 1f66      	ROL  R22
001ca9 1c11      	ROL  R1
001caa cff9      	RJMP __CDF12
                 __CDF13:
001cab 2fef      	MOV  R30,R31
001cac 2ff6      	MOV  R31,R22
001cad 2d61      	MOV  R22,R1
001cae 935f      	PUSH R21
001caf df8a      	RCALL __REPACK
001cb0 915f      	POP  R21
                 __CDF10:
001cb1 9508      	RET
                 
                 __ZERORES:
001cb2 27ee      	CLR  R30
001cb3 27ff      	CLR  R31
001cb4 2766      	CLR  R22
001cb5 2777      	CLR  R23
001cb6 915f      	POP  R21
001cb7 9508      	RET
                 
                 __MINRES:
001cb8 efef      	SER  R30
001cb9 efff      	SER  R31
001cba e76f      	LDI  R22,0x7F
001cbb ef7f      	SER  R23
001cbc 915f      	POP  R21
001cbd 9508      	RET
                 
                 __MAXRES:
001cbe efef      	SER  R30
001cbf efff      	SER  R31
001cc0 e76f      	LDI  R22,0x7F
001cc1 e77f      	LDI  R23,0x7F
001cc2 915f      	POP  R21
001cc3 9508      	RET
                 
                 __MULF12:
001cc4 935f      	PUSH R21
001cc5 df86      	RCALL __UNPACK
001cc6 3870      	CPI  R23,0x80
001cc7 f351      	BREQ __ZERORES
001cc8 3890      	CPI  R25,0x80
001cc9 f341      	BREQ __ZERORES
001cca 2401      	EOR  R0,R1
001ccb 9408      	SEC
001ccc 1f79      	ADC  R23,R25
001ccd f423      	BRVC __MULF124
001cce f31c      	BRLT __ZERORES
                 __MULF125:
001ccf 2000      	TST  R0
001cd0 f33a      	BRMI __MINRES
001cd1 cfec      	RJMP __MAXRES
                 __MULF124:
001cd2 920f      	PUSH R0
001cd3 931f      	PUSH R17
001cd4 932f      	PUSH R18
001cd5 933f      	PUSH R19
001cd6 934f      	PUSH R20
001cd7 2711      	CLR  R17
001cd8 2722      	CLR  R18
001cd9 2799      	CLR  R25
001cda 9f68      	MUL  R22,R24
001cdb 01a0      	MOVW R20,R0
001cdc 9f8f      	MUL  R24,R31
001cdd 2d30      	MOV  R19,R0
001cde 0d41      	ADD  R20,R1
001cdf 1f59      	ADC  R21,R25
001ce0 9f6b      	MUL  R22,R27
001ce1 0d30      	ADD  R19,R0
001ce2 1d41      	ADC  R20,R1
001ce3 1f59      	ADC  R21,R25
001ce4 9f8e      	MUL  R24,R30
001ce5 d027      	RCALL __MULF126
001ce6 9fbf      	MUL  R27,R31
001ce7 d025      	RCALL __MULF126
001ce8 9f6a      	MUL  R22,R26
001ce9 d023      	RCALL __MULF126
001cea 9fbe      	MUL  R27,R30
001ceb d01d      	RCALL __MULF127
001cec 9faf      	MUL  R26,R31
001ced d01b      	RCALL __MULF127
001cee 9fae      	MUL  R26,R30
001cef 0d11      	ADD  R17,R1
001cf0 1f29      	ADC  R18,R25
001cf1 1f39      	ADC  R19,R25
001cf2 1f49      	ADC  R20,R25
001cf3 1f59      	ADC  R21,R25
001cf4 2fe3      	MOV  R30,R19
001cf5 2ff4      	MOV  R31,R20
001cf6 2f65      	MOV  R22,R21
001cf7 2f52      	MOV  R21,R18
001cf8 914f      	POP  R20
001cf9 913f      	POP  R19
001cfa 912f      	POP  R18
001cfb 911f      	POP  R17
001cfc 900f      	POP  R0
001cfd 2366      	TST  R22
001cfe f02a      	BRMI __MULF122
001cff 0f55      	LSL  R21
001d00 1fee      	ROL  R30
001d01 1fff      	ROL  R31
001d02 1f66      	ROL  R22
001d03 c002      	RJMP __MULF123
                 __MULF122:
001d04 9573      	INC  R23
001d05 f24b      	BRVS __MULF125
                 __MULF123:
001d06 df29      	RCALL __ROUND_REPACK
001d07 915f      	POP  R21
001d08 9508      	RET
                 
                 __MULF127:
001d09 0d10      	ADD  R17,R0
001d0a 1d21      	ADC  R18,R1
001d0b 1f39      	ADC  R19,R25
001d0c c002      	RJMP __MULF128
                 __MULF126:
001d0d 0d20      	ADD  R18,R0
001d0e 1d31      	ADC  R19,R1
                 __MULF128:
001d0f 1f49      	ADC  R20,R25
001d10 1f59      	ADC  R21,R25
001d11 9508      	RET
                 
                 __DIVF21:
001d12 935f      	PUSH R21
001d13 df38      	RCALL __UNPACK
001d14 3870      	CPI  R23,0x80
001d15 f421      	BRNE __DIVF210
001d16 2011      	TST  R1
                 __DIVF211:
001d17 f40a      	BRPL __DIVF219
001d18 cf9f      	RJMP __MINRES
                 __DIVF219:
001d19 cfa4      	RJMP __MAXRES
                 __DIVF210:
001d1a 3890      	CPI  R25,0x80
001d1b f409      	BRNE __DIVF218
                 __DIVF217:
001d1c cf95      	RJMP __ZERORES
                 __DIVF218:
001d1d 2401      	EOR  R0,R1
001d1e 9408      	SEC
001d1f 0b97      	SBC  R25,R23
001d20 f41b      	BRVC __DIVF216
001d21 f3d4      	BRLT __DIVF217
001d22 2000      	TST  R0
001d23 cff3      	RJMP __DIVF211
                 __DIVF216:
001d24 2f79      	MOV  R23,R25
001d25 931f      	PUSH R17
001d26 932f      	PUSH R18
001d27 933f      	PUSH R19
001d28 934f      	PUSH R20
001d29 2411      	CLR  R1
001d2a 2711      	CLR  R17
001d2b 2722      	CLR  R18
001d2c 2733      	CLR  R19
001d2d 2744      	CLR  R20
001d2e 2755      	CLR  R21
001d2f e290      	LDI  R25,32
                 __DIVF212:
001d30 17ae      	CP   R26,R30
001d31 07bf      	CPC  R27,R31
001d32 0786      	CPC  R24,R22
001d33 0741      	CPC  R20,R17
001d34 f030      	BRLO __DIVF213
001d35 1bae      	SUB  R26,R30
001d36 0bbf      	SBC  R27,R31
001d37 0b86      	SBC  R24,R22
001d38 0b41      	SBC  R20,R17
001d39 9408      	SEC
001d3a c001      	RJMP __DIVF214
                 __DIVF213:
001d3b 9488      	CLC
                 __DIVF214:
001d3c 1f55      	ROL  R21
001d3d 1f22      	ROL  R18
001d3e 1f33      	ROL  R19
001d3f 1c11      	ROL  R1
001d40 1faa      	ROL  R26
001d41 1fbb      	ROL  R27
001d42 1f88      	ROL  R24
001d43 1f44      	ROL  R20
001d44 959a      	DEC  R25
001d45 f751      	BRNE __DIVF212
001d46 01f9      	MOVW R30,R18
001d47 2d61      	MOV  R22,R1
001d48 914f      	POP  R20
001d49 913f      	POP  R19
001d4a 912f      	POP  R18
001d4b 911f      	POP  R17
001d4c 2366      	TST  R22
001d4d f032      	BRMI __DIVF215
001d4e 0f55      	LSL  R21
001d4f 1fee      	ROL  R30
001d50 1fff      	ROL  R31
001d51 1f66      	ROL  R22
001d52 957a      	DEC  R23
001d53 f243      	BRVS __DIVF217
                 __DIVF215:
001d54 dedb      	RCALL __ROUND_REPACK
001d55 915f      	POP  R21
001d56 9508      	RET
                 
                 __ADDD12:
001d57 0fea      	ADD  R30,R26
001d58 1ffb      	ADC  R31,R27
001d59 1f68      	ADC  R22,R24
001d5a 1f79      	ADC  R23,R25
001d5b 9508      	RET
                 
                 __ADDD21:
001d5c 0fae      	ADD  R26,R30
001d5d 1fbf      	ADC  R27,R31
001d5e 1f86      	ADC  R24,R22
001d5f 1f97      	ADC  R25,R23
001d60 9508      	RET
                 
                 __SUBD12:
001d61 1bea      	SUB  R30,R26
001d62 0bfb      	SBC  R31,R27
001d63 0b68      	SBC  R22,R24
001d64 0b79      	SBC  R23,R25
001d65 9508      	RET
                 
                 __SUBD21:
001d66 1bae      	SUB  R26,R30
001d67 0bbf      	SBC  R27,R31
001d68 0b86      	SBC  R24,R22
001d69 0b97      	SBC  R25,R23
001d6a 9508      	RET
                 
                 __ORD12:
001d6b 2bea      	OR   R30,R26
001d6c 2bfb      	OR   R31,R27
001d6d 2b68      	OR   R22,R24
001d6e 2b79      	OR   R23,R25
001d6f 9508      	RET
                 
                 __ANEGW1:
001d70 95f1      	NEG  R31
001d71 95e1      	NEG  R30
001d72 40f0      	SBCI R31,0
001d73 9508      	RET
                 
                 __ANEGD1:
001d74 95f0      	COM  R31
001d75 9560      	COM  R22
001d76 9570      	COM  R23
001d77 95e1      	NEG  R30
001d78 4fff      	SBCI R31,-1
001d79 4f6f      	SBCI R22,-1
001d7a 4f7f      	SBCI R23,-1
001d7b 9508      	RET
                 
                 __LSLD12:
001d7c 23ee      	TST  R30
001d7d 2e0e      	MOV  R0,R30
001d7e 01fd      	MOVW R30,R26
001d7f 01bc      	MOVW R22,R24
001d80 f031      	BREQ __LSLD12R
                 __LSLD12L:
001d81 0fee      	LSL  R30
001d82 1fff      	ROL  R31
001d83 1f66      	ROL  R22
001d84 1f77      	ROL  R23
001d85 940a      	DEC  R0
001d86 f7d1      	BRNE __LSLD12L
                 __LSLD12R:
001d87 9508      	RET
                 
                 __LSRD12:
001d88 23ee      	TST  R30
001d89 2e0e      	MOV  R0,R30
001d8a 01fd      	MOVW R30,R26
001d8b 01bc      	MOVW R22,R24
001d8c f031      	BREQ __LSRD12R
                 __LSRD12L:
001d8d 9576      	LSR  R23
001d8e 9567      	ROR  R22
001d8f 95f7      	ROR  R31
001d90 95e7      	ROR  R30
001d91 940a      	DEC  R0
001d92 f7d1      	BRNE __LSRD12L
                 __LSRD12R:
001d93 9508      	RET
                 
                 __LSLW4:
001d94 0fee      	LSL  R30
001d95 1fff      	ROL  R31
                 __LSLW3:
001d96 0fee      	LSL  R30
001d97 1fff      	ROL  R31
                 __LSLW2:
001d98 0fee      	LSL  R30
001d99 1fff      	ROL  R31
001d9a 0fee      	LSL  R30
001d9b 1fff      	ROL  R31
001d9c 9508      	RET
                 
                 __LSRW4:
001d9d 95f6      	LSR  R31
001d9e 95e7      	ROR  R30
                 __LSRW3:
001d9f 95f6      	LSR  R31
001da0 95e7      	ROR  R30
                 __LSRW2:
001da1 95f6      	LSR  R31
001da2 95e7      	ROR  R30
001da3 95f6      	LSR  R31
001da4 95e7      	ROR  R30
001da5 9508      	RET
                 
                 __LSLD1:
001da6 0fee      	LSL  R30
001da7 1fff      	ROL  R31
001da8 1f66      	ROL  R22
001da9 1f77      	ROL  R23
001daa 9508      	RET
                 
                 __LSRD16:
001dab 2fe6      	MOV  R30,R22
001dac 2ff7      	MOV  R31,R23
001dad e060      	LDI  R22,0
001dae e070      	LDI  R23,0
001daf 9508      	RET
                 
                 __LSLD16:
001db0 2f6e      	MOV  R22,R30
001db1 2f7f      	MOV  R23,R31
001db2 e0e0      	LDI  R30,0
001db3 e0f0      	LDI  R31,0
001db4 9508      	RET
                 
                 __CWD1:
001db5 2f6f      	MOV  R22,R31
001db6 0f66      	ADD  R22,R22
001db7 0b66      	SBC  R22,R22
001db8 2f76      	MOV  R23,R22
001db9 9508      	RET
                 
                 __LEW12:
001dba 17ea      	CP   R30,R26
001dbb 07fb      	CPC  R31,R27
001dbc e0e1      	LDI  R30,1
001dbd f40c      	BRGE __LEW12T
001dbe 27ee      	CLR  R30
                 __LEW12T:
001dbf 9508      	RET
                 
                 __GEW12:
001dc0 17ae      	CP   R26,R30
001dc1 07bf      	CPC  R27,R31
001dc2 e0e1      	LDI  R30,1
001dc3 f40c      	BRGE __GEW12T
001dc4 27ee      	CLR  R30
                 __GEW12T:
001dc5 9508      	RET
                 
                 __MULD12U:
001dc6 9f7a      	MUL  R23,R26
001dc7 2d70      	MOV  R23,R0
001dc8 9f6b      	MUL  R22,R27
001dc9 0d70      	ADD  R23,R0
001dca 9ff8      	MUL  R31,R24
001dcb 0d70      	ADD  R23,R0
001dcc 9fe9      	MUL  R30,R25
001dcd 0d70      	ADD  R23,R0
001dce 9f6a      	MUL  R22,R26
001dcf 2d60      	MOV  R22,R0
001dd0 0d71      	ADD  R23,R1
001dd1 9ffb      	MUL  R31,R27
001dd2 0d60      	ADD  R22,R0
001dd3 1d71      	ADC  R23,R1
001dd4 9fe8      	MUL  R30,R24
001dd5 0d60      	ADD  R22,R0
001dd6 1d71      	ADC  R23,R1
001dd7 2788      	CLR  R24
001dd8 9ffa      	MUL  R31,R26
001dd9 2df0      	MOV  R31,R0
001dda 0d61      	ADD  R22,R1
001ddb 1f78      	ADC  R23,R24
001ddc 9feb      	MUL  R30,R27
001ddd 0df0      	ADD  R31,R0
001dde 1d61      	ADC  R22,R1
001ddf 1f78      	ADC  R23,R24
001de0 9fea      	MUL  R30,R26
001de1 2de0      	MOV  R30,R0
001de2 0df1      	ADD  R31,R1
001de3 1f68      	ADC  R22,R24
001de4 1f78      	ADC  R23,R24
001de5 9508      	RET
                 
                 __MULB1W2U:
001de6 2f6e      	MOV  R22,R30
001de7 9f6a      	MUL  R22,R26
001de8 01f0      	MOVW R30,R0
001de9 9f6b      	MUL  R22,R27
001dea 0df0      	ADD  R31,R0
001deb 9508      	RET
                 
                 __DIVW21U:
001dec 2400      	CLR  R0
001ded 2411      	CLR  R1
001dee e190      	LDI  R25,16
                 __DIVW21U1:
001def 0faa      	LSL  R26
001df0 1fbb      	ROL  R27
001df1 1c00      	ROL  R0
001df2 1c11      	ROL  R1
001df3 1a0e      	SUB  R0,R30
001df4 0a1f      	SBC  R1,R31
001df5 f418      	BRCC __DIVW21U2
001df6 0e0e      	ADD  R0,R30
001df7 1e1f      	ADC  R1,R31
001df8 c001      	RJMP __DIVW21U3
                 __DIVW21U2:
001df9 60a1      	SBR  R26,1
                 __DIVW21U3:
001dfa 959a      	DEC  R25
001dfb f799      	BRNE __DIVW21U1
001dfc 01fd      	MOVW R30,R26
001dfd 01d0      	MOVW R26,R0
001dfe 9508      	RET
                 
                 __DIVW21:
001dff d037      	RCALL __CHKSIGNW
001e00 dfeb      	RCALL __DIVW21U
001e01 f40e      	BRTC __DIVW211
001e02 df6d      	RCALL __ANEGW1
                 __DIVW211:
001e03 9508      	RET
                 
                 __DIVD21U:
001e04 933f      	PUSH R19
001e05 934f      	PUSH R20
001e06 935f      	PUSH R21
001e07 2400      	CLR  R0
001e08 2411      	CLR  R1
001e09 2744      	CLR  R20
001e0a 2755      	CLR  R21
001e0b e230      	LDI  R19,32
                 __DIVD21U1:
001e0c 0faa      	LSL  R26
001e0d 1fbb      	ROL  R27
001e0e 1f88      	ROL  R24
001e0f 1f99      	ROL  R25
001e10 1c00      	ROL  R0
001e11 1c11      	ROL  R1
001e12 1f44      	ROL  R20
001e13 1f55      	ROL  R21
001e14 1a0e      	SUB  R0,R30
001e15 0a1f      	SBC  R1,R31
001e16 0b46      	SBC  R20,R22
001e17 0b57      	SBC  R21,R23
001e18 f428      	BRCC __DIVD21U2
001e19 0e0e      	ADD  R0,R30
001e1a 1e1f      	ADC  R1,R31
001e1b 1f46      	ADC  R20,R22
001e1c 1f57      	ADC  R21,R23
001e1d c001      	RJMP __DIVD21U3
                 __DIVD21U2:
001e1e 60a1      	SBR  R26,1
                 __DIVD21U3:
001e1f 953a      	DEC  R19
001e20 f759      	BRNE __DIVD21U1
001e21 01fd      	MOVW R30,R26
001e22 01bc      	MOVW R22,R24
001e23 01d0      	MOVW R26,R0
001e24 01ca      	MOVW R24,R20
001e25 915f      	POP  R21
001e26 914f      	POP  R20
001e27 913f      	POP  R19
001e28 9508      	RET
                 
                 __MODW21:
001e29 94e8      	CLT
001e2a ffb7      	SBRS R27,7
001e2b c004      	RJMP __MODW211
001e2c 95a0      	COM  R26
001e2d 95b0      	COM  R27
001e2e 9611      	ADIW R26,1
001e2f 9468      	SET
                 __MODW211:
001e30 fdf7      	SBRC R31,7
001e31 df3e      	RCALL __ANEGW1
001e32 dfb9      	RCALL __DIVW21U
001e33 01fd      	MOVW R30,R26
001e34 f40e      	BRTC __MODW212
001e35 df3a      	RCALL __ANEGW1
                 __MODW212:
001e36 9508      	RET
                 
                 __CHKSIGNW:
001e37 94e8      	CLT
001e38 fff7      	SBRS R31,7
001e39 c002      	RJMP __CHKSW1
001e3a df35      	RCALL __ANEGW1
001e3b 9468      	SET
                 __CHKSW1:
001e3c ffb7      	SBRS R27,7
001e3d c006      	RJMP __CHKSW2
001e3e 95a0      	COM  R26
001e3f 95b0      	COM  R27
001e40 9611      	ADIW R26,1
001e41 f800      	BLD  R0,0
001e42 9403      	INC  R0
001e43 fa00      	BST  R0,0
                 __CHKSW2:
001e44 9508      	RET
                 
                 __GETW1P:
001e45 91ed      	LD   R30,X+
001e46 91fc      	LD   R31,X
001e47 9711      	SBIW R26,1
001e48 9508      	RET
                 
                 __GETD1P:
001e49 91ed      	LD   R30,X+
001e4a 91fd      	LD   R31,X+
001e4b 916d      	LD   R22,X+
001e4c 917c      	LD   R23,X
001e4d 9713      	SBIW R26,3
001e4e 9508      	RET
                 
                 __GETD1P_INC:
001e4f 91ed      	LD   R30,X+
001e50 91fd      	LD   R31,X+
001e51 916d      	LD   R22,X+
001e52 917d      	LD   R23,X+
001e53 9508      	RET
                 
                 __PUTDP1:
001e54 93ed      	ST   X+,R30
001e55 93fd      	ST   X+,R31
001e56 936d      	ST   X+,R22
001e57 937c      	ST   X,R23
001e58 9508      	RET
                 
                 __PUTDP1_DEC:
001e59 937e      	ST   -X,R23
001e5a 936e      	ST   -X,R22
001e5b 93fe      	ST   -X,R31
001e5c 93ee      	ST   -X,R30
001e5d 9508      	RET
                 
                 __GETD1S0:
001e5e 81e8      	LD   R30,Y
001e5f 81f9      	LDD  R31,Y+1
001e60 816a      	LDD  R22,Y+2
001e61 817b      	LDD  R23,Y+3
001e62 9508      	RET
                 
                 __GETD2S0:
001e63 81a8      	LD   R26,Y
001e64 81b9      	LDD  R27,Y+1
001e65 818a      	LDD  R24,Y+2
001e66 819b      	LDD  R25,Y+3
001e67 9508      	RET
                 
                 __PUTD1S0:
001e68 83e8      	ST   Y,R30
001e69 83f9      	STD  Y+1,R31
001e6a 836a      	STD  Y+2,R22
001e6b 837b      	STD  Y+3,R23
001e6c 9508      	RET
                 
                 __PUTDZ20:
001e6d 83a0      	ST   Z,R26
001e6e 83b1      	STD  Z+1,R27
001e6f 8382      	STD  Z+2,R24
001e70 8393      	STD  Z+3,R25
001e71 9508      	RET
                 
                 __PUTPARD1:
001e72 937a      	ST   -Y,R23
001e73 936a      	ST   -Y,R22
001e74 93fa      	ST   -Y,R31
001e75 93ea      	ST   -Y,R30
001e76 9508      	RET
                 
                 __PUTPARD2:
001e77 939a      	ST   -Y,R25
001e78 938a      	ST   -Y,R24
001e79 93ba      	ST   -Y,R27
001e7a 93aa      	ST   -Y,R26
001e7b 9508      	RET
                 
                 __SWAPD12:
001e7c 2e18      	MOV  R1,R24
001e7d 2f86      	MOV  R24,R22
001e7e 2d61      	MOV  R22,R1
001e7f 2e19      	MOV  R1,R25
001e80 2f97      	MOV  R25,R23
001e81 2d71      	MOV  R23,R1
                 
                 __SWAPW12:
001e82 2e1b      	MOV  R1,R27
001e83 2fbf      	MOV  R27,R31
001e84 2df1      	MOV  R31,R1
                 
                 __SWAPB12:
001e85 2e1a      	MOV  R1,R26
001e86 2fae      	MOV  R26,R30
001e87 2de1      	MOV  R30,R1
001e88 9508      	RET
                 
                 __CPD10:
001e89 9730      	SBIW R30,0
001e8a 4060      	SBCI R22,0
001e8b 4070      	SBCI R23,0
001e8c 9508      	RET
                 
                 __CPD02:
001e8d 2400      	CLR  R0
001e8e 160a      	CP   R0,R26
001e8f 060b      	CPC  R0,R27
001e90 0608      	CPC  R0,R24
001e91 0609      	CPC  R0,R25
001e92 9508      	RET
                 
                 __CPD12:
001e93 17ea      	CP   R30,R26
001e94 07fb      	CPC  R31,R27
001e95 0768      	CPC  R22,R24
001e96 0779      	CPC  R23,R25
001e97 9508      	RET
                 
                 __CPD21:
001e98 17ae      	CP   R26,R30
001e99 07bf      	CPC  R27,R31
001e9a 0786      	CPC  R24,R22
001e9b 0797      	CPC  R25,R23
001e9c 9508      	RET
                 
                 __SAVELOCR6:
001e9d 935a      	ST   -Y,R21
                 __SAVELOCR5:
001e9e 934a      	ST   -Y,R20
                 __SAVELOCR4:
001e9f 933a      	ST   -Y,R19
                 __SAVELOCR3:
001ea0 932a      	ST   -Y,R18
                 __SAVELOCR2:
001ea1 931a      	ST   -Y,R17
001ea2 930a      	ST   -Y,R16
001ea3 9508      	RET
                 
                 __LOADLOCR6:
001ea4 815d      	LDD  R21,Y+5
                 __LOADLOCR5:
001ea5 814c      	LDD  R20,Y+4
                 __LOADLOCR4:
001ea6 813b      	LDD  R19,Y+3
                 __LOADLOCR3:
001ea7 812a      	LDD  R18,Y+2
                 __LOADLOCR2:
001ea8 8119      	LDD  R17,Y+1
001ea9 8108      	LD   R16,Y
001eaa 9508      	RET
                 
                 __INITLOCB:
                 __INITLOCW:
001eab 0fac      	ADD  R26,R28
001eac 1fbd      	ADC  R27,R29
001ead bf6b      	OUT  RAMPZ,R22
                 __INITLOC0:
001eae 9007      	ELPM R0,Z+
001eaf 920d      	ST   X+,R0
001eb0 958a      	DEC  R24
001eb1 f7e1      	BRNE __INITLOC0
001eb2 9508      	RET
                 
                 ;END OF CODE MARKER
                 __END_OF_CODE:


RESOURCE USE INFORMATION
------------------------

Notice:
The register and instruction counts are symbol table hit counts,
and hence implicitly used resources are not counted, eg, the
'lpm' instruction without operands implicitly uses r0 and z,
none of which are counted.

x,y,z are separate entities in the symbol table and are
counted separately from r26..r31 here.

.dseg memory usage only counts static data declared with .byte

AT90USB1286 register use summary:
r0 :  97 r1 :  45 r2 :   0 r3 :  10 r4 :   2 r5 :   2 r6 :   2 r7 :   0 
r8 :   0 r9 :   7 r10:   7 r11:   2 r12:   4 r13:   0 r14:   2 r15:   2 
r16: 111 r17: 265 r18: 103 r19:  72 r20:  41 r21:  76 r22: 232 r23: 175 
r24: 168 r25: 145 r26: 913 r27: 453 r28:  78 r29:   6 r30:1683 r31: 595 
x  : 168 y  :1409 z  : 183 
Registers used: 31 out of 35 (88.6%)

AT90USB1286 instruction use summary:
.lds  :   0 .lds.l:   0 .sts  :   0 .sts.l:   0 adc   :  62 add   :  53 
adiw  : 238 and   :   5 andi  :  99 asr   :   1 bclr  :   0 bld   :   2 
brbc  :   0 brbs  :   0 brcc  :   4 brcs  :   0 break :   0 breq  : 168 
brge  :   4 brhc  :   0 brhs  :   0 brid  :   0 brie  :   0 brlo  :  36 
brlt  :   4 brmi  :   5 brne  : 180 brpl  :   5 brsh  :  40 brtc  :   3 
brts  :   1 brvc  :   2 brvs  :   3 bset  :   0 bst   :   1 call  : 809 
cbi   :  13 cbr   :   0 clc   :   1 clh   :   0 cli   :   1 cln   :   0 
clr   :  98 cls   :   0 clt   :   4 clv   :   0 clz   :   0 com   :   8 
cp    :  28 cpc   :  74 cpi   : 226 cpse  :   0 dec   :  12 des   :   0 
elpm  :  25 eor   :   7 fmul  :   0 fmuls :   0 fmulsu:   0 icall :   2 
ijmp  :   0 in    :  45 inc   :   5 jmp   :  51 ld    : 113 ldd   :1084 
ldi   : 723 lds   :  44 lpm   :   0 lsl   :  33 lsr   :  17 mov   : 161 
movw  : 179 mul   :  24 muls  :   0 mulsu :   0 neg   :   4 nop   :  12 
or    :  13 ori   :  21 out   :  64 pop   :  85 push  :  84 rcall : 122 
ret   : 215 reti  :   1 rjmp  : 355 rol   :  50 ror   :  17 sbc   :  27 
sbci  : 104 sbi   :  17 sbic  :   2 sbis  :   1 sbiw  :  50 sbr   :   2 
sbrc  :   4 sbrs  :  35 sec   :   3 seh   :   0 sei   :   1 sen   :   0 
ser   :   8 ses   :   0 set   :   4 sev   :   0 sez   :   0 sleep :   0 
spm   :   0 st    : 390 std   : 148 sts   :  31 sub   :  19 subi  : 103 
swap  :   6 tst   :  14 wdr   :   1 
Instructions used: 81 out of 117 (69.2%)

AT90USB1286 memory use summary [bytes]:
Segment   Begin    End      Code   Data   Used    Size   Use%
---------------------------------------------------------------
[.cseg] 0x000000 0x003d66  15302    416  15718  131072  12.0%
[.dseg] 0x000100 0x000efe      0   1534   1534    8192  18.7%
[.eseg] 0x000000 0x000000      0      0      0    4096   0.0%

Assembly complete, 0 errors, 27 warnings
