
AVRASM ver. 2.1.30  D:\JavierJr\Documents\ISD\FebJun20\LabMicrocontroladores\CodeVision\P03_Scope\Debug\List\scope.asm Fri Mar 27 15:39:42 2020

                 
                 
                 ;CodeVisionAVR C Compiler V3.12 Advanced
                 ;(C) Copyright 1998-2014 Pavel Haiduc, HP InfoTech s.r.l.
                 ;http://www.hpinfotech.com
                 
                 ;Build configuration    : Debug
                 ;Chip type              : AT90USB1286
                 ;Program type           : Application
                 ;Clock frequency        : 16.000000 MHz
                 ;Memory model           : Medium
                 ;Optimize for           : Size
                 ;(s)printf features     : int, width
                 ;(s)scanf features      : int, width
                 ;External RAM size      : 0
                 ;Data Stack size        : 2048 byte(s)
                 ;Heap size              : 0 byte(s)
                 ;Promote 'char' to 'int': Yes
                 ;'char' is unsigned     : Yes
                 ;8 bit enums            : Yes
                 ;Global 'const' stored in FLASH: No
                 ;Enhanced function parameter passing: Yes
                 ;Enhanced core instructions: On
                 ;Automatic register allocation for global variables: Off
                 ;Smart register allocation: Off
                 
                 	#define _MODEL_MEDIUM_
                 
                 	#pragma AVRPART ADMIN PART_NAME AT90USB1286
                 	#pragma AVRPART MEMORY PROG_FLASH 131072
                 	#pragma AVRPART MEMORY EEPROM 4096
                 	#pragma AVRPART MEMORY INT_SRAM SIZE 8192
                 	#pragma AVRPART MEMORY INT_SRAM START_ADDR 0x100
                 
                 	#define CALL_SUPPORTED 1
                 
                 	.LISTMAC
                 	.EQU EERE=0x0
                 	.EQU EEWE=0x1
                 	.EQU EEMWE=0x2
                 	.EQU UDRE=0x5
                 	.EQU RXC=0x7
                 	.EQU EECR=0x1F
                 	.EQU EEDR=0x20
                 	.EQU EEARL=0x21
                 	.EQU EEARH=0x22
                 	.EQU SPSR=0x2D
                 	.EQU SPDR=0x2E
                 	.EQU SMCR=0x33
                 	.EQU MCUSR=0x34
                 	.EQU MCUCR=0x35
                 	.EQU RAMPZ=0x3B
                 	.EQU WDTCSR=0x60
                 	.EQU UCSR1A=0xC8
                 	.EQU UDR1=0xCE
                 	.EQU SPL=0x3D
                 	.EQU SPH=0x3E
                 	.EQU SREG=0x3F
                 	.EQU GPIOR0=0x1E
                 
                 	.DEF R0X0=R0
                 	.DEF R0X1=R1
                 	.DEF R0X2=R2
                 	.DEF R0X3=R3
                 	.DEF R0X4=R4
                 	.DEF R0X5=R5
                 	.DEF R0X6=R6
                 	.DEF R0X7=R7
                 	.DEF R0X8=R8
                 	.DEF R0X9=R9
                 	.DEF R0XA=R10
                 	.DEF R0XB=R11
                 	.DEF R0XC=R12
                 	.DEF R0XD=R13
                 	.DEF R0XE=R14
                 	.DEF R0XF=R15
                 	.DEF R0X10=R16
                 	.DEF R0X11=R17
                 	.DEF R0X12=R18
                 	.DEF R0X13=R19
                 	.DEF R0X14=R20
                 	.DEF R0X15=R21
                 	.DEF R0X16=R22
                 	.DEF R0X17=R23
                 	.DEF R0X18=R24
                 	.DEF R0X19=R25
                 	.DEF R0X1A=R26
                 	.DEF R0X1B=R27
                 	.DEF R0X1C=R28
                 	.DEF R0X1D=R29
                 	.DEF R0X1E=R30
                 	.DEF R0X1F=R31
                 
                 	.EQU __SRAM_START=0x0100
                 	.EQU __SRAM_END=0x20FF
                 	.EQU __DSTACK_SIZE=0x0800
                 	.EQU __HEAP_SIZE=0x0000
                 	.EQU __CLEAR_SRAM_SIZE=__SRAM_END-__SRAM_START+1
                 
                 	.MACRO __CPD1N
                 	CPI  R30,LOW(@0)
                 	LDI  R26,HIGH(@0)
                 	CPC  R31,R26
                 	LDI  R26,BYTE3(@0)
                 	CPC  R22,R26
                 	LDI  R26,BYTE4(@0)
                 	CPC  R23,R26
                 	.ENDM
                 
                 	.MACRO __CPD2N
                 	CPI  R26,LOW(@0)
                 	LDI  R30,HIGH(@0)
                 	CPC  R27,R30
                 	LDI  R30,BYTE3(@0)
                 	CPC  R24,R30
                 	LDI  R30,BYTE4(@0)
                 	CPC  R25,R30
                 	.ENDM
                 
                 	.MACRO __CPWRR
                 	CP   R@0,R@2
                 	CPC  R@1,R@3
                 	.ENDM
                 
                 	.MACRO __CPWRN
                 	CPI  R@0,LOW(@2)
                 	LDI  R30,HIGH(@2)
                 	CPC  R@1,R30
                 	.ENDM
                 
                 	.MACRO __ADDB1MN
                 	SUBI R30,LOW(-@0-(@1))
                 	.ENDM
                 
                 	.MACRO __ADDB2MN
                 	SUBI R26,LOW(-@0-(@1))
                 	.ENDM
                 
                 	.MACRO __ADDW1MN
                 	SUBI R30,LOW(-@0-(@1))
                 	SBCI R31,HIGH(-@0-(@1))
                 	.ENDM
                 
                 	.MACRO __ADDW2MN
                 	SUBI R26,LOW(-@0-(@1))
                 	SBCI R27,HIGH(-@0-(@1))
                 	.ENDM
                 
                 	.MACRO __ADDW1FN
                 	SUBI R30,LOW(-2*@0-(@1))
                 	SBCI R31,HIGH(-2*@0-(@1))
                 	.ENDM
                 
                 	.MACRO __ADDD1FN
                 	SUBI R30,LOW(-2*@0-(@1))
                 	SBCI R31,HIGH(-2*@0-(@1))
                 	SBCI R22,BYTE3(-2*@0-(@1))
                 	.ENDM
                 
                 	.MACRO __ADDD1N
                 	SUBI R30,LOW(-@0)
                 	SBCI R31,HIGH(-@0)
                 	SBCI R22,BYTE3(-@0)
                 	SBCI R23,BYTE4(-@0)
                 	.ENDM
                 
                 	.MACRO __ADDD2N
                 	SUBI R26,LOW(-@0)
                 	SBCI R27,HIGH(-@0)
                 	SBCI R24,BYTE3(-@0)
                 	SBCI R25,BYTE4(-@0)
                 	.ENDM
                 
                 	.MACRO __SUBD1N
                 	SUBI R30,LOW(@0)
                 	SBCI R31,HIGH(@0)
                 	SBCI R22,BYTE3(@0)
                 	SBCI R23,BYTE4(@0)
                 	.ENDM
                 
                 	.MACRO __SUBD2N
                 	SUBI R26,LOW(@0)
                 	SBCI R27,HIGH(@0)
                 	SBCI R24,BYTE3(@0)
                 	SBCI R25,BYTE4(@0)
                 	.ENDM
                 
                 	.MACRO __ANDBMNN
                 	LDS  R30,@0+(@1)
                 	ANDI R30,LOW(@2)
                 	STS  @0+(@1),R30
                 	.ENDM
                 
                 	.MACRO __ANDWMNN
                 	LDS  R30,@0+(@1)
                 	ANDI R30,LOW(@2)
                 	STS  @0+(@1),R30
                 	LDS  R30,@0+(@1)+1
                 	ANDI R30,HIGH(@2)
                 	STS  @0+(@1)+1,R30
                 	.ENDM
                 
                 	.MACRO __ANDD1N
                 	ANDI R30,LOW(@0)
                 	ANDI R31,HIGH(@0)
                 	ANDI R22,BYTE3(@0)
                 	ANDI R23,BYTE4(@0)
                 	.ENDM
                 
                 	.MACRO __ANDD2N
                 	ANDI R26,LOW(@0)
                 	ANDI R27,HIGH(@0)
                 	ANDI R24,BYTE3(@0)
                 	ANDI R25,BYTE4(@0)
                 	.ENDM
                 
                 	.MACRO __ORBMNN
                 	LDS  R30,@0+(@1)
                 	ORI  R30,LOW(@2)
                 	STS  @0+(@1),R30
                 	.ENDM
                 
                 	.MACRO __ORWMNN
                 	LDS  R30,@0+(@1)
                 	ORI  R30,LOW(@2)
                 	STS  @0+(@1),R30
                 	LDS  R30,@0+(@1)+1
                 	ORI  R30,HIGH(@2)
                 	STS  @0+(@1)+1,R30
                 	.ENDM
                 
                 	.MACRO __ORD1N
                 	ORI  R30,LOW(@0)
                 	ORI  R31,HIGH(@0)
                 	ORI  R22,BYTE3(@0)
                 	ORI  R23,BYTE4(@0)
                 	.ENDM
                 
                 	.MACRO __ORD2N
                 	ORI  R26,LOW(@0)
                 	ORI  R27,HIGH(@0)
                 	ORI  R24,BYTE3(@0)
                 	ORI  R25,BYTE4(@0)
                 	.ENDM
                 
                 	.MACRO __DELAY_USB
                 	LDI  R24,LOW(@0)
                 __DELAY_USB_LOOP:
                 	DEC  R24
                 	BRNE __DELAY_USB_LOOP
                 	.ENDM
                 
                 	.MACRO __DELAY_USW
                 	LDI  R24,LOW(@0)
                 	LDI  R25,HIGH(@0)
                 __DELAY_USW_LOOP:
                 	SBIW R24,1
                 	BRNE __DELAY_USW_LOOP
                 	.ENDM
                 
                 	.MACRO __GETD1S
                 	LDD  R30,Y+@0
                 	LDD  R31,Y+@0+1
                 	LDD  R22,Y+@0+2
                 	LDD  R23,Y+@0+3
                 	.ENDM
                 
                 	.MACRO __GETD2S
                 	LDD  R26,Y+@0
                 	LDD  R27,Y+@0+1
                 	LDD  R24,Y+@0+2
                 	LDD  R25,Y+@0+3
                 	.ENDM
                 
                 	.MACRO __PUTD1S
                 	STD  Y+@0,R30
                 	STD  Y+@0+1,R31
                 	STD  Y+@0+2,R22
                 	STD  Y+@0+3,R23
                 	.ENDM
                 
                 	.MACRO __PUTD2S
                 	STD  Y+@0,R26
                 	STD  Y+@0+1,R27
                 	STD  Y+@0+2,R24
                 	STD  Y+@0+3,R25
                 	.ENDM
                 
                 	.MACRO __PUTDZ2
                 	STD  Z+@0,R26
                 	STD  Z+@0+1,R27
                 	STD  Z+@0+2,R24
                 	STD  Z+@0+3,R25
                 	.ENDM
                 
                 	.MACRO __CLRD1S
                 	STD  Y+@0,R30
                 	STD  Y+@0+1,R30
                 	STD  Y+@0+2,R30
                 	STD  Y+@0+3,R30
                 	.ENDM
                 
                 	.MACRO __POINTB1MN
                 	LDI  R30,LOW(@0+(@1))
                 	.ENDM
                 
                 	.MACRO __POINTW1MN
                 	LDI  R30,LOW(@0+(@1))
                 	LDI  R31,HIGH(@0+(@1))
                 	.ENDM
                 
                 	.MACRO __POINTD1M
                 	LDI  R30,LOW(@0)
                 	LDI  R31,HIGH(@0)
                 	LDI  R22,BYTE3(@0)
                 	LDI  R23,BYTE4(@0)
                 	.ENDM
                 
                 	.MACRO __POINTW1FN
                 	LDI  R30,LOW(2*@0+(@1))
                 	LDI  R31,HIGH(2*@0+(@1))
                 	.ENDM
                 
                 	.MACRO __POINTD1FN
                 	LDI  R30,LOW(2*@0+(@1))
                 	LDI  R31,HIGH(2*@0+(@1))
                 	LDI  R22,BYTE3(2*@0+(@1))
                 	LDI  R23,BYTE4(2*@0+(@1))
                 	.ENDM
                 
                 	.MACRO __POINTB2MN
                 	LDI  R26,LOW(@0+(@1))
                 	.ENDM
                 
                 	.MACRO __POINTW2MN
                 	LDI  R26,LOW(@0+(@1))
                 	LDI  R27,HIGH(@0+(@1))
                 	.ENDM
                 
                 	.MACRO __POINTW2FN
                 	LDI  R26,LOW(2*@0+(@1))
                 	LDI  R27,HIGH(2*@0+(@1))
                 	.ENDM
                 
                 	.MACRO __POINTD2FN
                 	LDI  R26,LOW(2*@0+(@1))
                 	LDI  R27,HIGH(2*@0+(@1))
                 	LDI  R24,BYTE3(2*@0+(@1))
                 	LDI  R25,BYTE4(2*@0+(@1))
                 	.ENDM
                 
                 	.MACRO __POINTBRM
                 	LDI  R@0,LOW(@1)
                 	.ENDM
                 
                 	.MACRO __POINTWRM
                 	LDI  R@0,LOW(@2)
                 	LDI  R@1,HIGH(@2)
                 	.ENDM
                 
                 	.MACRO __POINTBRMN
                 	LDI  R@0,LOW(@1+(@2))
                 	.ENDM
                 
                 	.MACRO __POINTWRMN
                 	LDI  R@0,LOW(@2+(@3))
                 	LDI  R@1,HIGH(@2+(@3))
                 	.ENDM
                 
                 	.MACRO __POINTWRFN
                 	LDI  R@0,LOW(@2*2+(@3))
                 	LDI  R@1,HIGH(@2*2+(@3))
                 	.ENDM
                 
                 	.MACRO __GETD1N
                 	LDI  R30,LOW(@0)
                 	LDI  R31,HIGH(@0)
                 	LDI  R22,BYTE3(@0)
                 	LDI  R23,BYTE4(@0)
                 	.ENDM
                 
                 	.MACRO __GETD2N
                 	LDI  R26,LOW(@0)
                 	LDI  R27,HIGH(@0)
                 	LDI  R24,BYTE3(@0)
                 	LDI  R25,BYTE4(@0)
                 	.ENDM
                 
                 	.MACRO __GETB1MN
                 	LDS  R30,@0+(@1)
                 	.ENDM
                 
                 	.MACRO __GETB1HMN
                 	LDS  R31,@0+(@1)
                 	.ENDM
                 
                 	.MACRO __GETW1MN
                 	LDS  R30,@0+(@1)
                 	LDS  R31,@0+(@1)+1
                 	.ENDM
                 
                 	.MACRO __GETD1MN
                 	LDS  R30,@0+(@1)
                 	LDS  R31,@0+(@1)+1
                 	LDS  R22,@0+(@1)+2
                 	LDS  R23,@0+(@1)+3
                 	.ENDM
                 
                 	.MACRO __GETBRMN
                 	LDS  R@0,@1+(@2)
                 	.ENDM
                 
                 	.MACRO __GETWRMN
                 	LDS  R@0,@2+(@3)
                 	LDS  R@1,@2+(@3)+1
                 	.ENDM
                 
                 	.MACRO __GETWRZ
                 	LDD  R@0,Z+@2
                 	LDD  R@1,Z+@2+1
                 	.ENDM
                 
                 	.MACRO __GETD2Z
                 	LDD  R26,Z+@0
                 	LDD  R27,Z+@0+1
                 	LDD  R24,Z+@0+2
                 	LDD  R25,Z+@0+3
                 	.ENDM
                 
                 	.MACRO __GETB2MN
                 	LDS  R26,@0+(@1)
                 	.ENDM
                 
                 	.MACRO __GETW2MN
                 	LDS  R26,@0+(@1)
                 	LDS  R27,@0+(@1)+1
                 	.ENDM
                 
                 	.MACRO __GETD2MN
                 	LDS  R26,@0+(@1)
                 	LDS  R27,@0+(@1)+1
                 	LDS  R24,@0+(@1)+2
                 	LDS  R25,@0+(@1)+3
                 	.ENDM
                 
                 	.MACRO __PUTB1MN
                 	STS  @0+(@1),R30
                 	.ENDM
                 
                 	.MACRO __PUTW1MN
                 	STS  @0+(@1),R30
                 	STS  @0+(@1)+1,R31
                 	.ENDM
                 
                 	.MACRO __PUTD1MN
                 	STS  @0+(@1),R30
                 	STS  @0+(@1)+1,R31
                 	STS  @0+(@1)+2,R22
                 	STS  @0+(@1)+3,R23
                 	.ENDM
                 
                 	.MACRO __PUTB1EN
                 	LDI  R26,LOW(@0+(@1))
                 	LDI  R27,HIGH(@0+(@1))
                 	CALL __EEPROMWRB
                 	.ENDM
                 
                 	.MACRO __PUTW1EN
                 	LDI  R26,LOW(@0+(@1))
                 	LDI  R27,HIGH(@0+(@1))
                 	CALL __EEPROMWRW
                 	.ENDM
                 
                 	.MACRO __PUTD1EN
                 	LDI  R26,LOW(@0+(@1))
                 	LDI  R27,HIGH(@0+(@1))
                 	CALL __EEPROMWRD
                 	.ENDM
                 
                 	.MACRO __PUTBR0MN
                 	STS  @0+(@1),R0
                 	.ENDM
                 
                 	.MACRO __PUTBMRN
                 	STS  @0+(@1),R@2
                 	.ENDM
                 
                 	.MACRO __PUTWMRN
                 	STS  @0+(@1),R@2
                 	STS  @0+(@1)+1,R@3
                 	.ENDM
                 
                 	.MACRO __PUTBZR
                 	STD  Z+@1,R@0
                 	.ENDM
                 
                 	.MACRO __PUTWZR
                 	STD  Z+@2,R@0
                 	STD  Z+@2+1,R@1
                 	.ENDM
                 
                 	.MACRO __GETW1R
                 	MOV  R30,R@0
                 	MOV  R31,R@1
                 	.ENDM
                 
                 	.MACRO __GETW2R
                 	MOV  R26,R@0
                 	MOV  R27,R@1
                 	.ENDM
                 
                 	.MACRO __GETWRN
                 	LDI  R@0,LOW(@2)
                 	LDI  R@1,HIGH(@2)
                 	.ENDM
                 
                 	.MACRO __PUTW1R
                 	MOV  R@0,R30
                 	MOV  R@1,R31
                 	.ENDM
                 
                 	.MACRO __PUTW2R
                 	MOV  R@0,R26
                 	MOV  R@1,R27
                 	.ENDM
                 
                 	.MACRO __ADDWRN
                 	SUBI R@0,LOW(-@2)
                 	SBCI R@1,HIGH(-@2)
                 	.ENDM
                 
                 	.MACRO __ADDWRR
                 	ADD  R@0,R@2
                 	ADC  R@1,R@3
                 	.ENDM
                 
                 	.MACRO __SUBWRN
                 	SUBI R@0,LOW(@2)
                 	SBCI R@1,HIGH(@2)
                 	.ENDM
                 
                 	.MACRO __SUBWRR
                 	SUB  R@0,R@2
                 	SBC  R@1,R@3
                 	.ENDM
                 
                 	.MACRO __ANDWRN
                 	ANDI R@0,LOW(@2)
                 	ANDI R@1,HIGH(@2)
                 	.ENDM
                 
                 	.MACRO __ANDWRR
                 	AND  R@0,R@2
                 	AND  R@1,R@3
                 	.ENDM
                 
                 	.MACRO __ORWRN
                 	ORI  R@0,LOW(@2)
                 	ORI  R@1,HIGH(@2)
                 	.ENDM
                 
                 	.MACRO __ORWRR
                 	OR   R@0,R@2
                 	OR   R@1,R@3
                 	.ENDM
                 
                 	.MACRO __EORWRR
                 	EOR  R@0,R@2
                 	EOR  R@1,R@3
                 	.ENDM
                 
                 	.MACRO __GETWRS
                 	LDD  R@0,Y+@2
                 	LDD  R@1,Y+@2+1
                 	.ENDM
                 
                 	.MACRO __PUTBSR
                 	STD  Y+@1,R@0
                 	.ENDM
                 
                 	.MACRO __PUTWSR
                 	STD  Y+@2,R@0
                 	STD  Y+@2+1,R@1
                 	.ENDM
                 
                 	.MACRO __MOVEWRR
                 	MOV  R@0,R@2
                 	MOV  R@1,R@3
                 	.ENDM
                 
                 	.MACRO __INWR
                 	IN   R@0,@2
                 	IN   R@1,@2+1
                 	.ENDM
                 
                 	.MACRO __OUTWR
                 	OUT  @2+1,R@1
                 	OUT  @2,R@0
                 	.ENDM
                 
                 	.MACRO __GETBRPF
                 	OUT  RAMPZ,R22
                 	ELPM R@0,Z
                 	.ENDM
                 
                 	.MACRO __GETBRPF_INC
                 	OUT  RAMPZ,R22
                 	ELPM R@0,Z+
                 	.ENDM
                 
                 	.MACRO __CALL1MN
                 	LDS  R30,@0+(@1)
                 	LDS  R31,@0+(@1)+1
                 	ICALL
                 	.ENDM
                 
                 	.MACRO __CALL1FN
                 	LDI  R30,LOW(2*@0+(@1))
                 	LDI  R31,HIGH(2*@0+(@1))
                 	CALL __GETW1PF
                 	ICALL
                 	.ENDM
                 
                 	.MACRO __CALL2EN
                 	PUSH R26
                 	PUSH R27
                 	LDI  R26,LOW(@0+(@1))
                 	LDI  R27,HIGH(@0+(@1))
                 	CALL __EEPROMRDW
                 	POP  R27
                 	POP  R26
                 	ICALL
                 	.ENDM
                 
                 	.MACRO __CALL2EX
                 	SUBI R26,LOW(-@0)
                 	SBCI R27,HIGH(-@0)
                 	CALL __EEPROMRDD
                 	ICALL
                 	.ENDM
                 
                 	.MACRO __GETW1STACK
                 	IN   R30,SPL
                 	IN   R31,SPH
                 	ADIW R30,@0+1
                 	LD   R0,Z+
                 	LD   R31,Z
                 	MOV  R30,R0
                 	.ENDM
                 
                 	.MACRO __GETD1STACK
                 	IN   R30,SPL
                 	IN   R31,SPH
                 	ADIW R30,@0+1
                 	LD   R0,Z+
                 	LD   R1,Z+
                 	LD   R22,Z
                 	MOVW R30,R0
                 	.ENDM
                 
                 	.MACRO __NBST
                 	BST  R@0,@1
                 	IN   R30,SREG
                 	LDI  R31,0x40
                 	EOR  R30,R31
                 	OUT  SREG,R30
                 	.ENDM
                 
                 
                 	.MACRO __PUTB1SN
                 	LDD  R26,Y+@0
                 	LDD  R27,Y+@0+1
                 	SUBI R26,LOW(-@1)
                 	SBCI R27,HIGH(-@1)
                 	ST   X,R30
                 	.ENDM
                 
                 	.MACRO __PUTW1SN
                 	LDD  R26,Y+@0
                 	LDD  R27,Y+@0+1
                 	SUBI R26,LOW(-@1)
                 	SBCI R27,HIGH(-@1)
                 	ST   X+,R30
                 	ST   X,R31
                 	.ENDM
                 
                 	.MACRO __PUTD1SN
                 	LDD  R26,Y+@0
                 	LDD  R27,Y+@0+1
                 	SUBI R26,LOW(-@1)
                 	SBCI R27,HIGH(-@1)
                 	CALL __PUTDP1
                 	.ENDM
                 
                 	.MACRO __PUTB1SNS
                 	LDD  R26,Y+@0
                 	LDD  R27,Y+@0+1
                 	ADIW R26,@1
                 	ST   X,R30
                 	.ENDM
                 
                 	.MACRO __PUTW1SNS
                 	LDD  R26,Y+@0
                 	LDD  R27,Y+@0+1
                 	ADIW R26,@1
                 	ST   X+,R30
                 	ST   X,R31
                 	.ENDM
                 
                 	.MACRO __PUTD1SNS
                 	LDD  R26,Y+@0
                 	LDD  R27,Y+@0+1
                 	ADIW R26,@1
                 	CALL __PUTDP1
                 	.ENDM
                 
                 	.MACRO __PUTB1PMN
                 	LDS  R26,@0
                 	LDS  R27,@0+1
                 	SUBI R26,LOW(-@1)
                 	SBCI R27,HIGH(-@1)
                 	ST   X,R30
                 	.ENDM
                 
                 	.MACRO __PUTW1PMN
                 	LDS  R26,@0
                 	LDS  R27,@0+1
                 	SUBI R26,LOW(-@1)
                 	SBCI R27,HIGH(-@1)
                 	ST   X+,R30
                 	ST   X,R31
                 	.ENDM
                 
                 	.MACRO __PUTD1PMN
                 	LDS  R26,@0
                 	LDS  R27,@0+1
                 	SUBI R26,LOW(-@1)
                 	SBCI R27,HIGH(-@1)
                 	CALL __PUTDP1
                 	.ENDM
                 
                 	.MACRO __PUTB1PMNS
                 	LDS  R26,@0
                 	LDS  R27,@0+1
                 	ADIW R26,@1
                 	ST   X,R30
                 	.ENDM
                 
                 	.MACRO __PUTW1PMNS
                 	LDS  R26,@0
                 	LDS  R27,@0+1
                 	ADIW R26,@1
                 	ST   X+,R30
                 	ST   X,R31
                 	.ENDM
                 
                 	.MACRO __PUTD1PMNS
                 	LDS  R26,@0
                 	LDS  R27,@0+1
                 	ADIW R26,@1
                 	CALL __PUTDP1
                 	.ENDM
                 
                 	.MACRO __PUTB1RN
                 	MOVW R26,R@0
                 	SUBI R26,LOW(-@1)
                 	SBCI R27,HIGH(-@1)
                 	ST   X,R30
                 	.ENDM
                 
                 	.MACRO __PUTW1RN
                 	MOVW R26,R@0
                 	SUBI R26,LOW(-@1)
                 	SBCI R27,HIGH(-@1)
                 	ST   X+,R30
                 	ST   X,R31
                 	.ENDM
                 
                 	.MACRO __PUTD1RN
                 	MOVW R26,R@0
                 	SUBI R26,LOW(-@1)
                 	SBCI R27,HIGH(-@1)
                 	CALL __PUTDP1
                 	.ENDM
                 
                 	.MACRO __PUTB1RNS
                 	MOVW R26,R@0
                 	ADIW R26,@1
                 	ST   X,R30
                 	.ENDM
                 
                 	.MACRO __PUTW1RNS
                 	MOVW R26,R@0
                 	ADIW R26,@1
                 	ST   X+,R30
                 	ST   X,R31
                 	.ENDM
                 
                 	.MACRO __PUTD1RNS
                 	MOVW R26,R@0
                 	ADIW R26,@1
                 	CALL __PUTDP1
                 	.ENDM
                 
                 	.MACRO __PUTB1RON
                 	MOV  R26,R@0
                 	MOV  R27,R@1
                 	SUBI R26,LOW(-@2)
                 	SBCI R27,HIGH(-@2)
                 	ST   X,R30
                 	.ENDM
                 
                 	.MACRO __PUTW1RON
                 	MOV  R26,R@0
                 	MOV  R27,R@1
                 	SUBI R26,LOW(-@2)
                 	SBCI R27,HIGH(-@2)
                 	ST   X+,R30
                 	ST   X,R31
                 	.ENDM
                 
                 	.MACRO __PUTD1RON
                 	MOV  R26,R@0
                 	MOV  R27,R@1
                 	SUBI R26,LOW(-@2)
                 	SBCI R27,HIGH(-@2)
                 	CALL __PUTDP1
                 	.ENDM
                 
                 	.MACRO __PUTB1RONS
                 	MOV  R26,R@0
                 	MOV  R27,R@1
                 	ADIW R26,@2
                 	ST   X,R30
                 	.ENDM
                 
                 	.MACRO __PUTW1RONS
                 	MOV  R26,R@0
                 	MOV  R27,R@1
                 	ADIW R26,@2
                 	ST   X+,R30
                 	ST   X,R31
                 	.ENDM
                 
                 	.MACRO __PUTD1RONS
                 	MOV  R26,R@0
                 	MOV  R27,R@1
                 	ADIW R26,@2
                 	CALL __PUTDP1
                 	.ENDM
                 
                 
                 	.MACRO __GETB1SX
                 	MOVW R30,R28
                 	SUBI R30,LOW(-@0)
                 	SBCI R31,HIGH(-@0)
                 	LD   R30,Z
                 	.ENDM
                 
                 	.MACRO __GETB1HSX
                 	MOVW R30,R28
                 	SUBI R30,LOW(-@0)
                 	SBCI R31,HIGH(-@0)
                 	LD   R31,Z
                 	.ENDM
                 
                 	.MACRO __GETW1SX
                 	MOVW R30,R28
                 	SUBI R30,LOW(-@0)
                 	SBCI R31,HIGH(-@0)
                 	LD   R0,Z+
                 	LD   R31,Z
                 	MOV  R30,R0
                 	.ENDM
                 
                 	.MACRO __GETD1SX
                 	MOVW R30,R28
                 	SUBI R30,LOW(-@0)
                 	SBCI R31,HIGH(-@0)
                 	LD   R0,Z+
                 	LD   R1,Z+
                 	LD   R22,Z+
                 	LD   R23,Z
                 	MOVW R30,R0
                 	.ENDM
                 
                 	.MACRO __GETB2SX
                 	MOVW R26,R28
                 	SUBI R26,LOW(-@0)
                 	SBCI R27,HIGH(-@0)
                 	LD   R26,X
                 	.ENDM
                 
                 	.MACRO __GETW2SX
                 	MOVW R26,R28
                 	SUBI R26,LOW(-@0)
                 	SBCI R27,HIGH(-@0)
                 	LD   R0,X+
                 	LD   R27,X
                 	MOV  R26,R0
                 	.ENDM
                 
                 	.MACRO __GETD2SX
                 	MOVW R26,R28
                 	SUBI R26,LOW(-@0)
                 	SBCI R27,HIGH(-@0)
                 	LD   R0,X+
                 	LD   R1,X+
                 	LD   R24,X+
                 	LD   R25,X
                 	MOVW R26,R0
                 	.ENDM
                 
                 	.MACRO __GETBRSX
                 	MOVW R30,R28
                 	SUBI R30,LOW(-@1)
                 	SBCI R31,HIGH(-@1)
                 	LD   R@0,Z
                 	.ENDM
                 
                 	.MACRO __GETWRSX
                 	MOVW R30,R28
                 	SUBI R30,LOW(-@2)
                 	SBCI R31,HIGH(-@2)
                 	LD   R@0,Z+
                 	LD   R@1,Z
                 	.ENDM
                 
                 	.MACRO __GETBRSX2
                 	MOVW R26,R28
                 	SUBI R26,LOW(-@1)
                 	SBCI R27,HIGH(-@1)
                 	LD   R@0,X
                 	.ENDM
                 
                 	.MACRO __GETWRSX2
                 	MOVW R26,R28
                 	SUBI R26,LOW(-@2)
                 	SBCI R27,HIGH(-@2)
                 	LD   R@0,X+
                 	LD   R@1,X
                 	.ENDM
                 
                 	.MACRO __LSLW8SX
                 	MOVW R30,R28
                 	SUBI R30,LOW(-@0)
                 	SBCI R31,HIGH(-@0)
                 	LD   R31,Z
                 	CLR  R30
                 	.ENDM
                 
                 	.MACRO __PUTB1SX
                 	MOVW R26,R28
                 	SUBI R26,LOW(-@0)
                 	SBCI R27,HIGH(-@0)
                 	ST   X,R30
                 	.ENDM
                 
                 	.MACRO __PUTW1SX
                 	MOVW R26,R28
                 	SUBI R26,LOW(-@0)
                 	SBCI R27,HIGH(-@0)
                 	ST   X+,R30
                 	ST   X,R31
                 	.ENDM
                 
                 	.MACRO __PUTD1SX
                 	MOVW R26,R28
                 	SUBI R26,LOW(-@0)
                 	SBCI R27,HIGH(-@0)
                 	ST   X+,R30
                 	ST   X+,R31
                 	ST   X+,R22
                 	ST   X,R23
                 	.ENDM
                 
                 	.MACRO __CLRW1SX
                 	MOVW R26,R28
                 	SUBI R26,LOW(-@0)
                 	SBCI R27,HIGH(-@0)
                 	ST   X+,R30
                 	ST   X,R30
                 	.ENDM
                 
                 	.MACRO __CLRD1SX
                 	MOVW R26,R28
                 	SUBI R26,LOW(-@0)
                 	SBCI R27,HIGH(-@0)
                 	ST   X+,R30
                 	ST   X+,R30
                 	ST   X+,R30
                 	ST   X,R30
                 	.ENDM
                 
                 	.MACRO __PUTB2SX
                 	MOVW R30,R28
                 	SUBI R30,LOW(-@0)
                 	SBCI R31,HIGH(-@0)
                 	ST   Z,R26
                 	.ENDM
                 
                 	.MACRO __PUTW2SX
                 	MOVW R30,R28
                 	SUBI R30,LOW(-@0)
                 	SBCI R31,HIGH(-@0)
                 	ST   Z+,R26
                 	ST   Z,R27
                 	.ENDM
                 
                 	.MACRO __PUTD2SX
                 	MOVW R30,R28
                 	SUBI R30,LOW(-@0)
                 	SBCI R31,HIGH(-@0)
                 	ST   Z+,R26
                 	ST   Z+,R27
                 	ST   Z+,R24
                 	ST   Z,R25
                 	.ENDM
                 
                 	.MACRO __PUTBSRX
                 	MOVW R30,R28
                 	SUBI R30,LOW(-@1)
                 	SBCI R31,HIGH(-@1)
                 	ST   Z,R@0
                 	.ENDM
                 
                 	.MACRO __PUTWSRX
                 	MOVW R30,R28
                 	SUBI R30,LOW(-@2)
                 	SBCI R31,HIGH(-@2)
                 	ST   Z+,R@0
                 	ST   Z,R@1
                 	.ENDM
                 
                 	.MACRO __PUTB1SNX
                 	MOVW R26,R28
                 	SUBI R26,LOW(-@0)
                 	SBCI R27,HIGH(-@0)
                 	LD   R0,X+
                 	LD   R27,X
                 	MOV  R26,R0
                 	SUBI R26,LOW(-@1)
                 	SBCI R27,HIGH(-@1)
                 	ST   X,R30
                 	.ENDM
                 
                 	.MACRO __PUTW1SNX
                 	MOVW R26,R28
                 	SUBI R26,LOW(-@0)
                 	SBCI R27,HIGH(-@0)
                 	LD   R0,X+
                 	LD   R27,X
                 	MOV  R26,R0
                 	SUBI R26,LOW(-@1)
                 	SBCI R27,HIGH(-@1)
                 	ST   X+,R30
                 	ST   X,R31
                 	.ENDM
                 
                 	.MACRO __PUTD1SNX
                 	MOVW R26,R28
                 	SUBI R26,LOW(-@0)
                 	SBCI R27,HIGH(-@0)
                 	LD   R0,X+
                 	LD   R27,X
                 	MOV  R26,R0
                 	SUBI R26,LOW(-@1)
                 	SBCI R27,HIGH(-@1)
                 	ST   X+,R30
                 	ST   X+,R31
                 	ST   X+,R22
                 	ST   X,R23
                 	.ENDM
                 
                 	.MACRO __MULBRR
                 	MULS R@0,R@1
                 	MOVW R30,R0
                 	.ENDM
                 
                 	.MACRO __MULBRRU
                 	MUL  R@0,R@1
                 	MOVW R30,R0
                 	.ENDM
                 
                 	.MACRO __MULBRR0
                 	MULS R@0,R@1
                 	.ENDM
                 
                 	.MACRO __MULBRRU0
                 	MUL  R@0,R@1
                 	.ENDM
                 
                 	.MACRO __MULBNWRU
                 	LDI  R26,@2
                 	MUL  R26,R@0
                 	MOVW R30,R0
                 	MUL  R26,R@1
                 	ADD  R31,R0
                 	.ENDM
                 
                 ;GPIOR0 INITIALIZATION VALUE
                 	.EQU __GPIOR0_INIT=0x00
                 
                 	.CSEG
                 	.ORG 0x00
                 
                 ;START OF CODE MARKER
                 __START_OF_CODE:
                 
                 ;INTERRUPT VECTORS
000000 940c 012d 	JMP  __RESET
000002 940c 0000 	JMP  0x00
000004 940c 0000 	JMP  0x00
000006 940c 0000 	JMP  0x00
000008 940c 0000 	JMP  0x00
00000a 940c 0000 	JMP  0x00
00000c 940c 0000 	JMP  0x00
00000e 940c 0000 	JMP  0x00
000010 940c 0000 	JMP  0x00
000012 940c 0000 	JMP  0x00
000014 940c 0000 	JMP  0x00
000016 940c 0000 	JMP  0x00
000018 940c 0000 	JMP  0x00
00001a 940c 0000 	JMP  0x00
00001c 940c 0000 	JMP  0x00
00001e 940c 0000 	JMP  0x00
000020 940c 0000 	JMP  0x00
000022 940c 0278 	JMP  _timer1_compa_isr
000024 940c 0000 	JMP  0x00
000026 940c 0000 	JMP  0x00
000028 940c 0000 	JMP  0x00
00002a 940c 0000 	JMP  0x00
00002c 940c 0000 	JMP  0x00
00002e 940c 0000 	JMP  0x00
000030 940c 0000 	JMP  0x00
000032 940c 0000 	JMP  0x00
000034 940c 0000 	JMP  0x00
000036 940c 0000 	JMP  0x00
000038 940c 0000 	JMP  0x00
00003a 940c 0000 	JMP  0x00
00003c 940c 0000 	JMP  0x00
00003e 940c 0000 	JMP  0x00
000040 940c 0000 	JMP  0x00
000042 940c 0000 	JMP  0x00
000044 940c 0000 	JMP  0x00
000046 940c 0000 	JMP  0x00
000048 940c 0000 	JMP  0x00
00004a 940c 0000 	JMP  0x00
                 
                 _Letra0:
00004c bbc7
00004d bbbb
00004e bbbb
00004f bbbb      	.DB  0xC7,0xBB,0xBB,0xBB,0xBB,0xBB,0xBB,0xBB
D:\JavierJr\Documents\ISD\FebJun20\LabMicrocontroladores\CodeVision\P03_Scope\Debug\List\scope.asm(1151): warning: .cseg .db misalignment - padding zero byte
000050 00c7      	.DB  0xC7
                 _Letra1:
000051 8fef
000052 efef
000053 efef
000054 efef      	.DB  0xEF,0x8F,0xEF,0xEF,0xEF,0xEF,0xEF,0xEF
D:\JavierJr\Documents\ISD\FebJun20\LabMicrocontroladores\CodeVision\P03_Scope\Debug\List\scope.asm(1154): warning: .cseg .db misalignment - padding zero byte
000055 0083      	.DB  0x83
                 _Letra2:
000056 bbc7
000057 fbfb
000058 eff7
000059 bfdf      	.DB  0xC7,0xBB,0xFB,0xFB,0xF7,0xEF,0xDF,0xBF
D:\JavierJr\Documents\ISD\FebJun20\LabMicrocontroladores\CodeVision\P03_Scope\Debug\List\scope.asm(1157): warning: .cseg .db misalignment - padding zero byte
00005a 0083      	.DB  0x83
                 _Letra3:
00005b bbc7
00005c fbfb
00005d fbe7
00005e bbfb      	.DB  0xC7,0xBB,0xFB,0xFB,0xE7,0xFB,0xFB,0xBB
D:\JavierJr\Documents\ISD\FebJun20\LabMicrocontroladores\CodeVision\P03_Scope\Debug\List\scope.asm(1160): warning: .cseg .db misalignment - padding zero byte
00005f 00c7      	.DB  0xC7
                 _Letra4:
000060 e7f7
000061 d7e7
000062 b7d7
000063 f783      	.DB  0xF7,0xE7,0xE7,0xD7,0xD7,0xB7,0x83,0xF7
D:\JavierJr\Documents\ISD\FebJun20\LabMicrocontroladores\CodeVision\P03_Scope\Debug\List\scope.asm(1163): warning: .cseg .db misalignment - padding zero byte
000064 00e3      	.DB  0xE3
                 _Letra5:
000065 bf83
000066 bfbf
000067 fb87
000068 bbfb      	.DB  0x83,0xBF,0xBF,0xBF,0x87,0xFB,0xFB,0xBB
D:\JavierJr\Documents\ISD\FebJun20\LabMicrocontroladores\CodeVision\P03_Scope\Debug\List\scope.asm(1166): warning: .cseg .db misalignment - padding zero byte
000069 00c7      	.DB  0xC7
                 _Letra6:
00006a dfe7
00006b bfbf
00006c bb87
00006d bbbb      	.DB  0xE7,0xDF,0xBF,0xBF,0x87,0xBB,0xBB,0xBB
D:\JavierJr\Documents\ISD\FebJun20\LabMicrocontroladores\CodeVision\P03_Scope\Debug\List\scope.asm(1169): warning: .cseg .db misalignment - padding zero byte
00006e 00c7      	.DB  0xC7
                 _Letra7:
00006f bb83
000070 f7fb
000071 eff7
000072 dfef      	.DB  0x83,0xBB,0xFB,0xF7,0xF7,0xEF,0xEF,0xDF
D:\JavierJr\Documents\ISD\FebJun20\LabMicrocontroladores\CodeVision\P03_Scope\Debug\List\scope.asm(1172): warning: .cseg .db misalignment - padding zero byte
000073 00df      	.DB  0xDF
                 _Letra8:
000074 bbc7
000075 bbbb
000076 bbc7
000077 bbbb      	.DB  0xC7,0xBB,0xBB,0xBB,0xC7,0xBB,0xBB,0xBB
D:\JavierJr\Documents\ISD\FebJun20\LabMicrocontroladores\CodeVision\P03_Scope\Debug\List\scope.asm(1175): warning: .cseg .db misalignment - padding zero byte
000078 00c7      	.DB  0xC7
                 _Letra9:
000079 bbc7
00007a bbbb
00007b fbc3
00007c f7fb      	.DB  0xC7,0xBB,0xBB,0xBB,0xC3,0xFB,0xFB,0xF7
D:\JavierJr\Documents\ISD\FebJun20\LabMicrocontroladores\CodeVision\P03_Scope\Debug\List\scope.asm(1178): warning: .cseg .db misalignment - padding zero byte
00007d 00cf      	.DB  0xCF
                 _LetraH:
00007e dd88
00007f dddd
000080 ddc1
000081 dddd      	.DB  0x88,0xDD,0xDD,0xDD,0xC1,0xDD,0xDD,0xDD
D:\JavierJr\Documents\ISD\FebJun20\LabMicrocontroladores\CodeVision\P03_Scope\Debug\List\scope.asm(1181): warning: .cseg .db misalignment - padding zero byte
000082 0088      	.DB  0x88
                 _LetraZ:
000083 ffff
000084 81ff
000085 f7bb
000086 ddef      	.DB  0xFF,0xFF,0xFF,0x81,0xBB,0xF7,0xEF,0xDD
D:\JavierJr\Documents\ISD\FebJun20\LabMicrocontroladores\CodeVision\P03_Scope\Debug\List\scope.asm(1184): warning: .cseg .db misalignment - padding zero byte
000087 0081      	.DB  0x81
                 _k1:
000088 2220
000089 2b2a
00008a 5b2c
00008b 5d3d      	.DB  0x20,0x22,0x2A,0x2B,0x2C,0x5B,0x3D,0x5D
00008c 7f7c
D:\JavierJr\Documents\ISD\FebJun20\LabMicrocontroladores\CodeVision\P03_Scope\Debug\List\scope.asm(1187): warning: .cseg .db misalignment - padding zero byte
00008d 0000      	.DB  0x7C,0x7F,0x0
                 _vst_G101:
00008e 0400
00008f 0200
000090 0100
000091 0080      	.DB  0x0,0x4,0x0,0x2,0x0,0x1,0x80,0x0
000092 0040
000093 0020
000094 0010
000095 0008      	.DB  0x40,0x0,0x20,0x0,0x10,0x0,0x8,0x0
000096 0004
000097 0002
000098 0000      	.DB  0x4,0x0,0x2,0x0,0x0,0x0
                 _cst_G101:
000099 8000
00009a 4000
00009b 2000
00009c 1000      	.DB  0x0,0x80,0x0,0x40,0x0,0x20,0x0,0x10
00009d 0800
00009e 4000
00009f 2000
0000a0 1000      	.DB  0x0,0x8,0x0,0x40,0x0,0x20,0x0,0x10
0000a1 0800
0000a2 0400
0000a3 0200      	.DB  0x0,0x8,0x0,0x4,0x0,0x2
                 _tbl10_G102:
0000a4 2710
0000a5 03e8
0000a6 0064
0000a7 000a      	.DB  0x10,0x27,0xE8,0x3,0x64,0x0,0xA,0x0
0000a8 0001      	.DB  0x1,0x0
                 _tbl16_G102:
0000a9 1000
0000aa 0100
0000ab 0010
0000ac 0001      	.DB  0x0,0x10,0x0,0x1,0x10,0x0,0x1,0x0
                 
                 _0x3:
0000ad 0303
0000ae 0203
0000af 0c02
0000b0 0800      	.DB  0x3,0x3,0x3,0x2,0x2,0xC,0x0,0x8
0000b1 0100
0000b2 0600      	.DB  0x0,0x1,0x0,0x6
                 _0x28:
0000b3 3a30
0000b4 4d49
0000b5 3030
0000b6 2e30      	.DB  0x30,0x3A,0x49,0x4D,0x30,0x30,0x30,0x2E
0000b7 4d42
D:\JavierJr\Documents\ISD\FebJun20\LabMicrocontroladores\CodeVision\P03_Scope\Debug\List\scope.asm(1207): warning: .cseg .db misalignment - padding zero byte
0000b8 0050      	.DB  0x42,0x4D,0x50
                 _0x2A:
D:\JavierJr\Documents\ISD\FebJun20\LabMicrocontroladores\CodeVision\P03_Scope\Debug\List\scope.asm(1209): warning: .cseg .db misalignment - padding zero byte
0000b9 0080      	.DB  0x80
                 _0x2B:
D:\JavierJr\Documents\ISD\FebJun20\LabMicrocontroladores\CodeVision\P03_Scope\Debug\List\scope.asm(1211): warning: .cseg .db misalignment - padding zero byte
0000ba 00ff      	.DB  0xFF
                 _0x0:
0000bb 7244
0000bc 7669
0000bd 2065
0000be 6f6e      	.DB  0x44,0x72,0x69,0x76,0x65,0x20,0x6E,0x6F
0000bf 6420
0000c0 7465
0000c1 6365
0000c2 6174      	.DB  0x20,0x64,0x65,0x74,0x65,0x63,0x74,0x61
0000c3 6f64
0000c4 4400
0000c5 6972
0000c6 6576      	.DB  0x64,0x6F,0x0,0x44,0x72,0x69,0x76,0x65
0000c7 6320
0000c8 7265
0000c9 6172
0000ca 6f64      	.DB  0x20,0x63,0x65,0x72,0x72,0x61,0x64,0x6F
0000cb 4f00
0000cc 6570
0000cd 6e6e
0000ce 6e69      	.DB  0x0,0x4F,0x70,0x65,0x6E,0x6E,0x69,0x6E
0000cf 2067
0000d0 6964
0000d1 6b73
0000d2 2e2e      	.DB  0x67,0x20,0x64,0x69,0x73,0x6B,0x2E,0x2E
0000d3 002e
0000d4 6552
0000d5 6461
0000d6 0079      	.DB  0x2E,0x0,0x52,0x65,0x61,0x64,0x79,0x0
0000d7 6f4c
0000d8 6461
0000d9 6e69
0000da 2e67      	.DB  0x4C,0x6F,0x61,0x64,0x69,0x6E,0x67,0x2E
0000db 2e2e
0000dc 3000
0000dd 423a
0000de 5341      	.DB  0x2E,0x2E,0x0,0x30,0x3A,0x42,0x41,0x53
0000df 2e45
0000e0 4d42
0000e1 0050
0000e2 3a30      	.DB  0x45,0x2E,0x42,0x4D,0x50,0x0,0x30,0x3A
0000e3 4d49
0000e4 3025
0000e5 7533
0000e6 422e      	.DB  0x49,0x4D,0x25,0x30,0x33,0x75,0x2E,0x42
0000e7 504d
0000e8 4400
0000e9 6e6f
0000ea 0065      	.DB  0x4D,0x50,0x0,0x44,0x6F,0x6E,0x65,0x0
0000eb 6946
0000ec 656c
0000ed 6520
0000ee 7272      	.DB  0x46,0x69,0x6C,0x65,0x20,0x65,0x72,0x72
0000ef 726f
0000f0 6200
0000f1 7361
0000f2 2e65      	.DB  0x6F,0x72,0x0,0x62,0x61,0x73,0x65,0x2E
0000f3 6d62
0000f4 2070
0000f5 7265
0000f6 6f72      	.DB  0x62,0x6D,0x70,0x20,0x65,0x72,0x72,0x6F
0000f7 0072      	.DB  0x72,0x0
                 _0x2000003:
D:\JavierJr\Documents\ISD\FebJun20\LabMicrocontroladores\CodeVision\P03_Scope\Debug\List\scope.asm(1230): warning: .cseg .db misalignment - padding zero byte
0000f8 0001      	.DB  0x1
                 _0x20000FE:
D:\JavierJr\Documents\ISD\FebJun20\LabMicrocontroladores\CodeVision\P03_Scope\Debug\List\scope.asm(1232): warning: .cseg .db misalignment - padding zero byte
0000f9 0004      	.DB  0x4
                 _0x2020000:
0000fa feeb
0000fb 4d90
0000fc 4453
0000fd 534f      	.DB  0xEB,0xFE,0x90,0x4D,0x53,0x44,0x4F,0x53
0000fe 2e35
0000ff 0030
000100 4f4e
000101 4e20      	.DB  0x35,0x2E,0x30,0x0,0x4E,0x4F,0x20,0x4E
000102 4d41
000103 2045
000104 2020
000105 4620      	.DB  0x41,0x4D,0x45,0x20,0x20,0x20,0x20,0x46
000106 5441
000107 3233
000108 2020
000109 0020      	.DB  0x41,0x54,0x33,0x32,0x20,0x20,0x20,0x0
00010a 4f4e
00010b 4e20
00010c 4d41
00010d 2045      	.DB  0x4E,0x4F,0x20,0x4E,0x41,0x4D,0x45,0x20
00010e 2020
00010f 4620
000110 5441
000111 2020      	.DB  0x20,0x20,0x20,0x46,0x41,0x54,0x20,0x20
000112 2020
000113 0020      	.DB  0x20,0x20,0x20,0x0
                 
                 __GLOBAL_INI_TBL:
000114 000b      	.DW  0x0B
000115 0a14      	.DW  _fileName
000116 0166 0000 	.DD  _0x28*2
                 
000118 0001      	.DW  0x01
000119 0e76      	.DW  _k
00011a 0172 0000 	.DD  _0x2A*2
                 
00011c 0001      	.DW  0x01
00011d 0e78      	.DW  _temp
00011e 0174 0000 	.DD  _0x2B*2
                 
000120 000b      	.DW  0x0B
000121 0900      	.DW  _0x6A
000122 01b9 0000 	.DD  _0x0*2+67
                 
000124 0001      	.DW  0x01
000125 0f06      	.DW  _status_G100
000126 01f0 0000 	.DD  _0x2000003*2
                 
000128 0001      	.DW  0x01
000129 0f0a      	.DW  _flags_S100000C000
00012a 01f2 0000 	.DD  _0x20000FE*2
                 
                 _0xFFFFFFFF:
00012c 0000      	.DW  0
                 
                 #define __GLOBAL_INI_TBL_PRESENT 1
                 
                 __RESET:
00012d 94f8      	CLI
00012e 27ee      	CLR  R30
00012f bbef      	OUT  EECR,R30
                 
                 ;INTERRUPT VECTORS ARE PLACED
                 ;AT THE START OF FLASH
000130 e0f1      	LDI  R31,1
000131 bff5      	OUT  MCUCR,R31
000132 bfe5      	OUT  MCUCR,R30
                 
                 ;CLEAR R2-R14
000133 e08d      	LDI  R24,(14-2)+1
000134 e0a2      	LDI  R26,2
000135 27bb      	CLR  R27
                 __CLEAR_REG:
000136 93ed      	ST   X+,R30
000137 958a      	DEC  R24
000138 f7e9      	BRNE __CLEAR_REG
                 
                 ;CLEAR SRAM
000139 e080      	LDI  R24,LOW(__CLEAR_SRAM_SIZE)
00013a e290      	LDI  R25,HIGH(__CLEAR_SRAM_SIZE)
00013b e0a0      	LDI  R26,LOW(__SRAM_START)
00013c e0b1      	LDI  R27,HIGH(__SRAM_START)
                 __CLEAR_SRAM:
00013d 93ed      	ST   X+,R30
00013e 9701      	SBIW R24,1
00013f f7e9      	BRNE __CLEAR_SRAM
                 
                 ;GLOBAL VARIABLES INITIALIZATION
000140 e2e8      	LDI  R30,LOW(__GLOBAL_INI_TBL*2)
000141 e0f2      	LDI  R31,HIGH(__GLOBAL_INI_TBL*2)
000142 e0d0      	LDI  R29,BYTE3(__GLOBAL_INI_TBL*2)
                 __GLOBAL_INI_NEXT:
000143 bfdb      	OUT  RAMPZ,R29
000144 9187      	ELPM R24,Z+
000145 9197      	ELPM R25,Z+
000146 9700      	SBIW R24,0
000147 f081      	BREQ __GLOBAL_INI_END
000148 91a7      	ELPM R26,Z+
000149 91b7      	ELPM R27,Z+
00014a 9007      	ELPM R0,Z+
00014b 9017      	ELPM R1,Z+
00014c 91c7      	ELPM R28,Z+
00014d 91d7      	ELPM R29,Z+
00014e 01bf      	MOVW R22,R30
00014f b7db      	IN   R29,RAMPZ
000150 01f0      	MOVW R30,R0
000151 bfcb      	OUT  RAMPZ,R28
                 __GLOBAL_INI_LOOP:
000152 9007      	ELPM R0,Z+
000153 920d      	ST   X+,R0
000154 9701      	SBIW R24,1
000155 f7e1      	BRNE __GLOBAL_INI_LOOP
000156 01fb      	MOVW R30,R22
000157 cfeb      	RJMP __GLOBAL_INI_NEXT
                 __GLOBAL_INI_END:
                 
                 ;GPIOR0 INITIALIZATION
000158 e0e0      	LDI  R30,__GPIOR0_INIT
000159 bbee      	OUT  GPIOR0,R30
                 
                 ;HARDWARE STACK POINTER INITIALIZATION
00015a efef      	LDI  R30,LOW(__SRAM_END-__HEAP_SIZE)
00015b bfed      	OUT  SPL,R30
00015c e2e0      	LDI  R30,HIGH(__SRAM_END-__HEAP_SIZE)
00015d bfee      	OUT  SPH,R30
                 
                 ;DATA STACK POINTER INITIALIZATION
00015e e0c0      	LDI  R28,LOW(__SRAM_START+__DSTACK_SIZE)
00015f e0d9      	LDI  R29,HIGH(__SRAM_START+__DSTACK_SIZE)
                 
000160 940c 03d3 	JMP  _main
                 
                 	.ESEG
                 	.ORG 0
                 
                 	.DSEG
                 	.ORG 0x900
                 
                 	.CSEG
                 ;/*
                 ; * scope.c
                 ; *
                 ; * Created: 08/03/2020 06:58:19 p. m.
                 ; * Author: Chucho López Ortega
                 ; */
                 ;
                 ;// LCD config
                 ;#asm
                     .equ __lcd_port=0x11
                     .equ __lcd_EN=4
                     .equ __lcd_RS=5
                     .equ __lcd_D4=0
                     .equ __lcd_D5=1
                     .equ __lcd_D6=2
                     .equ __lcd_D7=3
                 ; 0000 0011 #endasm
                 ;
                 ;#include <90usb1286.h>
                 	#ifndef __SLEEP_DEFINED__
                 	#define __SLEEP_DEFINED__
                 	.EQU __se_bit=0x01
                 	.EQU __sm_mask=0x0E
                 	.EQU __sm_powerdown=0x04
                 	.EQU __sm_powersave=0x06
                 	.EQU __sm_standby=0x0C
                 	.EQU __sm_ext_standby=0x0E
                 	.EQU __sm_adc_noise_red=0x02
                 	.SET power_ctrl_reg=smcr
                 	#endif
                 ;#include <display.h>
                 
                 	.CSEG
                 _SetupLCD:
                 ; .FSTART _SetupLCD
000162 972c      	SBIW R28,12
000163 e08c      	LDI  R24,12
000164 e0a0      	LDI  R26,LOW(0)
000165 e0b0      	LDI  R27,HIGH(0)
000166 e5ea      	LDI  R30,LOW(_0x3*2)
000167 e0f1      	LDI  R31,HIGH(_0x3*2)
000168 e060      	LDI  R22,BYTE3(_0x3*2)
000169 940e 2117 	CALL __INITLOCB
00016b 930a      	ST   -Y,R16
                 ;	TableSetup -> Y+1
                 ;	i -> R16
                 ; 0000 0014     SBI __lcd_port-1,__lcd_EN
00016c 9a84          SBI __lcd_port-1,__lcd_EN
00016d 9a85          SBI __lcd_port-1,__lcd_RS
00016e 9a80          SBI __lcd_port-1,__lcd_D4
00016f 9a81          SBI __lcd_port-1,__lcd_D5
000170 9a82          SBI __lcd_port-1,__lcd_D6
000171 9a83          SBI __lcd_port-1,__lcd_D7
000172 e3a2      	LDI  R26,LOW(50)
000173 e0b0      	LDI  R27,0
000174 940e 1fab 	CALL _delay_ms
000176 e000      	LDI  R16,LOW(0)
                 _0x5:
000177 300c      	CPI  R16,12
000178 f468      	BRSH _0x6
000179 940e 1b12 	CALL SUBOPT_0x0
00017b 2fe0      	MOV  R30,R16
00017c e0f0      	LDI  R31,0
00017d 01de      	MOVW R26,R28
00017e 9611      	ADIW R26,1
00017f 0fae      	ADD  R26,R30
000180 1fbf      	ADC  R27,R31
000181 91ac      	LD   R26,X
000182 940e 1b16 	CALL SUBOPT_0x1
000184 5f0f      	SUBI R16,-1
000185 cff1      	RJMP _0x5
                 _0x6:
000186 e0ec      	LDI  R30,LOW(12)
000187 93e0 090b 	STS  _cursor,R30
000189 91a0 090b 	LDS  R26,_cursor
00018b d020      	RCALL _WriteComandLCD
00018c 8108      	LDD  R16,Y+0
00018d 962d      	ADIW R28,13
00018e 9508      	RET
                 ; .FEND
                 _PulseEn:
                 ; .FSTART _PulseEn
00018f 9a8c          SBI __lcd_port,__lcd_EN  // EN=1;
000190 988c          CBI __lcd_port,__lcd_EN // EN=0;
000191 9508      	RET
                 ; .FEND
                 _SendDataBitsLCD:
                 ; .FSTART _SendDataBitsLCD
000192 93aa      	ST   -Y,R26
                 ;	dato -> Y+0
000193 81e8      	LD   R30,Y
000194 70e8      	ANDI R30,LOW(0x8)
000195 f011      	BREQ _0x7
000196 9a8b      	SBI __lcd_port,__lcd_D7
000197 c001      	RJMP _0x8
                 _0x7:
000198 988b      	CBI __lcd_port,__lcd_D7
                 _0x8:
000199 81e8      	LD   R30,Y
00019a 70e4      	ANDI R30,LOW(0x4)
00019b f011      	BREQ _0x9
00019c 9a8a      	SBI __lcd_port,__lcd_D6
00019d c001      	RJMP _0xA
                 _0x9:
00019e 988a      	CBI __lcd_port,__lcd_D6
                 _0xA:
00019f 81e8      	LD   R30,Y
0001a0 70e2      	ANDI R30,LOW(0x2)
0001a1 f011      	BREQ _0xB
0001a2 9a89      	SBI __lcd_port,__lcd_D5
0001a3 c001      	RJMP _0xC
                 _0xB:
0001a4 9889      	CBI __lcd_port,__lcd_D5
                 _0xC:
0001a5 81e8      	LD   R30,Y
0001a6 70e1      	ANDI R30,LOW(0x1)
0001a7 f011      	BREQ _0xD
0001a8 9a88      	SBI __lcd_port,__lcd_D4
0001a9 c001      	RJMP _0xE
                 _0xD:
0001aa 9888      	CBI __lcd_port,__lcd_D4
                 _0xE:
0001ab c07a      	RJMP _0x20A001A
                 ; .FEND
                 _WriteComandLCD:
                 ; .FSTART _WriteComandLCD
0001ac 93aa      	ST   -Y,R26
0001ad 930a      	ST   -Y,R16
                 ;	Comando -> Y+1
                 ;	tempComando -> R16
0001ae 988d      	CBI __lcd_port,__lcd_RS
0001af 940e 1b12 	CALL SUBOPT_0x0
0001b1 940e 1b1a 	CALL SUBOPT_0x2
0001b3 940e 1b21 	CALL SUBOPT_0x3
0001b5 dfd9      	RCALL _PulseEn
0001b6 8108      	LDD  R16,Y+0
0001b7 c057      	RJMP _0x20A001B
                 ; .FEND
                 _CharLCD:
                 ; .FSTART _CharLCD
0001b8 93aa      	ST   -Y,R26
0001b9 930a      	ST   -Y,R16
                 ;	dato -> Y+1
                 ;	tempdato -> R16
0001ba 9a8d      	SBI __lcd_port,__lcd_RS
0001bb 940e 1b12 	CALL SUBOPT_0x0
0001bd 940e 1b1a 	CALL SUBOPT_0x2
0001bf 940e 1b21 	CALL SUBOPT_0x3
0001c1 dfcd      	RCALL _PulseEn
0001c2 8108      	LDD  R16,Y+0
0001c3 c04b      	RJMP _0x20A001B
                 ; .FEND
                 _StringLCD:
                 ; .FSTART _StringLCD
0001c4 940e 20e3 	CALL __PUTPARD2
0001c6 930a      	ST   -Y,R16
                 ;	i -> R16
0001c7 e000      	LDI  R16,LOW(0)
                 _0x10:
0001c8 2fe0      	MOV  R30,R16
0001c9 5f0f      	SUBI R16,-1
0001ca 940e 1b28 	CALL SUBOPT_0x4
                +
0001cc bf6b     +OUT RAMPZ , R22
0001cd 91a6     +ELPM R26 , Z
                 	__GETBRPF 26
0001ce dfe9      	RCALL _CharLCD
0001cf 2fe0      	MOV  R30,R16
0001d0 940e 1b28 	CALL SUBOPT_0x4
                +
0001d2 bf6b     +OUT RAMPZ , R22
0001d3 91e6     +ELPM R30 , Z
                 	__GETBRPF 30
0001d4 30e0      	CPI  R30,0
0001d5 f791      	BRNE _0x10
0001d6 8108      	LDD  R16,Y+0
0001d7 9625      	ADIW R28,5
0001d8 9508      	RET
                 ; .FEND
                 ;	tiempo -> Y+1
                 ;	i -> R16
                 _StringLCDVar:
                 ; .FSTART _StringLCDVar
0001d9 93ba      	ST   -Y,R27
0001da 93aa      	ST   -Y,R26
0001db 930a      	ST   -Y,R16
                 ;	Mensaje -> Y+1
                 ;	i -> R16
0001dc e000      	LDI  R16,LOW(0)
                 _0x16:
0001dd 2fe0      	MOV  R30,R16
0001de 5f0f      	SUBI R16,-1
0001df 81a9      	LDD  R26,Y+1
0001e0 81ba      	LDD  R27,Y+1+1
0001e1 e0f0      	LDI  R31,0
0001e2 0fae      	ADD  R26,R30
0001e3 1fbf      	ADC  R27,R31
0001e4 91ac      	LD   R26,X
0001e5 dfd2      	RCALL _CharLCD
0001e6 81a9      	LDD  R26,Y+1
0001e7 81ba      	LDD  R27,Y+1+1
0001e8 27ee      	CLR  R30
0001e9 0fa0      	ADD  R26,R16
0001ea 1fbe      	ADC  R27,R30
0001eb 91ec      	LD   R30,X
0001ec 30e0      	CPI  R30,0
0001ed f779      	BRNE _0x16
0001ee c1a9      	RJMP _0x20A0019
                 ; .FEND
                 _EraseLCD:
                 ; .FSTART _EraseLCD
0001ef e0a1      	LDI  R26,LOW(1)
0001f0 dfbb      	RCALL _WriteComandLCD
0001f1 9508      	RET
                 ; .FEND
                 _MoveCursor:
                 ; .FSTART _MoveCursor
0001f2 93aa      	ST   -Y,R26
                 ;	x -> Y+1
                 ;	y -> Y+0
0001f3 81e8      	LD   R30,Y
0001f4 e0f0      	LDI  R31,0
0001f5 9730      	SBIW R30,0
0001f6 f419      	BRNE _0x1B
0001f7 81a9      	LDD  R26,Y+1
0001f8 58a0      	SUBI R26,-LOW(128)
0001f9 c014      	RJMP _0x8A
                 _0x1B:
0001fa 30e1      	CPI  R30,LOW(0x1)
0001fb e0a0      	LDI  R26,HIGH(0x1)
0001fc 07fa      	CPC  R31,R26
0001fd f419      	BRNE _0x1C
0001fe 81a9      	LDD  R26,Y+1
0001ff 54a0      	SUBI R26,-LOW(192)
000200 c00d      	RJMP _0x8A
                 _0x1C:
000201 30e2      	CPI  R30,LOW(0x2)
000202 e0a0      	LDI  R26,HIGH(0x2)
000203 07fa      	CPC  R31,R26
000204 f419      	BRNE _0x1D
000205 81a9      	LDD  R26,Y+1
000206 56ac      	SUBI R26,-LOW(148)
000207 c006      	RJMP _0x8A
                 _0x1D:
000208 30e3      	CPI  R30,LOW(0x3)
000209 e0a0      	LDI  R26,HIGH(0x3)
00020a 07fa      	CPC  R31,R26
00020b f419      	BRNE _0x1A
00020c 81a9      	LDD  R26,Y+1
00020d 52ac      	SUBI R26,-LOW(212)
                 _0x8A:
00020e df9d      	RCALL _WriteComandLCD
                 _0x1A:
                 _0x20A001B:
00020f 9622      	ADIW R28,2
000210 9508      	RET
                 ; .FEND
                 ;	NoCaracter -> Y+3
                 ;	datos -> Y+1
                 ;	i -> R16
                 ;#include <delay.h>
                 ;#include <stdio.h>
                 ;#include <ff.h>
                 ;
                 ;// Voltage Reference: AVCC pin
                 ;#define ADC_VREF_TYPE ((0<<REFS1) | (1<<REFS0) | (1<<ADLAR))
                 ;
                 ;// Read the 8 most significant bits
                 ;// of the AD conversion result
                 ;unsigned char read_adc(unsigned char adc_input)
                 ; 0000 001F {
                 _read_adc:
                 ; .FSTART _read_adc
                 ; 0000 0020 ADMUX=adc_input | ADC_VREF_TYPE;
000211 93aa      	ST   -Y,R26
                 ;	adc_input -> Y+0
000212 81e8      	LD   R30,Y
000213 66e0      	ORI  R30,LOW(0x60)
000214 93e0 007c 	STS  124,R30
                 ; 0000 0021 // Delay needed for the stabilization of the ADC input voltage
                 ; 0000 0022 //delay_us(10);
                 ; 0000 0023 // Start the AD conversion
                 ; 0000 0024 ADCSRA|=(1<<ADSC);
000216 91e0 007a 	LDS  R30,122
000218 64e0      	ORI  R30,0x40
000219 93e0 007a 	STS  122,R30
                 ; 0000 0025 // Wait for the AD conversion to complete
                 ; 0000 0026 while ((ADCSRA & (1<<ADIF))==0);
                 _0x22:
00021b 91e0 007a 	LDS  R30,122
00021d 71e0      	ANDI R30,LOW(0x10)
00021e f3e1      	BREQ _0x22
                 ; 0000 0027 ADCSRA|=(1<<ADIF);
00021f 91e0 007a 	LDS  R30,122
000221 61e0      	ORI  R30,0x10
000222 93e0 007a 	STS  122,R30
                 ; 0000 0028 return ADCH;
000224 91e0 0079 	LDS  R30,121
                 _0x20A001A:
000226 9621      	ADIW R28,1
000227 9508      	RET
                 ; 0000 0029 }
                 ; .FEND
                 ;
                 ;int freq;
                 ;void getFrequency(){
                 ; 0000 002C void getFrequency(){
                 _getFrequency:
                 ; .FSTART _getFrequency
                 ; 0000 002D     TCCR3A = 0b00000000;
000228 e0e0      	LDI  R30,LOW(0)
000229 93e0 0090 	STS  144,R30
                 ; 0000 002E     TCCR3B = 0x07;
00022b e0e7      	LDI  R30,LOW(7)
00022c 93e0 0091 	STS  145,R30
                 ; 0000 002F     TCNT3H = 0;
00022e e0e0      	LDI  R30,LOW(0)
00022f 93e0 0095 	STS  149,R30
                 ; 0000 0030     TCNT3L = 0;
000231 93e0 0094 	STS  148,R30
                 ; 0000 0031     delay_ms(998);
000233 eea6      	LDI  R26,LOW(998)
000234 e0b3      	LDI  R27,HIGH(998)
000235 940e 1fab 	CALL _delay_ms
                 ; 0000 0032     delay_us(870);
                +
000237 e988     +LDI R24 , LOW ( 3480 )
000238 e09d     +LDI R25 , HIGH ( 3480 )
                +__DELAY_USW_LOOP :
000239 9701     +SBIW R24 , 1
00023a f7f1     +BRNE __DELAY_USW_LOOP
                 	__DELAY_USW 3480
                 ; 0000 0033     freq = TCNT3L + TCNT3H*256;
00023b 91e0 0094 	LDS  R30,148
00023d e0f0      	LDI  R31,0
00023e 01df      	MOVW R26,R30
00023f 91e0 0095 	LDS  R30,149
000241 2ffe      	MOV  R31,R30
000242 e0e0      	LDI  R30,0
000243 0fea      	ADD  R30,R26
000244 1ffb      	ADC  R31,R27
000245 93e0 0910 	STS  _freq,R30
000247 93f0 0911 	STS  _freq+1,R31
                 ; 0000 0034 }
000249 9508      	RET
                 ; .FEND
                 ;
                 ;int i, buffer[128];
                 ;// Fills the array to sample the scope shot
                 ;void scope(){
                 ; 0000 0038 void scope(){
                 _scope:
                 ; .FSTART _scope
                 ; 0000 0039     #asm("cli")
00024a 94f8      	cli
                 ; 0000 003A     for (i=0;i<128;i++){
00024b 940e 1b32 	CALL SUBOPT_0x5
                 _0x26:
00024d 940e 1b38 	CALL SUBOPT_0x6
00024f 38a0      	CPI  R26,LOW(0x80)
000250 e0e0      	LDI  R30,HIGH(0x80)
000251 07be      	CPC  R27,R30
000252 f51c      	BRGE _0x27
                 ; 0000 003B         buffer[i] = read_adc(7);
000253 91e0 0912 	LDS  R30,_i
000255 91f0 0913 	LDS  R31,_i+1
000257 940e 1b3d 	CALL SUBOPT_0x7
000259 0fea      	ADD  R30,R26
00025a 1ffb      	ADC  R31,R27
00025b 93ff      	PUSH R31
00025c 93ef      	PUSH R30
00025d e0a7      	LDI  R26,LOW(7)
00025e dfb2      	RCALL _read_adc
00025f 91af      	POP  R26
000260 91bf      	POP  R27
000261 e0f0      	LDI  R31,0
000262 93ed      	ST   X+,R30
000263 93fc      	ST   X,R31
                 ; 0000 003C         delay_us(21);
                +
000264 e780     +LDI R24 , LOW ( 112 )
                +__DELAY_USB_LOOP :
000265 958a     +DEC R24
000266 f7f1     +BRNE __DELAY_USB_LOOP
                 	__DELAY_USB 112
                 ; 0000 003D         #asm("NOP");
000267 0000      	NOP
                 ; 0000 003E         #asm("NOP");
000268 0000      	NOP
                 ; 0000 003F         #asm("NOP");
000269 0000      	NOP
                 ; 0000 0040         #asm("NOP");
00026a 0000      	NOP
                 ; 0000 0041         #asm("NOP");
00026b 0000      	NOP
                 ; 0000 0042         #asm("NOP");
00026c 0000      	NOP
                 ; 0000 0043         #asm("NOP");
00026d 0000      	NOP
                 ; 0000 0044         #asm("NOP");
00026e 0000      	NOP
                 ; 0000 0045         #asm("NOP");
00026f 0000      	NOP
                 ; 0000 0046         #asm("NOP");
000270 0000      	NOP
                 ; 0000 0047         #asm("NOP");
000271 0000      	NOP
                 ; 0000 0048         #asm("NOP");
000272 0000      	NOP
                 ; 0000 0049     }
000273 940e 1b42 	CALL SUBOPT_0x8
000275 cfd7      	RJMP _0x26
                 _0x27:
                 ; 0000 004A     #asm("sei")
000276 9478      	sei
                 ; 0000 004B }
000277 9508      	RET
                 ; .FEND
                 ;
                 ;// SD
                 ;char fileName[]  = "0:IM000.BMP";
                 
                 	.DSEG
                 ;unsigned int br;
                 ;/* will hold the information for logical drive 0: */
                 ;FATFS drive;
                 ;FIL archivo; // file objects
                 ;
                 ;interrupt [TIM1_COMPA] void timer1_compa_isr(void)
                 ; 0000 0055 {
                 
                 	.CSEG
                 _timer1_compa_isr:
                 ; .FSTART _timer1_compa_isr
000278 920a      	ST   -Y,R0
000279 921a      	ST   -Y,R1
00027a 92fa      	ST   -Y,R15
00027b 936a      	ST   -Y,R22
00027c 937a      	ST   -Y,R23
00027d 938a      	ST   -Y,R24
00027e 939a      	ST   -Y,R25
00027f 93aa      	ST   -Y,R26
000280 93ba      	ST   -Y,R27
000281 93ea      	ST   -Y,R30
000282 93fa      	ST   -Y,R31
000283 b7eb      	IN   R30,RAMPZ
000284 93ea      	ST   -Y,R30
000285 b7ef      	IN   R30,SREG
000286 93ea      	ST   -Y,R30
                 ; 0000 0056 disk_timerproc();
000287 940e 0a60 	CALL _disk_timerproc
                 ; 0000 0057 /* MMC/SD/SD HC card access low level timing function */
                 ; 0000 0058 }
000289 91e9      	LD   R30,Y+
00028a bfef      	OUT  SREG,R30
00028b 91e9      	LD   R30,Y+
00028c bfeb      	OUT  RAMPZ,R30
00028d 91f9      	LD   R31,Y+
00028e 91e9      	LD   R30,Y+
00028f 91b9      	LD   R27,Y+
000290 91a9      	LD   R26,Y+
000291 9199      	LD   R25,Y+
000292 9189      	LD   R24,Y+
000293 9179      	LD   R23,Y+
000294 9169      	LD   R22,Y+
000295 90f9      	LD   R15,Y+
000296 9019      	LD   R1,Y+
000297 9009      	LD   R0,Y+
000298 9518      	RETI
                 ; .FEND
                 ;
                 ;flash unsigned char Letra0[9] ={0xC7,0xBB,0xBB,0xBB,0xBB,0xBB,0xBB,0xBB,0xC7};
                 ;flash unsigned char Letra1[9] ={0xEF,0x8F,0xEF,0xEF,0xEF,0xEF,0xEF,0xEF,0x83};
                 ;flash unsigned char Letra2[9] ={0xC7,0xBB,0xFB,0xFB,0xF7,0xEF,0xDF,0xBF,0x83};
                 ;flash unsigned char Letra3[9] ={0xC7,0xBB,0xFB,0xFB,0xE7,0xFB,0xFB,0xBB,0xC7};
                 ;flash unsigned char Letra4[9] ={0xF7,0xE7,0xE7,0xD7,0xD7,0xB7,0x83,0xF7,0xE3};
                 ;flash unsigned char Letra5[9] ={0x83,0xBF,0xBF,0xBF,0x87,0xFB,0xFB,0xBB,0xC7};
                 ;flash unsigned char Letra6[9] ={0xE7,0xDF,0xBF,0xBF,0x87,0xBB,0xBB,0xBB,0xC7};
                 ;flash unsigned char Letra7[9] ={0x83,0xBB,0xFB,0xF7,0xF7,0xEF,0xEF,0xDF,0xDF};
                 ;flash unsigned char Letra8[9] ={0xC7,0xBB,0xBB,0xBB,0xC7,0xBB,0xBB,0xBB,0xC7};
                 ;flash unsigned char Letra9[9] ={0xC7,0xBB,0xBB,0xBB,0xC3,0xFB,0xFB,0xF7,0xCF};
                 ;flash unsigned char LetraH[9] ={0x88,0xDD,0xDD,0xDD,0xC1,0xDD,0xDD,0xDD,0x88};
                 ;flash unsigned char LetraZ[9] ={0xFF,0xFF,0xFF,0x81,0xBB,0xF7,0xEF,0xDD,0x81};
                 ;
                 ;void sd_openDrive(){
                 ; 0000 0067 void sd_openDrive(){
                 _sd_openDrive:
                 ; .FSTART _sd_openDrive
                 ; 0000 0068     if (f_mount(0,&drive)!=FR_OK){
000299 e0e0      	LDI  R30,LOW(0)
00029a 93ea      	ST   -Y,R30
00029b e2a2      	LDI  R26,LOW(_drive)
00029c e0ba      	LDI  R27,HIGH(_drive)
00029d 940e 13e7 	CALL _f_mount
00029f 30e0      	CPI  R30,0
0002a0 f039      	BREQ _0x29
                 ; 0000 0069         EraseLCD();
0002a1 940e 1b4a 	CALL SUBOPT_0x9
                 ; 0000 006A         MoveCursor(0,0);
                 ; 0000 006B         StringLCD("Drive no detectado");
                +
0002a3 e7a6     +LDI R26 , LOW ( 2 * _0x0 + ( 0 ) )
0002a4 e0b1     +LDI R27 , HIGH ( 2 * _0x0 + ( 0 ) )
0002a5 e080     +LDI R24 , BYTE3 ( 2 * _0x0 + ( 0 ) )
0002a6 e090     +LDI R25 , BYTE4 ( 2 * _0x0 + ( 0 ) )
                 	__POINTD2FN _0x0,0
0002a7 df1c      	RCALL _StringLCD
                 ; 0000 006C     }
                 ; 0000 006D }
                 _0x29:
0002a8 9508      	RET
                 ; .FEND
                 ;void sd_closeDrive(){
                 ; 0000 006E void sd_closeDrive(){
                 _sd_closeDrive:
                 ; .FSTART _sd_closeDrive
                 ; 0000 006F     f_mount(0, 0); //Cerrar drive de SD
0002a9 e0e0      	LDI  R30,LOW(0)
0002aa 93ea      	ST   -Y,R30
0002ab e0a0      	LDI  R26,LOW(0)
0002ac e0b0      	LDI  R27,0
0002ad 940e 13e7 	CALL _f_mount
                 ; 0000 0070     EraseLCD();
0002af 940e 1b4a 	CALL SUBOPT_0x9
                 ; 0000 0071     MoveCursor(0,0);
                 ; 0000 0072     StringLCD("Drive cerrado");
                +
0002b1 e8a9     +LDI R26 , LOW ( 2 * _0x0 + ( 19 ) )
0002b2 e0b1     +LDI R27 , HIGH ( 2 * _0x0 + ( 19 ) )
0002b3 e080     +LDI R24 , BYTE3 ( 2 * _0x0 + ( 19 ) )
0002b4 e090     +LDI R25 , BYTE4 ( 2 * _0x0 + ( 19 ) )
                 	__POINTD2FN _0x0,19
0002b5 940e 1b51 	CALL SUBOPT_0xA
                 ; 0000 0073     delay_ms(1000);
                 ; 0000 0074 }
0002b7 9508      	RET
                 ; .FEND
                 ;
                 ;int j;
                 ;int k = 0x80;
                 
                 	.DSEG
                 ;char temp = 0xFF;
                 ;char encabezado[62];
                 ;
                 ;
                 ;char output[64];
                 ;char aNum[9];
                 ;void getNum(int num){
                 ; 0000 007E void getNum(int num){
                 
                 	.CSEG
                 _getNum:
                 ; .FSTART _getNum
                 ; 0000 007F     char i;
                 ; 0000 0080     switch(num){
0002b8 93ba      	ST   -Y,R27
0002b9 93aa      	ST   -Y,R26
0002ba 930a      	ST   -Y,R16
                 ;	num -> Y+1
                 ;	i -> R16
0002bb 81e9      	LDD  R30,Y+1
0002bc 81fa      	LDD  R31,Y+1+1
                 ; 0000 0081         case 0:
0002bd 9730      	SBIW R30,0
0002be f451      	BRNE _0x2F
                 ; 0000 0082             for(i=0;i<9;i++)
0002bf e000      	LDI  R16,LOW(0)
                 _0x31:
0002c0 3009      	CPI  R16,9
0002c1 f430      	BRSH _0x32
                 ; 0000 0083             aNum[i] = Letra0[i];
0002c2 940e 1b57 	CALL SUBOPT_0xB
0002c4 940e 1b60 	CALL SUBOPT_0xC
0002c6 5f0f      	SUBI R16,-1
0002c7 cff8      	RJMP _0x31
                 _0x32:
                 ; 0000 0084 break;
0002c8 c0cf      	RJMP _0x2E
                 ; 0000 0085         case 1:
                 _0x2F:
0002c9 30e1      	CPI  R30,LOW(0x1)
0002ca e0a0      	LDI  R26,HIGH(0x1)
0002cb 07fa      	CPC  R31,R26
0002cc f471      	BRNE _0x33
                 ; 0000 0086             for(i=0;i<9;i++)
0002cd e000      	LDI  R16,LOW(0)
                 _0x35:
0002ce 3009      	CPI  R16,9
0002cf f450      	BRSH _0x36
                 ; 0000 0087             aNum[i] = Letra1[i];
0002d0 940e 1b57 	CALL SUBOPT_0xB
0002d2 55ee      	SUBI R30,LOW(-_Letra1*2)
0002d3 4fff      	SBCI R31,HIGH(-_Letra1*2)
0002d4 4f6f      	SBCI R22,BYTE3(-_Letra1*2)
                +
0002d5 bf6b     +OUT RAMPZ , R22
0002d6 91e6     +ELPM R30 , Z
                 	__GETBRPF 30
0002d7 93ec      	ST   X,R30
0002d8 5f0f      	SUBI R16,-1
0002d9 cff4      	RJMP _0x35
                 _0x36:
                 ; 0000 0088 break;
0002da c0bd      	RJMP _0x2E
                 ; 0000 0089         case 2:
                 _0x33:
0002db 30e2      	CPI  R30,LOW(0x2)
0002dc e0a0      	LDI  R26,HIGH(0x2)
0002dd 07fa      	CPC  R31,R26
0002de f471      	BRNE _0x37
                 ; 0000 008A             for(i=0;i<9;i++)
0002df e000      	LDI  R16,LOW(0)
                 _0x39:
0002e0 3009      	CPI  R16,9
0002e1 f450      	BRSH _0x3A
                 ; 0000 008B             aNum[i] = Letra2[i];
0002e2 940e 1b57 	CALL SUBOPT_0xB
0002e4 55e4      	SUBI R30,LOW(-_Letra2*2)
0002e5 4fff      	SBCI R31,HIGH(-_Letra2*2)
0002e6 4f6f      	SBCI R22,BYTE3(-_Letra2*2)
                +
0002e7 bf6b     +OUT RAMPZ , R22
0002e8 91e6     +ELPM R30 , Z
                 	__GETBRPF 30
0002e9 93ec      	ST   X,R30
0002ea 5f0f      	SUBI R16,-1
0002eb cff4      	RJMP _0x39
                 _0x3A:
                 ; 0000 008C break;
0002ec c0ab      	RJMP _0x2E
                 ; 0000 008D         case 3:
                 _0x37:
0002ed 30e3      	CPI  R30,LOW(0x3)
0002ee e0a0      	LDI  R26,HIGH(0x3)
0002ef 07fa      	CPC  R31,R26
0002f0 f471      	BRNE _0x3B
                 ; 0000 008E             for(i=0;i<9;i++)
0002f1 e000      	LDI  R16,LOW(0)
                 _0x3D:
0002f2 3009      	CPI  R16,9
0002f3 f450      	BRSH _0x3E
                 ; 0000 008F             aNum[i] = Letra3[i];
0002f4 940e 1b57 	CALL SUBOPT_0xB
0002f6 54ea      	SUBI R30,LOW(-_Letra3*2)
0002f7 4fff      	SBCI R31,HIGH(-_Letra3*2)
0002f8 4f6f      	SBCI R22,BYTE3(-_Letra3*2)
                +
0002f9 bf6b     +OUT RAMPZ , R22
0002fa 91e6     +ELPM R30 , Z
                 	__GETBRPF 30
0002fb 93ec      	ST   X,R30
0002fc 5f0f      	SUBI R16,-1
0002fd cff4      	RJMP _0x3D
                 _0x3E:
                 ; 0000 0090 break;
0002fe c099      	RJMP _0x2E
                 ; 0000 0091         case 4:
                 _0x3B:
0002ff 30e4      	CPI  R30,LOW(0x4)
000300 e0a0      	LDI  R26,HIGH(0x4)
000301 07fa      	CPC  R31,R26
000302 f471      	BRNE _0x3F
                 ; 0000 0092             for(i=0;i<9;i++)
000303 e000      	LDI  R16,LOW(0)
                 _0x41:
000304 3009      	CPI  R16,9
000305 f450      	BRSH _0x42
                 ; 0000 0093             aNum[i] = Letra4[i];
000306 940e 1b57 	CALL SUBOPT_0xB
000308 54e0      	SUBI R30,LOW(-_Letra4*2)
000309 4fff      	SBCI R31,HIGH(-_Letra4*2)
00030a 4f6f      	SBCI R22,BYTE3(-_Letra4*2)
                +
00030b bf6b     +OUT RAMPZ , R22
00030c 91e6     +ELPM R30 , Z
                 	__GETBRPF 30
00030d 93ec      	ST   X,R30
00030e 5f0f      	SUBI R16,-1
00030f cff4      	RJMP _0x41
                 _0x42:
                 ; 0000 0094 break;
000310 c087      	RJMP _0x2E
                 ; 0000 0095         case 5:
                 _0x3F:
000311 30e5      	CPI  R30,LOW(0x5)
000312 e0a0      	LDI  R26,HIGH(0x5)
000313 07fa      	CPC  R31,R26
000314 f471      	BRNE _0x43
                 ; 0000 0096             for(i=0;i<9;i++)
000315 e000      	LDI  R16,LOW(0)
                 _0x45:
000316 3009      	CPI  R16,9
000317 f450      	BRSH _0x46
                 ; 0000 0097             aNum[i] = Letra5[i];
000318 940e 1b57 	CALL SUBOPT_0xB
00031a 53e6      	SUBI R30,LOW(-_Letra5*2)
00031b 4fff      	SBCI R31,HIGH(-_Letra5*2)
00031c 4f6f      	SBCI R22,BYTE3(-_Letra5*2)
                +
00031d bf6b     +OUT RAMPZ , R22
00031e 91e6     +ELPM R30 , Z
                 	__GETBRPF 30
00031f 93ec      	ST   X,R30
000320 5f0f      	SUBI R16,-1
000321 cff4      	RJMP _0x45
                 _0x46:
                 ; 0000 0098 break;
000322 c075      	RJMP _0x2E
                 ; 0000 0099         case 6:
                 _0x43:
000323 30e6      	CPI  R30,LOW(0x6)
000324 e0a0      	LDI  R26,HIGH(0x6)
000325 07fa      	CPC  R31,R26
000326 f471      	BRNE _0x47
                 ; 0000 009A             for(i=0;i<9;i++)
000327 e000      	LDI  R16,LOW(0)
                 _0x49:
000328 3009      	CPI  R16,9
000329 f450      	BRSH _0x4A
                 ; 0000 009B             aNum[i] = Letra6[i];
00032a 940e 1b57 	CALL SUBOPT_0xB
00032c 52ec      	SUBI R30,LOW(-_Letra6*2)
00032d 4fff      	SBCI R31,HIGH(-_Letra6*2)
00032e 4f6f      	SBCI R22,BYTE3(-_Letra6*2)
                +
00032f bf6b     +OUT RAMPZ , R22
000330 91e6     +ELPM R30 , Z
                 	__GETBRPF 30
000331 93ec      	ST   X,R30
000332 5f0f      	SUBI R16,-1
000333 cff4      	RJMP _0x49
                 _0x4A:
                 ; 0000 009C break;
000334 c063      	RJMP _0x2E
                 ; 0000 009D         case 7:
                 _0x47:
000335 30e7      	CPI  R30,LOW(0x7)
000336 e0a0      	LDI  R26,HIGH(0x7)
000337 07fa      	CPC  R31,R26
000338 f471      	BRNE _0x4B
                 ; 0000 009E             for(i=0;i<9;i++)
000339 e000      	LDI  R16,LOW(0)
                 _0x4D:
00033a 3009      	CPI  R16,9
00033b f450      	BRSH _0x4E
                 ; 0000 009F             aNum[i] = Letra7[i];
00033c 940e 1b57 	CALL SUBOPT_0xB
00033e 52e2      	SUBI R30,LOW(-_Letra7*2)
00033f 4fff      	SBCI R31,HIGH(-_Letra7*2)
000340 4f6f      	SBCI R22,BYTE3(-_Letra7*2)
                +
000341 bf6b     +OUT RAMPZ , R22
000342 91e6     +ELPM R30 , Z
                 	__GETBRPF 30
000343 93ec      	ST   X,R30
000344 5f0f      	SUBI R16,-1
000345 cff4      	RJMP _0x4D
                 _0x4E:
                 ; 0000 00A0 break;
000346 c051      	RJMP _0x2E
                 ; 0000 00A1         case 8:
                 _0x4B:
000347 30e8      	CPI  R30,LOW(0x8)
000348 e0a0      	LDI  R26,HIGH(0x8)
000349 07fa      	CPC  R31,R26
00034a f471      	BRNE _0x4F
                 ; 0000 00A2             for(i=0;i<9;i++)
00034b e000      	LDI  R16,LOW(0)
                 _0x51:
00034c 3009      	CPI  R16,9
00034d f450      	BRSH _0x52
                 ; 0000 00A3             aNum[i] = Letra8[i];
00034e 940e 1b57 	CALL SUBOPT_0xB
000350 51e8      	SUBI R30,LOW(-_Letra8*2)
000351 4fff      	SBCI R31,HIGH(-_Letra8*2)
000352 4f6f      	SBCI R22,BYTE3(-_Letra8*2)
                +
000353 bf6b     +OUT RAMPZ , R22
000354 91e6     +ELPM R30 , Z
                 	__GETBRPF 30
000355 93ec      	ST   X,R30
000356 5f0f      	SUBI R16,-1
000357 cff4      	RJMP _0x51
                 _0x52:
                 ; 0000 00A4 break;
000358 c03f      	RJMP _0x2E
                 ; 0000 00A5         case 9:
                 _0x4F:
000359 30e9      	CPI  R30,LOW(0x9)
00035a e0a0      	LDI  R26,HIGH(0x9)
00035b 07fa      	CPC  R31,R26
00035c f471      	BRNE _0x53
                 ; 0000 00A6             for(i=0;i<9;i++)
00035d e000      	LDI  R16,LOW(0)
                 _0x55:
00035e 3009      	CPI  R16,9
00035f f450      	BRSH _0x56
                 ; 0000 00A7             aNum[i] = Letra9[i];
000360 940e 1b57 	CALL SUBOPT_0xB
000362 50ee      	SUBI R30,LOW(-_Letra9*2)
000363 4fff      	SBCI R31,HIGH(-_Letra9*2)
000364 4f6f      	SBCI R22,BYTE3(-_Letra9*2)
                +
000365 bf6b     +OUT RAMPZ , R22
000366 91e6     +ELPM R30 , Z
                 	__GETBRPF 30
000367 93ec      	ST   X,R30
000368 5f0f      	SUBI R16,-1
000369 cff4      	RJMP _0x55
                 _0x56:
                 ; 0000 00A8 break;
00036a c02d      	RJMP _0x2E
                 ; 0000 00A9         case 10:
                 _0x53:
00036b 30ea      	CPI  R30,LOW(0xA)
00036c e0a0      	LDI  R26,HIGH(0xA)
00036d 07fa      	CPC  R31,R26
00036e f471      	BRNE _0x57
                 ; 0000 00AA             for(i=0;i<9;i++)
00036f e000      	LDI  R16,LOW(0)
                 _0x59:
000370 3009      	CPI  R16,9
000371 f450      	BRSH _0x5A
                 ; 0000 00AB             aNum[i] = LetraH[i];
000372 940e 1b57 	CALL SUBOPT_0xB
000374 50e4      	SUBI R30,LOW(-_LetraH*2)
000375 4fff      	SBCI R31,HIGH(-_LetraH*2)
000376 4f6f      	SBCI R22,BYTE3(-_LetraH*2)
                +
000377 bf6b     +OUT RAMPZ , R22
000378 91e6     +ELPM R30 , Z
                 	__GETBRPF 30
000379 93ec      	ST   X,R30
00037a 5f0f      	SUBI R16,-1
00037b cff4      	RJMP _0x59
                 _0x5A:
                 ; 0000 00AC break;
00037c c01b      	RJMP _0x2E
                 ; 0000 00AD         case 11:
                 _0x57:
00037d 30eb      	CPI  R30,LOW(0xB)
00037e e0a0      	LDI  R26,HIGH(0xB)
00037f 07fa      	CPC  R31,R26
000380 f471      	BRNE _0x5F
                 ; 0000 00AE             for(i=0;i<9;i++)
000381 e000      	LDI  R16,LOW(0)
                 _0x5D:
000382 3009      	CPI  R16,9
000383 f450      	BRSH _0x5E
                 ; 0000 00AF             aNum[i] = LetraZ[i];
000384 940e 1b57 	CALL SUBOPT_0xB
000386 5fea      	SUBI R30,LOW(-_LetraZ*2)
000387 4ffe      	SBCI R31,HIGH(-_LetraZ*2)
000388 4f6f      	SBCI R22,BYTE3(-_LetraZ*2)
                +
000389 bf6b     +OUT RAMPZ , R22
00038a 91e6     +ELPM R30 , Z
                 	__GETBRPF 30
00038b 93ec      	ST   X,R30
00038c 5f0f      	SUBI R16,-1
00038d cff4      	RJMP _0x5D
                 _0x5E:
                 ; 0000 00B0 break;
00038e c009      	RJMP _0x2E
                 ; 0000 00B1         default:
                 _0x5F:
                 ; 0000 00B2             for(i=0;i<9;i++)
00038f e000      	LDI  R16,LOW(0)
                 _0x61:
000390 3009      	CPI  R16,9
000391 f430      	BRSH _0x62
                 ; 0000 00B3             aNum[i] = Letra0[i];
000392 940e 1b57 	CALL SUBOPT_0xB
000394 940e 1b60 	CALL SUBOPT_0xC
000396 5f0f      	SUBI R16,-1
000397 cff8      	RJMP _0x61
                 _0x62:
                 ; 0000 00B4 break;
                 ; 0000 00B5     }
                 _0x2E:
                 ; 0000 00B6 }
                 _0x20A0019:
000398 8108      	LDD  R16,Y+0
000399 9623      	ADIW R28,3
00039a 9508      	RET
                 ; .FEND
                 ;
                 ;char m, d, c, u;
                 ;void itoa(int n){
                 ; 0000 00B9 void itoa(int n){
                 _itoa:
                 ; .FSTART _itoa
                 ; 0000 00BA     int num = n;
                 ; 0000 00BB     m = num/1000;
00039b 940e 1b67 	CALL SUBOPT_0xD
                 ;	n -> Y+2
                 ;	num -> R16,R17
                +
00039d 810a     +LDD R16 , Y + 2
00039e 811b     +LDD R17 , Y + 2 + 1
                 	__GETWRS 16,17,2
00039f 01d8      	MOVW R26,R16
0003a0 eee8      	LDI  R30,LOW(1000)
0003a1 e0f3      	LDI  R31,HIGH(1000)
0003a2 940e 2066 	CALL __DIVW21
0003a4 93e0 0f00 	STS  _m,R30
                 ; 0000 00BC     num = n - m*1000;
0003a6 91a0 0f00 	LDS  R26,_m
0003a8 e0b0      	LDI  R27,0
0003a9 eee8      	LDI  R30,LOW(1000)
0003aa e0f3      	LDI  R31,HIGH(1000)
0003ab 940e 204e 	CALL __MULW12
0003ad 81aa      	LDD  R26,Y+2
0003ae 81bb      	LDD  R27,Y+2+1
0003af 1bae      	SUB  R26,R30
0003b0 0bbf      	SBC  R27,R31
0003b1 018d      	MOVW R16,R26
                 ; 0000 00BD     d = num/100;
0003b2 e6e4      	LDI  R30,LOW(100)
0003b3 e0f0      	LDI  R31,HIGH(100)
0003b4 940e 2066 	CALL __DIVW21
0003b6 93e0 0f01 	STS  _d,R30
                 ; 0000 00BE     num = num-d*100;
0003b8 91a0 0f01 	LDS  R26,_d
0003ba e6e4      	LDI  R30,LOW(100)
0003bb 9fea      	MUL  R30,R26
0003bc 01f0      	MOVW R30,R0
                +
0003bd 1b0e     +SUB R16 , R30
0003be 0b1f     +SBC R17 , R31
                 	__SUBWRR 16,17,30,31
                 ; 0000 00BF     c = num/10;
0003bf 01d8      	MOVW R26,R16
0003c0 e0ea      	LDI  R30,LOW(10)
0003c1 e0f0      	LDI  R31,HIGH(10)
0003c2 940e 2066 	CALL __DIVW21
0003c4 93e0 0f02 	STS  _c,R30
                 ; 0000 00C0     num = num-c*10;
0003c6 91a0 0f02 	LDS  R26,_c
0003c8 e0ea      	LDI  R30,LOW(10)
0003c9 9fea      	MUL  R30,R26
0003ca 01f0      	MOVW R30,R0
                +
0003cb 1b0e     +SUB R16 , R30
0003cc 0b1f     +SBC R17 , R31
                 	__SUBWRR 16,17,30,31
                 ; 0000 00C1     u = num;
0003cd 9300 0f03 	STS  _u,R16
                 ; 0000 00C2 }
0003cf 8119      	LDD  R17,Y+1
0003d0 8108      	LDD  R16,Y+0
0003d1 9624      	ADIW R28,4
0003d2 9508      	RET
                 ; .FEND
                 ;
                 ;char aP, nP;
                 ;
                 ;void main(void) {
                 ; 0000 00C6 void main(void) {
                 _main:
                 ; .FSTART _main
                 ; 0000 00C7     SetupLCD(); // LCD Setup
0003d3 940e 0162 	CALL _SetupLCD
                 ; 0000 00C8     // ADC initialization
                 ; 0000 00C9     // ADC Clock frequency: 1000.000 kHz
                 ; 0000 00CA     // ADC Voltage Reference: AVCC pin
                 ; 0000 00CB     // ADC High Speed Mode: On
                 ; 0000 00CC     // Only the 8 most significant bits of
                 ; 0000 00CD     // the AD conversion result are used
                 ; 0000 00CE     // Digital input buffers on ADC0: On, ADC1: On, ADC2: On, ADC3: On
                 ; 0000 00CF     // ADC4: On, ADC5: On, ADC6: On, ADC7: Off
                 ; 0000 00D0     DIDR0=(1<<ADC7D) | (0<<ADC6D) | (0<<ADC5D) | (0<<ADC4D) | (0<<ADC3D) | (0<<ADC2D) | (0<<ADC1D) | (0<<ADC0D);
0003d5 e8e0      	LDI  R30,LOW(128)
0003d6 93e0 007e 	STS  126,R30
                 ; 0000 00D1     ADMUX=ADC_VREF_TYPE;
0003d8 e6e0      	LDI  R30,LOW(96)
0003d9 93e0 007c 	STS  124,R30
                 ; 0000 00D2     ADCSRA=(1<<ADEN) | (0<<ADSC) | (0<<ADATE) | (0<<ADIF) | (0<<ADIE) | (1<<ADPS2) | (0<<ADPS1) | (0<<ADPS0);
0003db e8e4      	LDI  R30,LOW(132)
0003dc 93e0 007a 	STS  122,R30
                 ; 0000 00D3     ADCSRB=(1<<ADHSM);
0003de e8e0      	LDI  R30,LOW(128)
0003df 93e0 007b 	STS  123,R30
                 ; 0000 00D4 
                 ; 0000 00D5     // Trigger for scope shot
                 ; 0000 00D6     PORTD.7 = 1;
0003e1 9a5f      	SBI  0xB,7
                 ; 0000 00D7 
                 ; 0000 00D8     // SD
                 ; 0000 00D9     CLKPR=0x80;
0003e2 93e0 0061 	STS  97,R30
                 ; 0000 00DA     CLKPR=0;        //16 MHz
0003e4 e0e0      	LDI  R30,LOW(0)
0003e5 93e0 0061 	STS  97,R30
                 ; 0000 00DB 
                 ; 0000 00DC     // Código para hacer una interrupción periódica cada 10ms
                 ; 0000 00DD     TCCR1B=0x0A;             //  CK/8
0003e7 e0ea      	LDI  R30,LOW(10)
0003e8 93e0 0081 	STS  129,R30
                 ; 0000 00DE     OCR1AH=19999/256;
0003ea e4ee      	LDI  R30,LOW(78)
0003eb 93e0 0089 	STS  137,R30
                 ; 0000 00DF     OCR1AL=19999%256;
0003ed e1ef      	LDI  R30,LOW(31)
0003ee 93e0 0088 	STS  136,R30
                 ; 0000 00E0     TIMSK1=0x02;
0003f0 e0e2      	LDI  R30,LOW(2)
0003f1 93e0 006f 	STS  111,R30
                 ; 0000 00E1     StringLCD("Openning disk...");
                +
0003f3 e9a7     +LDI R26 , LOW ( 2 * _0x0 + ( 33 ) )
0003f4 e0b1     +LDI R27 , HIGH ( 2 * _0x0 + ( 33 ) )
0003f5 e080     +LDI R24 , BYTE3 ( 2 * _0x0 + ( 33 ) )
0003f6 e090     +LDI R25 , BYTE4 ( 2 * _0x0 + ( 33 ) )
                 	__POINTD2FN _0x0,33
0003f7 ddcc      	RCALL _StringLCD
                 ; 0000 00E2     #asm("sei")
0003f8 9478      	sei
                 ; 0000 00E3     disk_initialize(0);
0003f9 e0a0      	LDI  R26,LOW(0)
0003fa d317      	RCALL _disk_initialize
                 ; 0000 00E4     delay_ms(200);
0003fb eca8      	LDI  R26,LOW(200)
0003fc e0b0      	LDI  R27,0
0003fd 940e 1fab 	CALL _delay_ms
                 ; 0000 00E5     EraseLCD();
0003ff ddef      	RCALL _EraseLCD
                 ; 0000 00E6     while (1) {
                 _0x65:
                 ; 0000 00E7     // Please write your application code here
                 ; 0000 00E8     MoveCursor(0,0);
000400 e0e0      	LDI  R30,LOW(0)
000401 93ea      	ST   -Y,R30
000402 e0a0      	LDI  R26,LOW(0)
000403 ddee      	RCALL _MoveCursor
                 ; 0000 00E9     StringLCD("Ready");
                +
000404 eaa8     +LDI R26 , LOW ( 2 * _0x0 + ( 50 ) )
000405 e0b1     +LDI R27 , HIGH ( 2 * _0x0 + ( 50 ) )
000406 e080     +LDI R24 , BYTE3 ( 2 * _0x0 + ( 50 ) )
000407 e090     +LDI R25 , BYTE4 ( 2 * _0x0 + ( 50 ) )
                 	__POINTD2FN _0x0,50
000408 940e 01c4 	CALL _StringLCD
                 ; 0000 00EA         if (PIND.7 == 0){
00040a 994f      	SBIC 0x9,7
00040b c1a8      	RJMP _0x68
                 ; 0000 00EB             EraseLCD();
00040c dde2      	RCALL _EraseLCD
                 ; 0000 00EC             StringLCD("Loading...");
                +
00040d eaae     +LDI R26 , LOW ( 2 * _0x0 + ( 56 ) )
00040e e0b1     +LDI R27 , HIGH ( 2 * _0x0 + ( 56 ) )
00040f e080     +LDI R24 , BYTE3 ( 2 * _0x0 + ( 56 ) )
000410 e090     +LDI R25 , BYTE4 ( 2 * _0x0 + ( 56 ) )
                 	__POINTD2FN _0x0,56
000411 940e 01c4 	CALL _StringLCD
                 ; 0000 00ED             getFrequency(); // Get function frequency
000413 de14      	RCALL _getFrequency
                 ; 0000 00EE             scope();
000414 de35      	RCALL _scope
                 ; 0000 00EF             sd_openDrive();
000415 de83      	RCALL _sd_openDrive
                 ; 0000 00F0             if(f_open(&archivo,"0:BASE.BMP", FA_OPEN_EXISTING | FA_READ)==FR_OK){
000416 940e 1b6c 	CALL SUBOPT_0xE
                +
000418 e0e0     +LDI R30 , LOW ( _0x6A + ( 0 ) )
000419 e0f9     +LDI R31 , HIGH ( _0x6A + ( 0 ) )
                 	__POINTW1MN _0x6A,0
00041a 93fa      	ST   -Y,R31
00041b 93ea      	ST   -Y,R30
00041c e0a1      	LDI  R26,LOW(1)
00041d 940e 1412 	CALL _f_open
00041f 30e0      	CPI  R30,0
000420 f009      	BREQ PC+2
000421 c187      	RJMP _0x69
                 ; 0000 00F1                 f_read(&archivo, encabezado, 64, &br);
000422 940e 1b6c 	CALL SUBOPT_0xE
000424 e7e9      	LDI  R30,LOW(_encabezado)
000425 e0fe      	LDI  R31,HIGH(_encabezado)
000426 940e 1b71 	CALL SUBOPT_0xF
000428 940e 154d 	CALL _f_read
                 ; 0000 00F2                 f_close(&archivo);
00042a 940e 1b7a 	CALL SUBOPT_0x10
                 ; 0000 00F3                 i=0;
00042c 940e 1b32 	CALL SUBOPT_0x5
                 ; 0000 00F4                 do{
                 _0x6C:
                 ; 0000 00F5                 f_close(&archivo);
00042e 940e 1b7a 	CALL SUBOPT_0x10
                 ; 0000 00F6                 sprintf(fileName, "0:IM%03u.BMP", i);
000430 940e 1b7e 	CALL SUBOPT_0x11
                +
000432 ece4     +LDI R30 , LOW ( 2 * _0x0 + ( 78 ) )
000433 e0f1     +LDI R31 , HIGH ( 2 * _0x0 + ( 78 ) )
000434 e060     +LDI R22 , BYTE3 ( 2 * _0x0 + ( 78 ) )
000435 e070     +LDI R23 , BYTE4 ( 2 * _0x0 + ( 78 ) )
                 	__POINTD1FN _0x0,78
000436 940e 20de 	CALL __PUTPARD1
000438 91e0 0912 	LDS  R30,_i
00043a 91f0 0913 	LDS  R31,_i+1
00043c 940e 200f 	CALL __CWD1
00043e 940e 20de 	CALL __PUTPARD1
000440 e084      	LDI  R24,4
000441 940e 1a81 	CALL _sprintf
000443 962a      	ADIW R28,10
                 ; 0000 00F7                 i++;
000444 940e 1b42 	CALL SUBOPT_0x8
                 ; 0000 00F8                 }while(f_open(&archivo, fileName, FA_OPEN_EXISTING)==FR_OK); // Check if file exists
000446 940e 1b6c 	CALL SUBOPT_0xE
000448 940e 1b7e 	CALL SUBOPT_0x11
00044a e0a0      	LDI  R26,LOW(0)
00044b 940e 1412 	CALL _f_open
00044d 30e0      	CPI  R30,0
00044e f2f9      	BREQ _0x6C
                 ; 0000 00F9                 f_close(&archivo);
00044f 940e 1b7a 	CALL SUBOPT_0x10
                 ; 0000 00FA                 MoveCursor(0,1);
000451 e0e0      	LDI  R30,LOW(0)
000452 93ea      	ST   -Y,R30
000453 e0a1      	LDI  R26,LOW(1)
000454 940e 01f2 	CALL _MoveCursor
                 ; 0000 00FB                 StringLCDVar(fileName);
000456 e1a4      	LDI  R26,LOW(_fileName)
000457 e0ba      	LDI  R27,HIGH(_fileName)
000458 940e 01d9 	CALL _StringLCDVar
                 ; 0000 00FC                 if (f_open(&archivo,fileName, FA_CREATE_ALWAYS | FA_WRITE)==FR_OK){
00045a 940e 1b6c 	CALL SUBOPT_0xE
00045c 940e 1b7e 	CALL SUBOPT_0x11
00045e e0aa      	LDI  R26,LOW(10)
00045f 940e 1412 	CALL _f_open
000461 30e0      	CPI  R30,0
000462 f009      	BREQ PC+2
000463 c138      	RJMP _0x6E
                 ; 0000 00FD                     f_write(&archivo,encabezado,sizeof(encabezado),&br);     //Escribir encabezado
000464 940e 1b6c 	CALL SUBOPT_0xE
000466 e7e9      	LDI  R30,LOW(_encabezado)
000467 e0fe      	LDI  R31,HIGH(_encabezado)
000468 93fa      	ST   -Y,R31
000469 93ea      	ST   -Y,R30
00046a e3ee      	LDI  R30,LOW(62)
00046b e0f0      	LDI  R31,HIGH(62)
00046c 93fa      	ST   -Y,R31
00046d 93ea      	ST   -Y,R30
00046e e2a0      	LDI  R26,LOW(_br)
00046f e0ba      	LDI  R27,HIGH(_br)
000470 940e 16b8 	CALL _f_write
                 ; 0000 00FE                     for (i=0;i<256;i++){
000472 940e 1b32 	CALL SUBOPT_0x5
                 _0x70:
000474 940e 1b38 	CALL SUBOPT_0x6
000476 30a0      	CPI  R26,LOW(0x100)
000477 e0e1      	LDI  R30,HIGH(0x100)
000478 07be      	CPC  R27,R30
000479 f00c      	BRLT PC+2
00047a c116      	RJMP _0x71
                 ; 0000 00FF                         for(j=0; j<512; j++){
00047b e0e0      	LDI  R30,LOW(0)
00047c 93e0 0e74 	STS  _j,R30
00047e 93e0 0e75 	STS  _j+1,R30
                 _0x73:
000480 940e 1b83 	CALL SUBOPT_0x12
000482 30a0      	CPI  R26,LOW(0x200)
000483 e0e2      	LDI  R30,HIGH(0x200)
000484 07be      	CPC  R27,R30
000485 f00c      	BRLT PC+2
000486 c0a3      	RJMP _0x74
                 ; 0000 0100                             aP = buffer[j/4]+((j%4)+1)*(buffer[(j/4)+1]-buffer[j/4])/4;
000487 940e 1b88 	CALL SUBOPT_0x13
000489 940e 1b8c 	CALL SUBOPT_0x14
00048b 0fae      	ADD  R26,R30
00048c 1fbf      	ADC  R27,R31
00048d 91ec      	LD   R30,X
00048e 93ef      	PUSH R30
00048f 940e 1b88 	CALL SUBOPT_0x13
000491 940e 2090 	CALL __MODW21
000493 9631      	ADIW R30,1
000494 93ff      	PUSH R31
000495 93ef      	PUSH R30
000496 940e 1b88 	CALL SUBOPT_0x13
000498 940e 1b8f 	CALL SUBOPT_0x15
00049a 940e 1b8c 	CALL SUBOPT_0x14
00049c 940e 1b99 	CALL SUBOPT_0x16
00049e 91af      	POP  R26
00049f 91bf      	POP  R27
0004a0 940e 1ba2 	CALL SUBOPT_0x17
0004a2 91af      	POP  R26
0004a3 0fea      	ADD  R30,R26
0004a4 93e0 0f04 	STS  _aP,R30
                 ; 0000 0101                             j++;
0004a6 940e 1baa 	CALL SUBOPT_0x18
0004a8 9631      	ADIW R30,1
0004a9 93fe      	ST   -X,R31
0004aa 93ee      	ST   -X,R30
                 ; 0000 0102                             if(j<509)
0004ab 940e 1b83 	CALL SUBOPT_0x12
0004ad 3fad      	CPI  R26,LOW(0x1FD)
0004ae e0e1      	LDI  R30,HIGH(0x1FD)
0004af 07be      	CPC  R27,R30
0004b0 f4f4      	BRGE _0x75
                 ; 0000 0103                                 nP = buffer[j/4]+((j%4)+1)*(buffer[(j/4)+1]-buffer[j/4])/4;
0004b1 940e 1b88 	CALL SUBOPT_0x13
0004b3 940e 1b8c 	CALL SUBOPT_0x14
0004b5 0fae      	ADD  R26,R30
0004b6 1fbf      	ADC  R27,R31
0004b7 91ec      	LD   R30,X
0004b8 93ef      	PUSH R30
0004b9 940e 1b88 	CALL SUBOPT_0x13
0004bb 940e 2090 	CALL __MODW21
0004bd 9631      	ADIW R30,1
0004be 93ff      	PUSH R31
0004bf 93ef      	PUSH R30
0004c0 940e 1b88 	CALL SUBOPT_0x13
0004c2 940e 1b8f 	CALL SUBOPT_0x15
0004c4 940e 1b8c 	CALL SUBOPT_0x14
0004c6 940e 1b99 	CALL SUBOPT_0x16
0004c8 91af      	POP  R26
0004c9 91bf      	POP  R27
0004ca 940e 1ba2 	CALL SUBOPT_0x17
0004cc 91af      	POP  R26
0004cd 0fea      	ADD  R30,R26
0004ce c002      	RJMP _0x8B
                 ; 0000 0104                             else
                 _0x75:
                 ; 0000 0105                                 nP = aP;
0004cf 91e0 0f04 	LDS  R30,_aP
                 _0x8B:
0004d1 93e0 0f05 	STS  _nP,R30
                 ; 0000 0106                             j--;
0004d3 940e 1baa 	CALL SUBOPT_0x18
0004d5 9731      	SBIW R30,1
0004d6 93fe      	ST   -X,R31
0004d7 93ee      	ST   -X,R30
                 ; 0000 0107                             if((i<=aP&&i>=nP)||(i>=aP&&i<=nP))
0004d8 91e0 0f04 	LDS  R30,_aP
0004da 940e 1b38 	CALL SUBOPT_0x6
0004dc e0f0      	LDI  R31,0
0004dd 17ea      	CP   R30,R26
0004de 07fb      	CPC  R31,R27
0004df f044      	BRLT _0x78
0004e0 91e0 0f05 	LDS  R30,_nP
0004e2 940e 1b38 	CALL SUBOPT_0x6
0004e4 e0f0      	LDI  R31,0
0004e5 17ae      	CP   R26,R30
0004e6 07bf      	CPC  R27,R31
0004e7 f48c      	BRGE _0x7A
                 _0x78:
0004e8 91e0 0f04 	LDS  R30,_aP
0004ea 940e 1b38 	CALL SUBOPT_0x6
0004ec e0f0      	LDI  R31,0
0004ed 17ae      	CP   R26,R30
0004ee 07bf      	CPC  R27,R31
0004ef f044      	BRLT _0x7B
0004f0 91e0 0f05 	LDS  R30,_nP
0004f2 940e 1b38 	CALL SUBOPT_0x6
0004f4 e0f0      	LDI  R31,0
0004f5 17ea      	CP   R30,R26
0004f6 07fb      	CPC  R31,R27
0004f7 f40c      	BRGE _0x7A
                 _0x7B:
0004f8 c007      	RJMP _0x77
                 _0x7A:
                 ; 0000 0108                                     temp = temp-k;
0004f9 91a0 0e76 	LDS  R26,_k
0004fb 91e0 0e78 	LDS  R30,_temp
0004fd 1bea      	SUB  R30,R26
0004fe 93e0 0e78 	STS  _temp,R30
                 ; 0000 0109                             if(k==0x01){
                 _0x77:
000500 91a0 0e76 	LDS  R26,_k
000502 91b0 0e77 	LDS  R27,_k+1
000504 9711      	SBIW R26,1
000505 f4a1      	BRNE _0x7E
                 ; 0000 010A                                 output[j/8] = temp;
000506 940e 1b83 	CALL SUBOPT_0x12
000508 e0e8      	LDI  R30,LOW(8)
000509 e0f0      	LDI  R31,HIGH(8)
00050a 940e 2066 	CALL __DIVW21
00050c 54e9      	SUBI R30,LOW(-_output)
00050d 4ff1      	SBCI R31,HIGH(-_output)
00050e 91a0 0e78 	LDS  R26,_temp
000510 83a0      	STD  Z+0,R26
                 ; 0000 010B                                 k=0x100;
000511 e0e0      	LDI  R30,LOW(256)
000512 e0f1      	LDI  R31,HIGH(256)
000513 93e0 0e76 	STS  _k,R30
000515 93f0 0e77 	STS  _k+1,R31
                 ; 0000 010C                                 temp = 0xFF;
000517 efef      	LDI  R30,LOW(255)
000518 93e0 0e78 	STS  _temp,R30
                 ; 0000 010D                             }
                 ; 0000 010E                             k=k>>1;
                 _0x7E:
00051a 91e0 0e76 	LDS  R30,_k
00051c 91f0 0e77 	LDS  R31,_k+1
00051e 95f5      	ASR  R31
00051f 95e7      	ROR  R30
000520 93e0 0e76 	STS  _k,R30
000522 93f0 0e77 	STS  _k+1,R31
                 ; 0000 010F                         }
000524 940e 1baa 	CALL SUBOPT_0x18
000526 9631      	ADIW R30,1
000527 93fe      	ST   -X,R31
000528 93ee      	ST   -X,R30
000529 cf56      	RJMP _0x73
                 _0x74:
                 ; 0000 0110                         if ((i>=10)&(i<=18)){ // Print Frequequency
00052a 940e 1b38 	CALL SUBOPT_0x6
00052c e0ea      	LDI  R30,LOW(10)
00052d e0f0      	LDI  R31,HIGH(10)
00052e 940e 201a 	CALL __GEW12
000530 2e0e      	MOV  R0,R30
000531 940e 1baf 	CALL SUBOPT_0x19
000533 940e 2014 	CALL __LEW12
000535 21e0      	AND  R30,R0
000536 f409      	BRNE PC+2
000537 c04e      	RJMP _0x7F
                 ; 0000 0111                                 itoa(freq); // Change integer to characters
000538 91a0 0910 	LDS  R26,_freq
00053a 91b0 0911 	LDS  R27,_freq+1
00053c de5e      	RCALL _itoa
                 ; 0000 0112                                 getNum(m); // Obtain character
00053d 91a0 0f00 	LDS  R26,_m
00053f 27bb      	CLR  R27
000540 dd77      	RCALL _getNum
                 ; 0000 0113                                 if(m!=0)
000541 91e0 0f00 	LDS  R30,_m
000543 30e0      	CPI  R30,0
000544 f031      	BREQ _0x80
                 ; 0000 0114                                     output[1]=aNum[18-i];
000545 940e 1baf 	CALL SUBOPT_0x19
000547 940e 1bb3 	CALL SUBOPT_0x1A
                +
000549 93e0 0eb8+STS _output + ( 1 ) , R30
                 	__PUTB1MN _output,1
                 ; 0000 0115                                 getNum(d);
                 _0x80:
00054b 91a0 0f01 	LDS  R26,_d
00054d 940e 1bb9 	CALL SUBOPT_0x1B
                 ; 0000 0116                                 if(m!=0||d!=0)
00054f f421      	BRNE _0x82
000550 91a0 0f01 	LDS  R26,_d
000552 30a0      	CPI  R26,LOW(0x0)
000553 f031      	BREQ _0x81
                 _0x82:
                 ; 0000 0117                                     output[2]=aNum[18-i];
000554 940e 1baf 	CALL SUBOPT_0x19
000556 940e 1bb3 	CALL SUBOPT_0x1A
                +
000558 93e0 0eb9+STS _output + ( 2 ) , R30
                 	__PUTB1MN _output,2
                 ; 0000 0118                                 getNum(c);
                 _0x81:
00055a 91a0 0f02 	LDS  R26,_c
00055c 940e 1bb9 	CALL SUBOPT_0x1B
                 ; 0000 0119                                 if(m!=0||d!=0||c!=0)
00055e f441      	BRNE _0x85
00055f 91a0 0f01 	LDS  R26,_d
000561 30a0      	CPI  R26,LOW(0x0)
000562 f421      	BRNE _0x85
000563 91a0 0f02 	LDS  R26,_c
000565 30a0      	CPI  R26,LOW(0x0)
000566 f031      	BREQ _0x84
                 _0x85:
                 ; 0000 011A                                     output[3]=aNum[18-i];
000567 940e 1baf 	CALL SUBOPT_0x19
000569 940e 1bb3 	CALL SUBOPT_0x1A
                +
00056b 93e0 0eba+STS _output + ( 3 ) , R30
                 	__PUTB1MN _output,3
                 ; 0000 011B                                 getNum(u);
                 _0x84:
00056d 91a0 0f03 	LDS  R26,_u
00056f 27bb      	CLR  R27
000570 940e 1bc0 	CALL SUBOPT_0x1C
                 ; 0000 011C                                 output[4]=aNum[18-i];
000572 940e 1bb3 	CALL SUBOPT_0x1A
                +
000574 93e0 0ebb+STS _output + ( 4 ) , R30
                 	__PUTB1MN _output,4
                 ; 0000 011D                                 getNum(10);
000576 e0aa      	LDI  R26,LOW(10)
000577 e0b0      	LDI  R27,0
000578 940e 1bc0 	CALL SUBOPT_0x1C
                 ; 0000 011E                                 output[5]=aNum[18-i];
00057a 940e 1bb3 	CALL SUBOPT_0x1A
                +
00057c 93e0 0ebc+STS _output + ( 5 ) , R30
                 	__PUTB1MN _output,5
                 ; 0000 011F                                 getNum(11);
00057e e0ab      	LDI  R26,LOW(11)
00057f e0b0      	LDI  R27,0
000580 940e 1bc0 	CALL SUBOPT_0x1C
                 ; 0000 0120                                 output[6]=aNum[18-i];
000582 940e 1bb3 	CALL SUBOPT_0x1A
                +
000584 93e0 0ebd+STS _output + ( 6 ) , R30
                 	__PUTB1MN _output,6
                 ; 0000 0121                             }
                 ; 0000 0122                         f_write(&archivo,output,sizeof(output),&br);
                 _0x7F:
000586 940e 1b6c 	CALL SUBOPT_0xE
000588 ebe7      	LDI  R30,LOW(_output)
000589 e0fe      	LDI  R31,HIGH(_output)
00058a 940e 1b71 	CALL SUBOPT_0xF
00058c 940e 16b8 	CALL _f_write
                 ; 0000 0123                     }
00058e 940e 1b42 	CALL SUBOPT_0x8
000590 cee3      	RJMP _0x70
                 _0x71:
                 ; 0000 0124                     EraseLCD();
000591 940e 01ef 	CALL _EraseLCD
                 ; 0000 0125                     StringLCD("Done");
                +
000593 eda1     +LDI R26 , LOW ( 2 * _0x0 + ( 91 ) )
000594 e0b1     +LDI R27 , HIGH ( 2 * _0x0 + ( 91 ) )
000595 e080     +LDI R24 , BYTE3 ( 2 * _0x0 + ( 91 ) )
000596 e090     +LDI R25 , BYTE4 ( 2 * _0x0 + ( 91 ) )
                 	__POINTD2FN _0x0,91
000597 940e 01c4 	CALL _StringLCD
                 ; 0000 0126                     f_close(&archivo);
000599 940e 1b7a 	CALL SUBOPT_0x10
                 ; 0000 0127                     delay_ms(1000);
00059b c008      	RJMP _0x8C
                 ; 0000 0128                 }else{
                 _0x6E:
                 ; 0000 0129                     EraseLCD();
00059c 940e 1b4a 	CALL SUBOPT_0x9
                 ; 0000 012A                     MoveCursor(0,0);
                 ; 0000 012B                     StringLCD("File error");
                +
00059e eda6     +LDI R26 , LOW ( 2 * _0x0 + ( 96 ) )
00059f e0b1     +LDI R27 , HIGH ( 2 * _0x0 + ( 96 ) )
0005a0 e080     +LDI R24 , BYTE3 ( 2 * _0x0 + ( 96 ) )
0005a1 e090     +LDI R25 , BYTE4 ( 2 * _0x0 + ( 96 ) )
                 	__POINTD2FN _0x0,96
0005a2 940e 01c4 	CALL _StringLCD
                 ; 0000 012C                     delay_ms(1000);
                 _0x8C:
0005a4 eea8      	LDI  R26,LOW(1000)
0005a5 e0b3      	LDI  R27,HIGH(1000)
0005a6 940e 1fab 	CALL _delay_ms
                 ; 0000 012D                 }
                 ; 0000 012E             }else{
0005a8 c008      	RJMP _0x88
                 _0x69:
                 ; 0000 012F                EraseLCD();
0005a9 940e 1b4a 	CALL SUBOPT_0x9
                 ; 0000 0130                MoveCursor(0,0);
                 ; 0000 0131                StringLCD("base.bmp error");
                +
0005ab eea1     +LDI R26 , LOW ( 2 * _0x0 + ( 107 ) )
0005ac e0b1     +LDI R27 , HIGH ( 2 * _0x0 + ( 107 ) )
0005ad e080     +LDI R24 , BYTE3 ( 2 * _0x0 + ( 107 ) )
0005ae e090     +LDI R25 , BYTE4 ( 2 * _0x0 + ( 107 ) )
                 	__POINTD2FN _0x0,107
0005af 940e 1b51 	CALL SUBOPT_0xA
                 ; 0000 0132                delay_ms(1000);
                 ; 0000 0133             }
                 _0x88:
                 ; 0000 0134             sd_closeDrive();
0005b1 dcf7      	RCALL _sd_closeDrive
                 ; 0000 0135             EraseLCD();
0005b2 940e 01ef 	CALL _EraseLCD
                 ; 0000 0136         }
                 ; 0000 0137     }
                 _0x68:
0005b4 ce4b      	RJMP _0x65
                 ; 0000 0138 }
                 _0x89:
0005b5 cfff      	RJMP _0x89
                 ; .FEND
                 
                 	.DSEG
                 _0x6A:
000900           	.BYTE 0xB
                 	#ifndef __SLEEP_DEFINED__
                 	#endif
                 
                 	.DSEG
                 
                 	.CSEG
                 _crc7_G100:
                 ; .FSTART _crc7_G100
0005b6 93aa      	ST   -Y,R26
0005b7 940e 210b 	CALL __SAVELOCR4
0005b9 e030      	LDI  R19,LOW(0)
0005ba 811c      	LDD  R17,Y+4
                 _0x2000005:
0005bb 81ad      	LDD  R26,Y+5
0005bc 81be      	LDD  R27,Y+5+1
0005bd 912d      	LD   R18,X+
0005be 83ad      	STD  Y+5,R26
0005bf 83be      	STD  Y+5+1,R27
0005c0 e008      	LDI  R16,LOW(8)
                 _0x2000008:
0005c1 0f33      	LSL  R19
0005c2 2fe3      	MOV  R30,R19
0005c3 27e2      	EOR  R30,R18
0005c4 78e0      	ANDI R30,LOW(0x80)
0005c5 f011      	BREQ _0x200000A
0005c6 e0e9      	LDI  R30,LOW(9)
0005c7 273e      	EOR  R19,R30
                 _0x200000A:
0005c8 0f22      	LSL  R18
0005c9 5001      	SUBI R16,LOW(1)
0005ca f7b1      	BRNE _0x2000008
0005cb 5011      	SUBI R17,LOW(1)
0005cc f771      	BRNE _0x2000005
0005cd 2fe3      	MOV  R30,R19
0005ce 0fee      	LSL  R30
0005cf 60e1      	ORI  R30,1
0005d0 940e 2112 	CALL __LOADLOCR4
0005d2 c542      	RJMP _0x20A0014
                 ; .FEND
                 _wait_ready_G100:
                 ; .FSTART _wait_ready_G100
0005d3 930a      	ST   -Y,R16
0005d4 e3e2      	LDI  R30,LOW(50)
0005d5 93e0 0f08 	STS  _timer2_G100,R30
0005d7 efef      	LDI  R30,LOW(255)
0005d8 bdee      	OUT  0x2E,R30
                 _0x200000B:
0005d9 b5ed      	IN   R30,0x2D
0005da ffe7      	SBRS R30,7
0005db cffd      	RJMP _0x200000B
                 _0x200000F:
0005dc efef      	LDI  R30,LOW(255)
0005dd bdee      	OUT  0x2E,R30
                 _0x2000011:
0005de b5ed      	IN   R30,0x2D
0005df ffe7      	SBRS R30,7
0005e0 cffd      	RJMP _0x2000011
0005e1 b50e      	IN   R16,46
0005e2 3f0f      	CPI  R16,255
0005e3 f021      	BREQ _0x2000014
0005e4 91e0 0f08 	LDS  R30,_timer2_G100
0005e6 30e0      	CPI  R30,0
0005e7 f409      	BRNE _0x2000015
                 _0x2000014:
0005e8 c001      	RJMP _0x2000010
                 _0x2000015:
0005e9 cff2      	RJMP _0x200000F
                 _0x2000010:
0005ea 2fe0      	MOV  R30,R16
0005eb c4a8      	RJMP _0x20A0015
                 ; .FEND
                 _deselect_card_G100:
                 ; .FSTART _deselect_card_G100
0005ec 9a28      	SBI  0x5,0
0005ed efef      	LDI  R30,LOW(255)
0005ee bdee      	OUT  0x2E,R30
                 _0x2000016:
0005ef b5ed      	IN   R30,0x2D
0005f0 ffe7      	SBRS R30,7
0005f1 cffd      	RJMP _0x2000016
0005f2 9508      	RET
                 ; .FEND
                 _rx_datablock_G100:
                 ; .FSTART _rx_datablock_G100
0005f3 93ba      	ST   -Y,R27
0005f4 93aa      	ST   -Y,R26
0005f5 940e 210c 	CALL __SAVELOCR3
0005f7 e1e4      	LDI  R30,LOW(20)
0005f8 93e0 0f07 	STS  _timer1_G100,R30
                 _0x200001A:
0005fa efef      	LDI  R30,LOW(255)
0005fb bdee      	OUT  0x2E,R30
                 _0x200001C:
0005fc b5ed      	IN   R30,0x2D
0005fd ffe7      	SBRS R30,7
0005fe cffd      	RJMP _0x200001C
0005ff b50e      	IN   R16,46
000600 3f0f      	CPI  R16,255
000601 f421      	BRNE _0x200001F
000602 91e0 0f07 	LDS  R30,_timer1_G100
000604 30e0      	CPI  R30,0
000605 f409      	BRNE _0x2000020
                 _0x200001F:
000606 c001      	RJMP _0x200001B
                 _0x2000020:
000607 cff2      	RJMP _0x200001A
                 _0x200001B:
000608 3f0e      	CPI  R16,254
000609 f021      	BREQ _0x2000021
00060a e0e0      	LDI  R30,LOW(0)
00060b 940e 2113 	CALL __LOADLOCR3
00060d c507      	RJMP _0x20A0014
                 _0x2000021:
                +
00060e 811d     +LDD R17 , Y + 5
00060f 812e     +LDD R18 , Y + 5 + 1
                 	__GETWRS 17,18,5
                 _0x2000023:
000610 efef      	LDI  R30,LOW(255)
000611 bdee      	OUT  0x2E,R30
                 _0x2000025:
000612 b5ed      	IN   R30,0x2D
000613 ffe7      	SBRS R30,7
000614 cffd      	RJMP _0x2000025
000615 932f      	PUSH R18
000616 931f      	PUSH R17
                +
000617 5f1f     +SUBI R17 , LOW ( - 1 )
000618 4f2f     +SBCI R18 , HIGH ( - 1 )
                 	__ADDWRN 17,18,1
000619 b5ee      	IN   R30,0x2E
00061a 91af      	POP  R26
00061b 91bf      	POP  R27
00061c 93ec      	ST   X,R30
00061d efef      	LDI  R30,LOW(255)
00061e bdee      	OUT  0x2E,R30
                 _0x2000028:
00061f b5ed      	IN   R30,0x2D
000620 ffe7      	SBRS R30,7
000621 cffd      	RJMP _0x2000028
000622 932f      	PUSH R18
000623 931f      	PUSH R17
                +
000624 5f1f     +SUBI R17 , LOW ( - 1 )
000625 4f2f     +SBCI R18 , HIGH ( - 1 )
                 	__ADDWRN 17,18,1
000626 b5ee      	IN   R30,0x2E
000627 91af      	POP  R26
000628 91bf      	POP  R27
000629 93ec      	ST   X,R30
00062a efef      	LDI  R30,LOW(255)
00062b bdee      	OUT  0x2E,R30
                 _0x200002B:
00062c b5ed      	IN   R30,0x2D
00062d ffe7      	SBRS R30,7
00062e cffd      	RJMP _0x200002B
00062f 932f      	PUSH R18
000630 931f      	PUSH R17
                +
000631 5f1f     +SUBI R17 , LOW ( - 1 )
000632 4f2f     +SBCI R18 , HIGH ( - 1 )
                 	__ADDWRN 17,18,1
000633 b5ee      	IN   R30,0x2E
000634 91af      	POP  R26
000635 91bf      	POP  R27
000636 93ec      	ST   X,R30
000637 efef      	LDI  R30,LOW(255)
000638 bdee      	OUT  0x2E,R30
                 _0x200002E:
000639 b5ed      	IN   R30,0x2D
00063a ffe7      	SBRS R30,7
00063b cffd      	RJMP _0x200002E
00063c 932f      	PUSH R18
00063d 931f      	PUSH R17
                +
00063e 5f1f     +SUBI R17 , LOW ( - 1 )
00063f 4f2f     +SBCI R18 , HIGH ( - 1 )
                 	__ADDWRN 17,18,1
000640 b5ee      	IN   R30,0x2E
000641 91af      	POP  R26
000642 91bf      	POP  R27
000643 93ec      	ST   X,R30
000644 81eb      	LDD  R30,Y+3
000645 81fc      	LDD  R31,Y+3+1
000646 9734      	SBIW R30,4
000647 83eb      	STD  Y+3,R30
000648 83fc      	STD  Y+3+1,R31
000649 f631      	BRNE _0x2000023
00064a efef      	LDI  R30,LOW(255)
00064b bdee      	OUT  0x2E,R30
                 _0x2000031:
00064c b5ed      	IN   R30,0x2D
00064d ffe7      	SBRS R30,7
00064e cffd      	RJMP _0x2000031
00064f efef      	LDI  R30,LOW(255)
000650 bdee      	OUT  0x2E,R30
                 _0x2000034:
000651 b5ed      	IN   R30,0x2D
000652 ffe7      	SBRS R30,7
000653 cffd      	RJMP _0x2000034
000654 e0e1      	LDI  R30,LOW(1)
000655 940e 2113 	CALL __LOADLOCR3
000657 c4bd      	RJMP _0x20A0014
                 ; .FEND
                 _tx_datablock_G100:
                 ; .FSTART _tx_datablock_G100
000658 93aa      	ST   -Y,R26
000659 940e 210b 	CALL __SAVELOCR4
00065b df77      	RCALL _wait_ready_G100
00065c 3fef      	CPI  R30,LOW(0xFF)
00065d f021      	BREQ _0x2000037
00065e e0e0      	LDI  R30,LOW(0)
00065f 940e 2112 	CALL __LOADLOCR4
000661 c4b3      	RJMP _0x20A0014
                 _0x2000037:
000662 81ec      	LDD  R30,Y+4
000663 bdee      	OUT  0x2E,R30
                 _0x2000038:
000664 b5ed      	IN   R30,0x2D
000665 ffe7      	SBRS R30,7
000666 cffd      	RJMP _0x2000038
000667 81ac      	LDD  R26,Y+4
000668 3fad      	CPI  R26,LOW(0xFD)
000669 f169      	BREQ _0x200003B
00066a e010      	LDI  R17,LOW(0)
                +
00066b 812d     +LDD R18 , Y + 5
00066c 813e     +LDD R19 , Y + 5 + 1
                 	__GETWRS 18,19,5
                 _0x200003D:
00066d 01d9      	MOVW R26,R18
                +
00066e 5f2f     +SUBI R18 , LOW ( - 1 )
00066f 4f3f     +SBCI R19 , HIGH ( - 1 )
                 	__ADDWRN 18,19,1
000670 91ec      	LD   R30,X
000671 bdee      	OUT  0x2E,R30
                 _0x200003F:
000672 b5ed      	IN   R30,0x2D
000673 ffe7      	SBRS R30,7
000674 cffd      	RJMP _0x200003F
000675 01d9      	MOVW R26,R18
                +
000676 5f2f     +SUBI R18 , LOW ( - 1 )
000677 4f3f     +SBCI R19 , HIGH ( - 1 )
                 	__ADDWRN 18,19,1
000678 91ec      	LD   R30,X
000679 bdee      	OUT  0x2E,R30
                 _0x2000042:
00067a b5ed      	IN   R30,0x2D
00067b ffe7      	SBRS R30,7
00067c cffd      	RJMP _0x2000042
00067d 5011      	SUBI R17,LOW(1)
00067e f771      	BRNE _0x200003D
00067f efef      	LDI  R30,LOW(255)
000680 bdee      	OUT  0x2E,R30
                 _0x2000045:
000681 b5ed      	IN   R30,0x2D
000682 ffe7      	SBRS R30,7
000683 cffd      	RJMP _0x2000045
000684 efef      	LDI  R30,LOW(255)
000685 bdee      	OUT  0x2E,R30
                 _0x2000048:
000686 b5ed      	IN   R30,0x2D
000687 ffe7      	SBRS R30,7
000688 cffd      	RJMP _0x2000048
000689 efef      	LDI  R30,LOW(255)
00068a bdee      	OUT  0x2E,R30
                 _0x200004B:
00068b b5ed      	IN   R30,0x2D
00068c ffe7      	SBRS R30,7
00068d cffd      	RJMP _0x200004B
00068e b50e      	IN   R16,46
00068f 2fe0      	MOV  R30,R16
000690 71ef      	ANDI R30,LOW(0x1F)
000691 30e5      	CPI  R30,LOW(0x5)
000692 f021      	BREQ _0x200004E
000693 e0e0      	LDI  R30,LOW(0)
000694 940e 2112 	CALL __LOADLOCR4
000696 c47e      	RJMP _0x20A0014
                 _0x200004E:
                 _0x200003B:
000697 e0e1      	LDI  R30,LOW(1)
000698 940e 2112 	CALL __LOADLOCR4
00069a c47a      	RJMP _0x20A0014
                 ; .FEND
                 _send_cmd_G100:
                 ; .FSTART _send_cmd_G100
00069b 940e 20e3 	CALL __PUTPARD2
00069d 931a      	ST   -Y,R17
00069e 930a      	ST   -Y,R16
00069f 81ee      	LDD  R30,Y+6
0006a0 78e0      	ANDI R30,LOW(0x80)
0006a1 f081      	BREQ _0x200004F
0006a2 81ee      	LDD  R30,Y+6
0006a3 77ef      	ANDI R30,0x7F
0006a4 83ee      	STD  Y+6,R30
0006a5 e7e7      	LDI  R30,LOW(119)
0006a6 93ea      	ST   -Y,R30
                +
0006a7 e0a0     +LDI R26 , LOW ( 0x0 )
0006a8 e0b0     +LDI R27 , HIGH ( 0x0 )
0006a9 e080     +LDI R24 , BYTE3 ( 0x0 )
0006aa e090     +LDI R25 , BYTE4 ( 0x0 )
                 	__GETD2N 0x0
0006ab dfef      	RCALL _send_cmd_G100
0006ac 2f1e      	MOV  R17,R30
0006ad 3012      	CPI  R17,2
0006ae f018      	BRLO _0x2000050
0006af 8119      	LDD  R17,Y+1
0006b0 8108      	LDD  R16,Y+0
0006b1 c463      	RJMP _0x20A0014
                 _0x2000050:
                 _0x200004F:
0006b2 81ae      	LDD  R26,Y+6
0006b3 34ac      	CPI  R26,LOW(0x4C)
0006b4 f049      	BREQ _0x2000051
0006b5 df36      	RCALL _deselect_card_G100
0006b6 9828      	CBI  0x5,0
0006b7 df1b      	RCALL _wait_ready_G100
0006b8 3fef      	CPI  R30,LOW(0xFF)
0006b9 f021      	BREQ _0x2000052
0006ba efef      	LDI  R30,LOW(255)
0006bb 8119      	LDD  R17,Y+1
0006bc 8108      	LDD  R16,Y+0
0006bd c457      	RJMP _0x20A0014
                 _0x2000052:
                 _0x2000051:
0006be 81ee      	LDD  R30,Y+6
0006bf bdee      	OUT  0x2E,R30
                 _0x2000053:
0006c0 b5ed      	IN   R30,0x2D
0006c1 ffe7      	SBRS R30,7
0006c2 cffd      	RJMP _0x2000053
0006c3 81ed      	LDD  R30,Y+5
0006c4 bdee      	OUT  0x2E,R30
                 _0x2000056:
0006c5 b5ed      	IN   R30,0x2D
0006c6 ffe7      	SBRS R30,7
0006c7 cffd      	RJMP _0x2000056
0006c8 81ec      	LDD  R30,Y+4
0006c9 bdee      	OUT  0x2E,R30
                 _0x2000059:
0006ca b5ed      	IN   R30,0x2D
0006cb ffe7      	SBRS R30,7
0006cc cffd      	RJMP _0x2000059
0006cd 81eb      	LDD  R30,Y+3
0006ce bdee      	OUT  0x2E,R30
                 _0x200005C:
0006cf b5ed      	IN   R30,0x2D
0006d0 ffe7      	SBRS R30,7
0006d1 cffd      	RJMP _0x200005C
0006d2 81ea      	LDD  R30,Y+2
0006d3 bdee      	OUT  0x2E,R30
                 _0x200005F:
0006d4 b5ed      	IN   R30,0x2D
0006d5 ffe7      	SBRS R30,7
0006d6 cffd      	RJMP _0x200005F
0006d7 e001      	LDI  R16,LOW(1)
0006d8 81ae      	LDD  R26,Y+6
0006d9 34a0      	CPI  R26,LOW(0x40)
0006da f411      	BRNE _0x2000062
0006db e905      	LDI  R16,LOW(149)
0006dc c004      	RJMP _0x2000063
                 _0x2000062:
0006dd 81ae      	LDD  R26,Y+6
0006de 34a8      	CPI  R26,LOW(0x48)
0006df f409      	BRNE _0x2000064
0006e0 e807      	LDI  R16,LOW(135)
                 _0x2000064:
                 _0x2000063:
0006e1 bd0e      	OUT  0x2E,R16
                 _0x2000065:
0006e2 b5ed      	IN   R30,0x2D
0006e3 ffe7      	SBRS R30,7
0006e4 cffd      	RJMP _0x2000065
0006e5 81ae      	LDD  R26,Y+6
0006e6 34ac      	CPI  R26,LOW(0x4C)
0006e7 f429      	BRNE _0x2000068
0006e8 efef      	LDI  R30,LOW(255)
0006e9 bdee      	OUT  0x2E,R30
                 _0x2000069:
0006ea b5ed      	IN   R30,0x2D
0006eb ffe7      	SBRS R30,7
0006ec cffd      	RJMP _0x2000069
                 _0x2000068:
0006ed ef0f      	LDI  R16,LOW(255)
                 _0x200006D:
0006ee efef      	LDI  R30,LOW(255)
0006ef bdee      	OUT  0x2E,R30
                 _0x200006F:
0006f0 b5ed      	IN   R30,0x2D
0006f1 ffe7      	SBRS R30,7
0006f2 cffd      	RJMP _0x200006F
0006f3 b51e      	IN   R17,46
0006f4 ff17      	SBRS R17,7
0006f5 c002      	RJMP _0x2000072
0006f6 5001      	SUBI R16,LOW(1)
0006f7 f409      	BRNE _0x2000073
                 _0x2000072:
0006f8 c001      	RJMP _0x200006E
                 _0x2000073:
0006f9 cff4      	RJMP _0x200006D
                 _0x200006E:
0006fa 2fe1      	MOV  R30,R17
0006fb 8119      	LDD  R17,Y+1
0006fc 8108      	LDD  R16,Y+0
0006fd c417      	RJMP _0x20A0014
                 ; .FEND
                 _rx_spi4_G100:
                 ; .FSTART _rx_spi4_G100
0006fe 93ba      	ST   -Y,R27
0006ff 93aa      	ST   -Y,R26
000700 930a      	ST   -Y,R16
000701 e004      	LDI  R16,4
                 _0x2000075:
000702 efef      	LDI  R30,LOW(255)
000703 bdee      	OUT  0x2E,R30
                 _0x2000077:
000704 b5ed      	IN   R30,0x2D
000705 ffe7      	SBRS R30,7
000706 cffd      	RJMP _0x2000077
000707 81a9      	LDD  R26,Y+1
000708 81ba      	LDD  R27,Y+1+1
000709 9611      	ADIW R26,1
00070a 83a9      	STD  Y+1,R26
00070b 83ba      	STD  Y+1+1,R27
00070c 9711      	SBIW R26,1
00070d b5ee      	IN   R30,0x2E
00070e 93ec      	ST   X,R30
00070f 5001      	SUBI R16,LOW(1)
000710 f789      	BRNE _0x2000075
000711 c4ea      	RJMP _0x20A0013
                 ; .FEND
                 _disk_initialize:
                 ; .FSTART _disk_initialize
000712 93aa      	ST   -Y,R26
000713 9724      	SBIW R28,4
000714 940e 210c 	CALL __SAVELOCR3
000716 81ef      	LDD  R30,Y+7
000717 30e0      	CPI  R30,0
000718 f021      	BREQ _0x200007A
000719 e0e1      	LDI  R30,LOW(1)
00071a 940e 2113 	CALL __LOADLOCR3
00071c c1ac      	RJMP _0x20A0017
                 _0x200007A:
00071d 9824      	CBI  0x4,4
00071e 9825      	CBI  0x4,5
00071f e0ea      	LDI  R30,LOW(10)
000720 93e0 0f07 	STS  _timer1_G100,R30
                 _0x200007B:
000722 91e0 0f07 	LDS  R30,_timer1_G100
000724 30e0      	CPI  R30,0
000725 f7e1      	BRNE _0x200007B
000726 91e0 0f06 	LDS  R30,_status_G100
000728 70e2      	ANDI R30,LOW(0x2)
000729 f029      	BREQ _0x200007E
00072a 91e0 0f06 	LDS  R30,_status_G100
00072c 940e 2113 	CALL __LOADLOCR3
00072e c19a      	RJMP _0x20A0017
                 _0x200007E:
00072f 9a20      	SBI  0x4,0
000730 9a28      	SBI  0x5,0
000731 b1e5      	IN   R30,0x5
000732 7fe9      	ANDI R30,LOW(0xF9)
000733 b9e5      	OUT  0x5,R30
000734 9a2b      	SBI  0x5,3
000735 9823      	CBI  0x4,3
000736 b1e4      	IN   R30,0x4
000737 60e7      	ORI  R30,LOW(0x7)
000738 b9e4      	OUT  0x4,R30
000739 e5e3      	LDI  R30,LOW(83)
00073a bdec      	OUT  0x2C,R30
00073b e0e0      	LDI  R30,LOW(0)
00073c bded      	OUT  0x2D,R30
00073d ef2f      	LDI  R18,LOW(255)
                 _0x2000080:
00073e e00a      	LDI  R16,LOW(10)
                 _0x2000083:
00073f efef      	LDI  R30,LOW(255)
000740 bdee      	OUT  0x2E,R30
                 _0x2000085:
000741 b5ed      	IN   R30,0x2D
000742 ffe7      	SBRS R30,7
000743 cffd      	RJMP _0x2000085
000744 5001      	SUBI R16,LOW(1)
000745 f7c9      	BRNE _0x2000083
000746 e4e0      	LDI  R30,LOW(64)
000747 93ea      	ST   -Y,R30
                +
000748 e0a0     +LDI R26 , LOW ( 0x0 )
000749 e0b0     +LDI R27 , HIGH ( 0x0 )
00074a e080     +LDI R24 , BYTE3 ( 0x0 )
00074b e090     +LDI R25 , BYTE4 ( 0x0 )
                 	__GETD2N 0x0
00074c df4e      	RCALL _send_cmd_G100
00074d 2f1e      	MOV  R17,R30
00074e 5021      	SUBI R18,LOW(1)
00074f 3011      	CPI  R17,1
000750 f011      	BREQ _0x2000088
000751 3020      	CPI  R18,0
000752 f409      	BRNE _0x2000089
                 _0x2000088:
000753 c001      	RJMP _0x2000081
                 _0x2000089:
000754 cfe9      	RJMP _0x2000080
                 _0x2000081:
000755 e020      	LDI  R18,LOW(0)
000756 3011      	CPI  R17,1
000757 f009      	BREQ PC+2
000758 c068      	RJMP _0x200008A
000759 e6e4      	LDI  R30,LOW(100)
00075a 93e0 0f07 	STS  _timer1_G100,R30
00075c e4e8      	LDI  R30,LOW(72)
00075d 93ea      	ST   -Y,R30
                +
00075e eaaa     +LDI R26 , LOW ( 0x1AA )
00075f e0b1     +LDI R27 , HIGH ( 0x1AA )
000760 e080     +LDI R24 , BYTE3 ( 0x1AA )
000761 e090     +LDI R25 , BYTE4 ( 0x1AA )
                 	__GETD2N 0x1AA
000762 df38      	RCALL _send_cmd_G100
000763 30e1      	CPI  R30,LOW(0x1)
000764 f591      	BRNE _0x200008B
000765 01de      	MOVW R26,R28
000766 9613      	ADIW R26,3
000767 df96      	RCALL _rx_spi4_G100
000768 81ad      	LDD  R26,Y+5
000769 30a1      	CPI  R26,LOW(0x1)
00076a f419      	BRNE _0x200008D
00076b 81ae      	LDD  R26,Y+6
00076c 3aaa      	CPI  R26,LOW(0xAA)
00076d f009      	BREQ _0x200008E
                 _0x200008D:
00076e c027      	RJMP _0x200008C
                 _0x200008E:
                 _0x200008F:
00076f 91e0 0f07 	LDS  R30,_timer1_G100
000771 30e0      	CPI  R30,0
000772 f049      	BREQ _0x2000092
000773 eee9      	LDI  R30,LOW(233)
000774 93ea      	ST   -Y,R30
                +
000775 e0a0     +LDI R26 , LOW ( 0x40000000 )
000776 e0b0     +LDI R27 , HIGH ( 0x40000000 )
000777 e080     +LDI R24 , BYTE3 ( 0x40000000 )
000778 e490     +LDI R25 , BYTE4 ( 0x40000000 )
                 	__GETD2N 0x40000000
000779 df21      	RCALL _send_cmd_G100
00077a 30e0      	CPI  R30,0
00077b f409      	BRNE _0x2000093
                 _0x2000092:
00077c c001      	RJMP _0x2000091
                 _0x2000093:
00077d cff1      	RJMP _0x200008F
                 _0x2000091:
00077e 91e0 0f07 	LDS  R30,_timer1_G100
000780 30e0      	CPI  R30,0
000781 f049      	BREQ _0x2000095
000782 e7ea      	LDI  R30,LOW(122)
000783 93ea      	ST   -Y,R30
                +
000784 e0a0     +LDI R26 , LOW ( 0x0 )
000785 e0b0     +LDI R27 , HIGH ( 0x0 )
000786 e080     +LDI R24 , BYTE3 ( 0x0 )
000787 e090     +LDI R25 , BYTE4 ( 0x0 )
                 	__GETD2N 0x0
000788 df12      	RCALL _send_cmd_G100
000789 30e0      	CPI  R30,0
00078a f009      	BREQ _0x2000096
                 _0x2000095:
00078b c00a      	RJMP _0x2000094
                 _0x2000096:
00078c 01de      	MOVW R26,R28
00078d 9613      	ADIW R26,3
00078e df6f      	RCALL _rx_spi4_G100
00078f 81eb      	LDD  R30,Y+3
000790 74e0      	ANDI R30,LOW(0x40)
000791 f011      	BREQ _0x2000097
000792 e0ec      	LDI  R30,LOW(12)
000793 c001      	RJMP _0x2000098
                 _0x2000097:
000794 e0e4      	LDI  R30,LOW(4)
                 _0x2000098:
000795 2f2e      	MOV  R18,R30
                 _0x2000094:
                 _0x200008C:
000796 c02a      	RJMP _0x200009A
                 _0x200008B:
000797 eee9      	LDI  R30,LOW(233)
000798 93ea      	ST   -Y,R30
                +
000799 e0a0     +LDI R26 , LOW ( 0x0 )
00079a e0b0     +LDI R27 , HIGH ( 0x0 )
00079b e080     +LDI R24 , BYTE3 ( 0x0 )
00079c e090     +LDI R25 , BYTE4 ( 0x0 )
                 	__GETD2N 0x0
00079d defd      	RCALL _send_cmd_G100
00079e 30e2      	CPI  R30,LOW(0x2)
00079f f418      	BRSH _0x200009B
0007a0 e022      	LDI  R18,LOW(2)
0007a1 ee19      	LDI  R17,LOW(233)
0007a2 c002      	RJMP _0x200009C
                 _0x200009B:
0007a3 e021      	LDI  R18,LOW(1)
0007a4 e411      	LDI  R17,LOW(65)
                 _0x200009C:
                 _0x200009D:
0007a5 91e0 0f07 	LDS  R30,_timer1_G100
0007a7 30e0      	CPI  R30,0
0007a8 f041      	BREQ _0x20000A0
0007a9 931a      	ST   -Y,R17
                +
0007aa e0a0     +LDI R26 , LOW ( 0x0 )
0007ab e0b0     +LDI R27 , HIGH ( 0x0 )
0007ac e080     +LDI R24 , BYTE3 ( 0x0 )
0007ad e090     +LDI R25 , BYTE4 ( 0x0 )
                 	__GETD2N 0x0
0007ae deec      	RCALL _send_cmd_G100
0007af 30e0      	CPI  R30,0
0007b0 f409      	BRNE _0x20000A1
                 _0x20000A0:
0007b1 c001      	RJMP _0x200009F
                 _0x20000A1:
0007b2 cff2      	RJMP _0x200009D
                 _0x200009F:
0007b3 91e0 0f07 	LDS  R30,_timer1_G100
0007b5 30e0      	CPI  R30,0
0007b6 f049      	BREQ _0x20000A3
0007b7 e5e0      	LDI  R30,LOW(80)
0007b8 93ea      	ST   -Y,R30
                +
0007b9 e0a0     +LDI R26 , LOW ( 0x200 )
0007ba e0b2     +LDI R27 , HIGH ( 0x200 )
0007bb e080     +LDI R24 , BYTE3 ( 0x200 )
0007bc e090     +LDI R25 , BYTE4 ( 0x200 )
                 	__GETD2N 0x200
0007bd dedd      	RCALL _send_cmd_G100
0007be 30e0      	CPI  R30,0
0007bf f009      	BREQ _0x20000A2
                 _0x20000A3:
0007c0 e020      	LDI  R18,LOW(0)
                 _0x20000A2:
                 _0x200009A:
                 _0x200008A:
0007c1 9320 0f09 	STS  _card_type_G100,R18
0007c3 de28      	RCALL _deselect_card_G100
0007c4 3020      	CPI  R18,0
0007c5 f051      	BREQ _0x20000A5
0007c6 91e0 0f06 	LDS  R30,_status_G100
0007c8 7fee      	ANDI R30,0xFE
0007c9 93e0 0f06 	STS  _status_G100,R30
0007cb e5e0      	LDI  R30,LOW(80)
0007cc bdec      	OUT  0x2C,R30
0007cd e0e1      	LDI  R30,LOW(1)
0007ce bded      	OUT  0x2D,R30
0007cf c011      	RJMP _0x20000A6
                 _0x20000A5:
0007d0 9828      	CBI  0x5,0
0007d1 de01      	RCALL _wait_ready_G100
0007d2 de19      	RCALL _deselect_card_G100
0007d3 e0e0      	LDI  R30,LOW(0)
0007d4 bdec      	OUT  0x2C,R30
0007d5 b1e4      	IN   R30,0x4
0007d6 7fe0      	ANDI R30,LOW(0xF0)
0007d7 b9e4      	OUT  0x4,R30
0007d8 b1e5      	IN   R30,0x5
0007d9 7fe0      	ANDI R30,LOW(0xF0)
0007da b9e5      	OUT  0x5,R30
0007db 9820      	CBI  0x4,0
0007dc 91e0 0f06 	LDS  R30,_status_G100
0007de 60e1      	ORI  R30,1
0007df 93e0 0f06 	STS  _status_G100,R30
                 _0x20000A6:
0007e1 91e0 0f06 	LDS  R30,_status_G100
0007e3 940e 2113 	CALL __LOADLOCR3
0007e5 c0e3      	RJMP _0x20A0017
                 ; .FEND
                 _disk_status:
                 ; .FSTART _disk_status
0007e6 93aa      	ST   -Y,R26
0007e7 81e8      	LD   R30,Y
0007e8 30e0      	CPI  R30,0
0007e9 f011      	BREQ _0x20000A7
0007ea e0e1      	LDI  R30,LOW(1)
0007eb c002      	RJMP _0x20A0018
                 _0x20000A7:
0007ec 91e0 0f06 	LDS  R30,_status_G100
                 _0x20A0018:
0007ee 9621      	ADIW R28,1
0007ef 9508      	RET
                 ; .FEND
                 _disk_read:
                 ; .FSTART _disk_read
0007f0 93aa      	ST   -Y,R26
0007f1 81ef      	LDD  R30,Y+7
0007f2 30e0      	CPI  R30,0
0007f3 f419      	BRNE _0x20000A9
0007f4 81e8      	LD   R30,Y
0007f5 30e0      	CPI  R30,0
0007f6 f411      	BRNE _0x20000A8
                 _0x20000A9:
0007f7 e0e4      	LDI  R30,LOW(4)
0007f8 c0d0      	RJMP _0x20A0017
                 _0x20000A8:
0007f9 91e0 0f06 	LDS  R30,_status_G100
0007fb 70e1      	ANDI R30,LOW(0x1)
0007fc f011      	BREQ _0x20000AB
0007fd e0e3      	LDI  R30,LOW(3)
0007fe c0ca      	RJMP _0x20A0017
                 _0x20000AB:
0007ff 91e0 0f09 	LDS  R30,_card_type_G100
000801 70e8      	ANDI R30,LOW(0x8)
000802 f471      	BRNE _0x20000AC
                +
000803 81e9     +LDD R30 , Y + 1
000804 81fa     +LDD R31 , Y + 1 + 1
000805 816b     +LDD R22 , Y + 1 + 2
000806 817c     +LDD R23 , Y + 1 + 3
                 	__GETD1S 1
                +
000807 e0a0     +LDI R26 , LOW ( 0x200 )
000808 e0b2     +LDI R27 , HIGH ( 0x200 )
000809 e080     +LDI R24 , BYTE3 ( 0x200 )
00080a e090     +LDI R25 , BYTE4 ( 0x200 )
                 	__GETD2N 0x200
00080b 940e 2028 	CALL __MULD12U
                +
00080d 83e9     +STD Y + 1 , R30
00080e 83fa     +STD Y + 1 + 1 , R31
00080f 836b     +STD Y + 1 + 2 , R22
000810 837c     +STD Y + 1 + 3 , R23
                 	__PUTD1S 1
                 _0x20000AC:
000811 81a8      	LD   R26,Y
000812 30a1      	CPI  R26,LOW(0x1)
000813 f4a9      	BRNE _0x20000AD
000814 e5e1      	LDI  R30,LOW(81)
000815 93ea      	ST   -Y,R30
                +
000816 81aa     +LDD R26 , Y + 2
000817 81bb     +LDD R27 , Y + 2 + 1
000818 818c     +LDD R24 , Y + 2 + 2
000819 819d     +LDD R25 , Y + 2 + 3
                 	__GETD2S 2
00081a de80      	RCALL _send_cmd_G100
00081b 30e0      	CPI  R30,0
00081c f459      	BRNE _0x20000AE
00081d 81ed      	LDD  R30,Y+5
00081e 81fe      	LDD  R31,Y+5+1
00081f 93fa      	ST   -Y,R31
000820 93ea      	ST   -Y,R30
000821 e0a0      	LDI  R26,LOW(512)
000822 e0b2      	LDI  R27,HIGH(512)
000823 ddcf      	RCALL _rx_datablock_G100
000824 30e0      	CPI  R30,0
000825 f011      	BREQ _0x20000AF
000826 e0e0      	LDI  R30,LOW(0)
000827 83e8      	ST   Y,R30
                 _0x20000AF:
                 _0x20000AE:
000828 c023      	RJMP _0x20000B0
                 _0x20000AD:
000829 e5e2      	LDI  R30,LOW(82)
00082a 93ea      	ST   -Y,R30
                +
00082b 81aa     +LDD R26 , Y + 2
00082c 81bb     +LDD R27 , Y + 2 + 1
00082d 818c     +LDD R24 , Y + 2 + 2
00082e 819d     +LDD R25 , Y + 2 + 3
                 	__GETD2S 2
00082f de6b      	RCALL _send_cmd_G100
000830 30e0      	CPI  R30,0
000831 f4d1      	BRNE _0x20000B1
                 _0x20000B3:
000832 81ed      	LDD  R30,Y+5
000833 81fe      	LDD  R31,Y+5+1
000834 93fa      	ST   -Y,R31
000835 93ea      	ST   -Y,R30
000836 e0a0      	LDI  R26,LOW(512)
000837 e0b2      	LDI  R27,HIGH(512)
000838 ddba      	RCALL _rx_datablock_G100
000839 30e0      	CPI  R30,0
00083a f051      	BREQ _0x20000B4
00083b 81ed      	LDD  R30,Y+5
00083c 81fe      	LDD  R31,Y+5+1
00083d 50e0      	SUBI R30,LOW(-512)
00083e 4ffe      	SBCI R31,HIGH(-512)
00083f 83ed      	STD  Y+5,R30
000840 83fe      	STD  Y+5+1,R31
000841 81e8      	LD   R30,Y
000842 50e1      	SUBI R30,LOW(1)
000843 83e8      	ST   Y,R30
000844 f769      	BRNE _0x20000B3
                 _0x20000B4:
000845 e4ec      	LDI  R30,LOW(76)
000846 93ea      	ST   -Y,R30
                +
000847 e0a0     +LDI R26 , LOW ( 0x0 )
000848 e0b0     +LDI R27 , HIGH ( 0x0 )
000849 e080     +LDI R24 , BYTE3 ( 0x0 )
00084a e090     +LDI R25 , BYTE4 ( 0x0 )
                 	__GETD2N 0x0
00084b de4f      	RCALL _send_cmd_G100
                 _0x20000B1:
                 _0x20000B0:
00084c dd9f      	RCALL _deselect_card_G100
00084d 81e8      	LD   R30,Y
00084e 30e0      	CPI  R30,0
00084f f011      	BREQ _0x20000B6
000850 e0e1      	LDI  R30,LOW(1)
000851 c001      	RJMP _0x20000B7
                 _0x20000B6:
000852 e0e0      	LDI  R30,LOW(0)
                 _0x20000B7:
000853 c075      	RJMP _0x20A0017
                 ; .FEND
                 _disk_write:
                 ; .FSTART _disk_write
000854 93aa      	ST   -Y,R26
000855 81ef      	LDD  R30,Y+7
000856 30e0      	CPI  R30,0
000857 f419      	BRNE _0x20000BA
000858 81e8      	LD   R30,Y
000859 30e0      	CPI  R30,0
00085a f411      	BRNE _0x20000B9
                 _0x20000BA:
00085b e0e4      	LDI  R30,LOW(4)
00085c c06c      	RJMP _0x20A0017
                 _0x20000B9:
00085d 91e0 0f06 	LDS  R30,_status_G100
00085f 70e1      	ANDI R30,LOW(0x1)
000860 f011      	BREQ _0x20000BC
000861 e0e3      	LDI  R30,LOW(3)
000862 c066      	RJMP _0x20A0017
                 _0x20000BC:
000863 91e0 0f06 	LDS  R30,_status_G100
000865 70e4      	ANDI R30,LOW(0x4)
000866 f011      	BREQ _0x20000BD
000867 e0e2      	LDI  R30,LOW(2)
000868 c060      	RJMP _0x20A0017
                 _0x20000BD:
000869 91e0 0f09 	LDS  R30,_card_type_G100
00086b 70e8      	ANDI R30,LOW(0x8)
00086c f471      	BRNE _0x20000BE
                +
00086d 81e9     +LDD R30 , Y + 1
00086e 81fa     +LDD R31 , Y + 1 + 1
00086f 816b     +LDD R22 , Y + 1 + 2
000870 817c     +LDD R23 , Y + 1 + 3
                 	__GETD1S 1
                +
000871 e0a0     +LDI R26 , LOW ( 0x200 )
000872 e0b2     +LDI R27 , HIGH ( 0x200 )
000873 e080     +LDI R24 , BYTE3 ( 0x200 )
000874 e090     +LDI R25 , BYTE4 ( 0x200 )
                 	__GETD2N 0x200
000875 940e 2028 	CALL __MULD12U
                +
000877 83e9     +STD Y + 1 , R30
000878 83fa     +STD Y + 1 + 1 , R31
000879 836b     +STD Y + 1 + 2 , R22
00087a 837c     +STD Y + 1 + 3 , R23
                 	__PUTD1S 1
                 _0x20000BE:
00087b 81a8      	LD   R26,Y
00087c 30a1      	CPI  R26,LOW(0x1)
00087d f4a1      	BRNE _0x20000BF
00087e e5e8      	LDI  R30,LOW(88)
00087f 93ea      	ST   -Y,R30
                +
000880 81aa     +LDD R26 , Y + 2
000881 81bb     +LDD R27 , Y + 2 + 1
000882 818c     +LDD R24 , Y + 2 + 2
000883 819d     +LDD R25 , Y + 2 + 3
                 	__GETD2S 2
000884 de16      	RCALL _send_cmd_G100
000885 30e0      	CPI  R30,0
000886 f451      	BRNE _0x20000C0
000887 81ed      	LDD  R30,Y+5
000888 81fe      	LDD  R31,Y+5+1
000889 93fa      	ST   -Y,R31
00088a 93ea      	ST   -Y,R30
00088b efae      	LDI  R26,LOW(254)
00088c ddcb      	RCALL _tx_datablock_G100
00088d 30e0      	CPI  R30,0
00088e f011      	BREQ _0x20000C1
00088f e0e0      	LDI  R30,LOW(0)
000890 83e8      	ST   Y,R30
                 _0x20000C1:
                 _0x20000C0:
000891 c030      	RJMP _0x20000C2
                 _0x20000BF:
000892 91e0 0f09 	LDS  R30,_card_type_G100
000894 70e6      	ANDI R30,LOW(0x6)
000895 f039      	BREQ _0x20000C3
000896 ede7      	LDI  R30,LOW(215)
000897 93ea      	ST   -Y,R30
000898 81a9      	LDD  R26,Y+1
000899 27bb      	CLR  R27
00089a 2788      	CLR  R24
00089b 2799      	CLR  R25
00089c ddfe      	RCALL _send_cmd_G100
                 _0x20000C3:
00089d e5e9      	LDI  R30,LOW(89)
00089e 93ea      	ST   -Y,R30
                +
00089f 81aa     +LDD R26 , Y + 2
0008a0 81bb     +LDD R27 , Y + 2 + 1
0008a1 818c     +LDD R24 , Y + 2 + 2
0008a2 819d     +LDD R25 , Y + 2 + 3
                 	__GETD2S 2
0008a3 ddf7      	RCALL _send_cmd_G100
0008a4 30e0      	CPI  R30,0
0008a5 f4e1      	BRNE _0x20000C4
                 _0x20000C6:
0008a6 81ed      	LDD  R30,Y+5
0008a7 81fe      	LDD  R31,Y+5+1
0008a8 93fa      	ST   -Y,R31
0008a9 93ea      	ST   -Y,R30
0008aa efac      	LDI  R26,LOW(252)
0008ab ddac      	RCALL _tx_datablock_G100
0008ac 30e0      	CPI  R30,0
0008ad f051      	BREQ _0x20000C7
0008ae 81ed      	LDD  R30,Y+5
0008af 81fe      	LDD  R31,Y+5+1
0008b0 50e0      	SUBI R30,LOW(-512)
0008b1 4ffe      	SBCI R31,HIGH(-512)
0008b2 83ed      	STD  Y+5,R30
0008b3 83fe      	STD  Y+5+1,R31
0008b4 81e8      	LD   R30,Y
0008b5 50e1      	SUBI R30,LOW(1)
0008b6 83e8      	ST   Y,R30
0008b7 f771      	BRNE _0x20000C6
                 _0x20000C7:
0008b8 e0e0      	LDI  R30,LOW(0)
0008b9 e0f0      	LDI  R31,HIGH(0)
0008ba 93fa      	ST   -Y,R31
0008bb 93ea      	ST   -Y,R30
0008bc efad      	LDI  R26,LOW(253)
0008bd dd9a      	RCALL _tx_datablock_G100
0008be 30e0      	CPI  R30,0
0008bf f411      	BRNE _0x20000C9
0008c0 e0e1      	LDI  R30,LOW(1)
0008c1 83e8      	ST   Y,R30
                 _0x20000C9:
                 _0x20000C4:
                 _0x20000C2:
0008c2 dd29      	RCALL _deselect_card_G100
0008c3 81e8      	LD   R30,Y
0008c4 30e0      	CPI  R30,0
0008c5 f011      	BREQ _0x20000CA
0008c6 e0e1      	LDI  R30,LOW(1)
0008c7 c001      	RJMP _0x20000CB
                 _0x20000CA:
0008c8 e0e0      	LDI  R30,LOW(0)
                 _0x20000CB:
                 _0x20A0017:
0008c9 9628      	ADIW R28,8
0008ca 9508      	RET
                 ; .FEND
                 _disk_ioctl:
                 ; .FSTART _disk_ioctl
0008cb 93ba      	ST   -Y,R27
0008cc 93aa      	ST   -Y,R26
0008cd 9760      	SBIW R28,16
0008ce 940e 210b 	CALL __SAVELOCR4
0008d0 89ef      	LDD  R30,Y+23
0008d1 30e0      	CPI  R30,0
0008d2 f011      	BREQ _0x20000CD
0008d3 e0e4      	LDI  R30,LOW(4)
0008d4 c187      	RJMP _0x20A0016
                 _0x20000CD:
0008d5 91e0 0f06 	LDS  R30,_status_G100
0008d7 70e1      	ANDI R30,LOW(0x1)
0008d8 f011      	BREQ _0x20000CE
0008d9 e0e3      	LDI  R30,LOW(3)
0008da c181      	RJMP _0x20A0016
                 _0x20000CE:
0008db e001      	LDI  R16,LOW(1)
0008dc 89ee      	LDD  R30,Y+22
0008dd 30e0      	CPI  R30,0
0008de f431      	BRNE _0x20000D2
0008df 9828      	CBI  0x5,0
0008e0 dcf2      	RCALL _wait_ready_G100
0008e1 3fef      	CPI  R30,LOW(0xFF)
0008e2 f409      	BRNE _0x20000D3
0008e3 e000      	LDI  R16,LOW(0)
                 _0x20000D3:
0008e4 c175      	RJMP _0x20000D1
                 _0x20000D2:
0008e5 30e1      	CPI  R30,LOW(0x1)
0008e6 f009      	BREQ PC+2
0008e7 c05f      	RJMP _0x20000D4
0008e8 e4e9      	LDI  R30,LOW(73)
0008e9 93ea      	ST   -Y,R30
                +
0008ea e0a0     +LDI R26 , LOW ( 0x0 )
0008eb e0b0     +LDI R27 , HIGH ( 0x0 )
0008ec e080     +LDI R24 , BYTE3 ( 0x0 )
0008ed e090     +LDI R25 , BYTE4 ( 0x0 )
                 	__GETD2N 0x0
0008ee ddac      	RCALL _send_cmd_G100
0008ef 30e0      	CPI  R30,0
0008f0 f449      	BRNE _0x20000D6
0008f1 01fe      	MOVW R30,R28
0008f2 9634      	ADIW R30,4
0008f3 93fa      	ST   -Y,R31
0008f4 93ea      	ST   -Y,R30
0008f5 e1a0      	LDI  R26,LOW(16)
0008f6 e0b0      	LDI  R27,0
0008f7 dcfb      	RCALL _rx_datablock_G100
0008f8 30e0      	CPI  R30,0
0008f9 f409      	BRNE _0x20000D7
                 _0x20000D6:
0008fa c04b      	RJMP _0x20000D5
                 _0x20000D7:
0008fb 81ec      	LDD  R30,Y+4
0008fc 95e2      	SWAP R30
0008fd 70ef      	ANDI R30,0xF
0008fe 95e6      	LSR  R30
0008ff 95e6      	LSR  R30
000900 30e1      	CPI  R30,LOW(0x1)
000901 f479      	BRNE _0x20000D8
000902 e0e0      	LDI  R30,0
000903 85fc      	LDD  R31,Y+12
000904 85ad      	LDD  R26,Y+13
000905 e0b0      	LDI  R27,0
000906 0fea      	ADD  R30,R26
000907 1ffb      	ADC  R31,R27
000908 9631      	ADIW R30,1
                +
000909 2f1e     +MOV R17 , R30
00090a 2f2f     +MOV R18 , R31
                 	__PUTW1R 17,18
                +
00090b 2fa1     +MOV R26 , R17
00090c 2fb2     +MOV R27 , R18
                 	__GETW2R 17,18
00090d 2788      	CLR  R24
00090e 2799      	CLR  R25
00090f e0ea      	LDI  R30,LOW(10)
000910 c02e      	RJMP _0x2000109
                 _0x20000D8:
000911 85e9      	LDD  R30,Y+9
000912 70ef      	ANDI R30,LOW(0xF)
000913 2fae      	MOV  R26,R30
000914 85ee      	LDD  R30,Y+14
000915 78e0      	ANDI R30,LOW(0x80)
000916 1fee      	ROL  R30
000917 e0e0      	LDI  R30,0
000918 1fee      	ROL  R30
000919 0fae      	ADD  R26,R30
00091a 85ed      	LDD  R30,Y+13
00091b 70e3      	ANDI R30,LOW(0x3)
00091c 0fee      	LSL  R30
00091d 0fea      	ADD  R30,R26
00091e 5fee      	SUBI R30,-LOW(2)
00091f 2f3e      	MOV  R19,R30
000920 85ec      	LDD  R30,Y+12
000921 95e2      	SWAP R30
000922 70ef      	ANDI R30,0xF
000923 95e6      	LSR  R30
000924 95e6      	LSR  R30
000925 2fae      	MOV  R26,R30
000926 85eb      	LDD  R30,Y+11
000927 e0f0      	LDI  R31,0
000928 940e 1ff2 	CALL __LSLW2
00092a e0b0      	LDI  R27,0
00092b 0fae      	ADD  R26,R30
00092c 1fbf      	ADC  R27,R31
00092d 85ea      	LDD  R30,Y+10
00092e 70e3      	ANDI R30,LOW(0x3)
00092f e0f0      	LDI  R31,0
000930 940e 1ff2 	CALL __LSLW2
000932 2ffe      	MOV  R31,R30
000933 e0e0      	LDI  R30,0
000934 0fea      	ADD  R30,R26
000935 1ffb      	ADC  R31,R27
000936 9631      	ADIW R30,1
                +
000937 2f1e     +MOV R17 , R30
000938 2f2f     +MOV R18 , R31
                 	__PUTW1R 17,18
                +
000939 2fa1     +MOV R26 , R17
00093a 2fb2     +MOV R27 , R18
                 	__GETW2R 17,18
00093b 2788      	CLR  R24
00093c 2799      	CLR  R25
00093d 2fe3      	MOV  R30,R19
00093e 50e9      	SUBI R30,LOW(9)
                 _0x2000109:
00093f 940e 1fd6 	CALL __LSLD12
000941 89ac      	LDD  R26,Y+20
000942 89bd      	LDD  R27,Y+20+1
000943 940e 20bb 	CALL __PUTDP1
000945 e000      	LDI  R16,LOW(0)
                 _0x20000D5:
000946 c113      	RJMP _0x20000D1
                 _0x20000D4:
000947 30e2      	CPI  R30,LOW(0x2)
000948 f441      	BRNE _0x20000DA
000949 89ac      	LDD  R26,Y+20
00094a 89bd      	LDD  R27,Y+20+1
00094b e0e0      	LDI  R30,LOW(512)
00094c e0f2      	LDI  R31,HIGH(512)
00094d 93ed      	ST   X+,R30
00094e 93fc      	ST   X,R31
00094f e000      	LDI  R16,LOW(0)
000950 c109      	RJMP _0x20000D1
                 _0x20000DA:
000951 30e3      	CPI  R30,LOW(0x3)
000952 f009      	BREQ PC+2
000953 c0ab      	RJMP _0x20000DB
000954 91e0 0f09 	LDS  R30,_card_type_G100
000956 70e4      	ANDI R30,LOW(0x4)
000957 f181      	BREQ _0x20000DC
000958 eced      	LDI  R30,LOW(205)
000959 93ea      	ST   -Y,R30
                +
00095a e0a0     +LDI R26 , LOW ( 0x0 )
00095b e0b0     +LDI R27 , HIGH ( 0x0 )
00095c e080     +LDI R24 , BYTE3 ( 0x0 )
00095d e090     +LDI R25 , BYTE4 ( 0x0 )
                 	__GETD2N 0x0
00095e dd3c      	RCALL _send_cmd_G100
00095f 30e0      	CPI  R30,0
000960 f531      	BRNE _0x20000DD
000961 efef      	LDI  R30,LOW(255)
000962 bdee      	OUT  0x2E,R30
                 _0x20000DE:
000963 b5ed      	IN   R30,0x2D
000964 ffe7      	SBRS R30,7
000965 cffd      	RJMP _0x20000DE
000966 01fe      	MOVW R30,R28
000967 9634      	ADIW R30,4
000968 93fa      	ST   -Y,R31
000969 93ea      	ST   -Y,R30
00096a e1a0      	LDI  R26,LOW(16)
00096b e0b0      	LDI  R27,0
00096c dc86      	RCALL _rx_datablock_G100
00096d 30e0      	CPI  R30,0
00096e f0c1      	BREQ _0x20000E1
00096f e330      	LDI  R19,LOW(48)
                 _0x20000E3:
000970 3030      	CPI  R19,0
000971 f039      	BREQ _0x20000E4
000972 efef      	LDI  R30,LOW(255)
000973 bdee      	OUT  0x2E,R30
                 _0x20000E5:
000974 b5ed      	IN   R30,0x2D
000975 ffe7      	SBRS R30,7
000976 cffd      	RJMP _0x20000E5
000977 5031      	SUBI R19,1
000978 cff7      	RJMP _0x20000E3
                 _0x20000E4:
000979 85ee      	LDD  R30,Y+14
00097a 95e2      	SWAP R30
00097b 70ef      	ANDI R30,0xF
                +
00097c e1a0     +LDI R26 , LOW ( 0x10 )
00097d e0b0     +LDI R27 , HIGH ( 0x10 )
00097e e080     +LDI R24 , BYTE3 ( 0x10 )
00097f e090     +LDI R25 , BYTE4 ( 0x10 )
                 	__GETD2N 0x10
000980 940e 1fd6 	CALL __LSLD12
000982 89ac      	LDD  R26,Y+20
000983 89bd      	LDD  R27,Y+20+1
000984 940e 20bb 	CALL __PUTDP1
000986 e000      	LDI  R16,LOW(0)
                 _0x20000E1:
                 _0x20000DD:
000987 c076      	RJMP _0x20000E8
                 _0x20000DC:
000988 e4e9      	LDI  R30,LOW(73)
000989 93ea      	ST   -Y,R30
                +
00098a e0a0     +LDI R26 , LOW ( 0x0 )
00098b e0b0     +LDI R27 , HIGH ( 0x0 )
00098c e080     +LDI R24 , BYTE3 ( 0x0 )
00098d e090     +LDI R25 , BYTE4 ( 0x0 )
                 	__GETD2N 0x0
00098e dd0c      	RCALL _send_cmd_G100
00098f 30e0      	CPI  R30,0
000990 f009      	BREQ PC+2
000991 c06c      	RJMP _0x20000E9
000992 01fe      	MOVW R30,R28
000993 9634      	ADIW R30,4
000994 93fa      	ST   -Y,R31
000995 93ea      	ST   -Y,R30
000996 e1a0      	LDI  R26,LOW(16)
000997 e0b0      	LDI  R27,0
000998 dc5a      	RCALL _rx_datablock_G100
000999 30e0      	CPI  R30,0
00099a f409      	BRNE PC+2
00099b c062      	RJMP _0x20000EA
00099c 91e0 0f09 	LDS  R30,_card_type_G100
00099e 70e2      	ANDI R30,LOW(0x2)
00099f f151      	BREQ _0x20000EB
0009a0 85ee      	LDD  R30,Y+14
0009a1 73ef      	ANDI R30,LOW(0x3F)
0009a2 27ff      	CLR  R31
0009a3 2766      	CLR  R22
0009a4 2777      	CLR  R23
0009a5 940e 2000 	CALL __LSLD1
0009a7 937f      	PUSH R23
0009a8 936f      	PUSH R22
0009a9 93ff      	PUSH R31
0009aa 93ef      	PUSH R30
0009ab 85ef      	LDD  R30,Y+15
0009ac 78e0      	ANDI R30,LOW(0x80)
0009ad 27ff      	CLR  R31
0009ae 2766      	CLR  R22
0009af 2777      	CLR  R23
0009b0 01df      	MOVW R26,R30
0009b1 01cb      	MOVW R24,R22
0009b2 e0e7      	LDI  R30,LOW(7)
0009b3 940e 1fe2 	CALL __LSRD12
0009b5 91af      	POP  R26
0009b6 91bf      	POP  R27
0009b7 918f      	POP  R24
0009b8 919f      	POP  R25
0009b9 940e 1fb9 	CALL __ADDD12
                +
0009bb 5fef     +SUBI R30 , LOW ( - 1 )
0009bc 4fff     +SBCI R31 , HIGH ( - 1 )
0009bd 4f6f     +SBCI R22 , BYTE3 ( - 1 )
0009be 4f7f     +SBCI R23 , BYTE4 ( - 1 )
                 	__ADDD1N 1
0009bf 01df      	MOVW R26,R30
0009c0 01cb      	MOVW R24,R22
0009c1 89e9      	LDD  R30,Y+17
0009c2 95e2      	SWAP R30
0009c3 70ef      	ANDI R30,0xF
0009c4 95e6      	LSR  R30
0009c5 95e6      	LSR  R30
0009c6 50e1      	SUBI R30,LOW(1)
0009c7 940e 1fd6 	CALL __LSLD12
0009c9 c02f      	RJMP _0x200010A
                 _0x20000EB:
0009ca 85ee      	LDD  R30,Y+14
0009cb 77ec      	ANDI R30,LOW(0x7C)
0009cc 95e6      	LSR  R30
0009cd 95e6      	LSR  R30
0009ce 27ff      	CLR  R31
0009cf 2766      	CLR  R22
0009d0 2777      	CLR  R23
                +
0009d1 5fef     +SUBI R30 , LOW ( - 1 )
0009d2 4fff     +SBCI R31 , HIGH ( - 1 )
0009d3 4f6f     +SBCI R22 , BYTE3 ( - 1 )
0009d4 4f7f     +SBCI R23 , BYTE4 ( - 1 )
                 	__ADDD1N 1
0009d5 937f      	PUSH R23
0009d6 936f      	PUSH R22
0009d7 93ff      	PUSH R31
0009d8 93ef      	PUSH R30
0009d9 85ef      	LDD  R30,Y+15
0009da 70e3      	ANDI R30,LOW(0x3)
0009db 27ff      	CLR  R31
0009dc 2766      	CLR  R22
0009dd 2777      	CLR  R23
0009de 01df      	MOVW R26,R30
0009df 01cb      	MOVW R24,R22
0009e0 e0e3      	LDI  R30,LOW(3)
0009e1 940e 1fd6 	CALL __LSLD12
0009e3 01df      	MOVW R26,R30
0009e4 01cb      	MOVW R24,R22
0009e5 85ef      	LDD  R30,Y+15
0009e6 7ee0      	ANDI R30,LOW(0xE0)
0009e7 95e2      	SWAP R30
0009e8 70ef      	ANDI R30,0xF
0009e9 95e6      	LSR  R30
0009ea 27ff      	CLR  R31
0009eb 2766      	CLR  R22
0009ec 2777      	CLR  R23
0009ed 940e 1fb9 	CALL __ADDD12
                +
0009ef 5fef     +SUBI R30 , LOW ( - 1 )
0009f0 4fff     +SBCI R31 , HIGH ( - 1 )
0009f1 4f6f     +SBCI R22 , BYTE3 ( - 1 )
0009f2 4f7f     +SBCI R23 , BYTE4 ( - 1 )
                 	__ADDD1N 1
0009f3 91af      	POP  R26
0009f4 91bf      	POP  R27
0009f5 918f      	POP  R24
0009f6 919f      	POP  R25
0009f7 940e 2028 	CALL __MULD12U
                 _0x200010A:
0009f9 89ac      	LDD  R26,Y+20
0009fa 89bd      	LDD  R27,Y+20+1
0009fb 940e 20bb 	CALL __PUTDP1
0009fd e000      	LDI  R16,LOW(0)
                 _0x20000EA:
                 _0x20000E9:
                 _0x20000E8:
0009fe c05b      	RJMP _0x20000D1
                 _0x20000DB:
0009ff 30ea      	CPI  R30,LOW(0xA)
000a00 f439      	BRNE _0x20000ED
000a01 91e0 0f09 	LDS  R30,_card_type_G100
000a03 89ac      	LDD  R26,Y+20
000a04 89bd      	LDD  R27,Y+20+1
000a05 93ec      	ST   X,R30
000a06 e000      	LDI  R16,LOW(0)
000a07 c052      	RJMP _0x20000D1
                 _0x20000ED:
000a08 30eb      	CPI  R30,LOW(0xB)
000a09 f411      	BRNE _0x20000EE
000a0a e439      	LDI  R19,LOW(73)
000a0b c003      	RJMP _0x20000EF
                 _0x20000EE:
000a0c 30ec      	CPI  R30,LOW(0xC)
000a0d f501      	BRNE _0x20000F1
000a0e e43a      	LDI  R19,LOW(74)
                 _0x20000EF:
000a0f 933a      	ST   -Y,R19
                +
000a10 e0a0     +LDI R26 , LOW ( 0x0 )
000a11 e0b0     +LDI R27 , HIGH ( 0x0 )
000a12 e080     +LDI R24 , BYTE3 ( 0x0 )
000a13 e090     +LDI R25 , BYTE4 ( 0x0 )
                 	__GETD2N 0x0
000a14 dc86      	RCALL _send_cmd_G100
000a15 30e0      	CPI  R30,0
000a16 f4b1      	BRNE _0x20000F2
000a17 89ec      	LDD  R30,Y+20
000a18 89fd      	LDD  R31,Y+20+1
000a19 93fa      	ST   -Y,R31
000a1a 93ea      	ST   -Y,R30
000a1b e1a0      	LDI  R26,LOW(16)
000a1c e0b0      	LDI  R27,0
000a1d dbd5      	RCALL _rx_datablock_G100
000a1e 30e0      	CPI  R30,0
000a1f f069      	BREQ _0x20000F3
000a20 89ec      	LDD  R30,Y+20
000a21 89fd      	LDD  R31,Y+20+1
000a22 93fa      	ST   -Y,R31
000a23 93ea      	ST   -Y,R30
000a24 e0af      	LDI  R26,LOW(15)
000a25 db90      	RCALL _crc7_G100
000a26 2fae      	MOV  R26,R30
000a27 89ec      	LDD  R30,Y+20
000a28 89fd      	LDD  R31,Y+20+1
000a29 85e7      	LDD  R30,Z+15
000a2a 17ea      	CP   R30,R26
000a2b f409      	BRNE _0x20000F4
000a2c e000      	LDI  R16,LOW(0)
                 _0x20000F4:
                 _0x20000F3:
                 _0x20000F2:
000a2d c02c      	RJMP _0x20000D1
                 _0x20000F1:
000a2e 30ed      	CPI  R30,LOW(0xD)
000a2f f471      	BRNE _0x20000F5
000a30 e7ea      	LDI  R30,LOW(122)
000a31 93ea      	ST   -Y,R30
                +
000a32 e0a0     +LDI R26 , LOW ( 0x0 )
000a33 e0b0     +LDI R27 , HIGH ( 0x0 )
000a34 e080     +LDI R24 , BYTE3 ( 0x0 )
000a35 e090     +LDI R25 , BYTE4 ( 0x0 )
                 	__GETD2N 0x0
000a36 dc64      	RCALL _send_cmd_G100
000a37 30e0      	CPI  R30,0
000a38 f421      	BRNE _0x20000F6
000a39 89ac      	LDD  R26,Y+20
000a3a 89bd      	LDD  R27,Y+20+1
000a3b dcc2      	RCALL _rx_spi4_G100
000a3c e000      	LDI  R16,LOW(0)
                 _0x20000F6:
000a3d c01c      	RJMP _0x20000D1
                 _0x20000F5:
000a3e 30ee      	CPI  R30,LOW(0xE)
000a3f f4c9      	BRNE _0x20000FD
000a40 eced      	LDI  R30,LOW(205)
000a41 93ea      	ST   -Y,R30
                +
000a42 e0a0     +LDI R26 , LOW ( 0x0 )
000a43 e0b0     +LDI R27 , HIGH ( 0x0 )
000a44 e080     +LDI R24 , BYTE3 ( 0x0 )
000a45 e090     +LDI R25 , BYTE4 ( 0x0 )
                 	__GETD2N 0x0
000a46 dc54      	RCALL _send_cmd_G100
000a47 30e0      	CPI  R30,0
000a48 f479      	BRNE _0x20000F8
000a49 efef      	LDI  R30,LOW(255)
000a4a bdee      	OUT  0x2E,R30
                 _0x20000F9:
000a4b b5ed      	IN   R30,0x2D
000a4c ffe7      	SBRS R30,7
000a4d cffd      	RJMP _0x20000F9
000a4e 89ec      	LDD  R30,Y+20
000a4f 89fd      	LDD  R31,Y+20+1
000a50 93fa      	ST   -Y,R31
000a51 93ea      	ST   -Y,R30
000a52 e4a0      	LDI  R26,LOW(64)
000a53 e0b0      	LDI  R27,0
000a54 db9e      	RCALL _rx_datablock_G100
000a55 30e0      	CPI  R30,0
000a56 f009      	BREQ _0x20000FC
000a57 e000      	LDI  R16,LOW(0)
                 _0x20000FC:
                 _0x20000F8:
000a58 c001      	RJMP _0x20000D1
                 _0x20000FD:
000a59 e004      	LDI  R16,LOW(4)
                 _0x20000D1:
000a5a db91      	RCALL _deselect_card_G100
000a5b 2fe0      	MOV  R30,R16
                 _0x20A0016:
000a5c 940e 2112 	CALL __LOADLOCR4
000a5e 9668      	ADIW R28,24
000a5f 9508      	RET
                 ; .FEND
                 _disk_timerproc:
                 ; .FSTART _disk_timerproc
                 
                 	.DSEG
                 
                 	.CSEG
000a60 930a      	ST   -Y,R16
000a61 9100 0f07 	LDS  R16,_timer1_G100
000a63 3000      	CPI  R16,0
000a64 f019      	BREQ _0x20000FF
000a65 5001      	SUBI R16,LOW(1)
000a66 9300 0f07 	STS  _timer1_G100,R16
                 _0x20000FF:
000a68 9100 0f08 	LDS  R16,_timer2_G100
000a6a 3000      	CPI  R16,0
000a6b f019      	BREQ _0x2000100
000a6c 5001      	SUBI R16,LOW(1)
000a6d 9300 0f08 	STS  _timer2_G100,R16
                 _0x2000100:
000a6f 9100 0f0a 	LDS  R16,_flags_S100000C000
000a71 e0e0      	LDI  R30,LOW(0)
000a72 93e0 0f0a 	STS  _flags_S100000C000,R30
000a74 991c      	SBIC 0x3,4
000a75 c003      	RJMP _0x2000101
000a76 e0e1      	LDI  R30,LOW(1)
000a77 93e0 0f0a 	STS  _flags_S100000C000,R30
                 _0x2000101:
000a79 9b1d      	SBIS 0x3,5
000a7a c005      	RJMP _0x2000102
000a7b 91e0 0f0a 	LDS  R30,_flags_S100000C000
000a7d 60e2      	ORI  R30,2
000a7e 93e0 0f0a 	STS  _flags_S100000C000,R30
                 _0x2000102:
000a80 91e0 0f0a 	LDS  R30,_flags_S100000C000
000a82 17e0      	CP   R30,R16
000a83 f481      	BRNE _0x2000103
000a84 9100 0f06 	LDS  R16,_status_G100
000a86 70e1      	ANDI R30,LOW(0x1)
000a87 f011      	BREQ _0x2000104
000a88 7f0d      	ANDI R16,LOW(253)
000a89 c001      	RJMP _0x2000105
                 _0x2000104:
000a8a 6003      	ORI  R16,LOW(3)
                 _0x2000105:
000a8b 91e0 0f0a 	LDS  R30,_flags_S100000C000
000a8d 70e2      	ANDI R30,LOW(0x2)
000a8e f011      	BREQ _0x2000106
000a8f 6004      	ORI  R16,LOW(4)
000a90 c001      	RJMP _0x2000107
                 _0x2000106:
000a91 7f0b      	ANDI R16,LOW(251)
                 _0x2000107:
000a92 9300 0f06 	STS  _status_G100,R16
                 _0x2000103:
                 _0x20A0015:
000a94 9109      	LD   R16,Y+
000a95 9508      	RET
                 ; .FEND
                 
                 	.CSEG
                 _get_fattime:
                 ; .FSTART _get_fattime
000a96 9727      	SBIW R28,7
000a97 91a0 090c 	LDS  R26,_prtc_get_time
000a99 91b0 090d 	LDS  R27,_prtc_get_time+1
000a9b 9710      	SBIW R26,0
000a9c f031      	BREQ _0x2020004
000a9d 91a0 090e 	LDS  R26,_prtc_get_date
000a9f 91b0 090f 	LDS  R27,_prtc_get_date+1
000aa1 9710      	SBIW R26,0
000aa2 f429      	BRNE _0x2020003
                 _0x2020004:
                +
000aa3 e0e0     +LDI R30 , LOW ( 0x3A210000 )
000aa4 e0f0     +LDI R31 , HIGH ( 0x3A210000 )
000aa5 e261     +LDI R22 , BYTE3 ( 0x3A210000 )
000aa6 e37a     +LDI R23 , BYTE4 ( 0x3A210000 )
                 	__GETD1N 0x3A210000
000aa7 c06d      	RJMP _0x20A0014
                 _0x2020003:
000aa8 01fe      	MOVW R30,R28
000aa9 9636      	ADIW R30,6
000aaa 93fa      	ST   -Y,R31
000aab 93ea      	ST   -Y,R30
000aac 01fe      	MOVW R30,R28
000aad 9637      	ADIW R30,7
000aae 93fa      	ST   -Y,R31
000aaf 93ea      	ST   -Y,R30
000ab0 01de      	MOVW R26,R28
000ab1 9618      	ADIW R26,8
                +
000ab2 91e0 090c+LDS R30 , _prtc_get_time + ( 0 )
000ab4 91f0 090d+LDS R31 , _prtc_get_time + ( 0 ) + 1
000ab6 9509     +ICALL
                 	__CALL1MN _prtc_get_time,0
000ab7 01fe      	MOVW R30,R28
000ab8 9633      	ADIW R30,3
000ab9 93fa      	ST   -Y,R31
000aba 93ea      	ST   -Y,R30
000abb 01fe      	MOVW R30,R28
000abc 9634      	ADIW R30,4
000abd 93fa      	ST   -Y,R31
000abe 93ea      	ST   -Y,R30
000abf 01de      	MOVW R26,R28
000ac0 9614      	ADIW R26,4
                +
000ac1 91e0 090e+LDS R30 , _prtc_get_date + ( 0 )
000ac3 91f0 090f+LDS R31 , _prtc_get_date + ( 0 ) + 1
000ac5 9509     +ICALL
                 	__CALL1MN _prtc_get_date,0
000ac6 81e8      	LD   R30,Y
000ac7 81f9      	LDD  R31,Y+1
000ac8 5bec      	SUBI R30,LOW(1980)
000ac9 40f7      	SBCI R31,HIGH(1980)
000aca 2766      	CLR  R22
000acb 2777      	CLR  R23
000acc 01df      	MOVW R26,R30
000acd 01cb      	MOVW R24,R22
000ace e1e9      	LDI  R30,LOW(25)
000acf 940e 1fd6 	CALL __LSLD12
000ad1 937f      	PUSH R23
000ad2 936f      	PUSH R22
000ad3 93ff      	PUSH R31
000ad4 93ef      	PUSH R30
000ad5 81ea      	LDD  R30,Y+2
000ad6 940e 1bc3 	CALL SUBOPT_0x1D
000ad8 e1e5      	LDI  R30,LOW(21)
000ad9 940e 1fd6 	CALL __LSLD12
000adb 91af      	POP  R26
000adc 91bf      	POP  R27
000add 918f      	POP  R24
000ade 919f      	POP  R25
000adf 940e 1fcd 	CALL __ORD12
000ae1 01df      	MOVW R26,R30
000ae2 01cb      	MOVW R24,R22
000ae3 81eb      	LDD  R30,Y+3
000ae4 e0f0      	LDI  R31,0
000ae5 940e 200f 	CALL __CWD1
000ae7 940e 200a 	CALL __LSLD16
000ae9 940e 1fcd 	CALL __ORD12
000aeb 937f      	PUSH R23
000aec 936f      	PUSH R22
000aed 93ff      	PUSH R31
000aee 93ef      	PUSH R30
000aef 81ee      	LDD  R30,Y+6
000af0 940e 1bc3 	CALL SUBOPT_0x1D
000af2 e0eb      	LDI  R30,LOW(11)
000af3 940e 1fd6 	CALL __LSLD12
000af5 91af      	POP  R26
000af6 91bf      	POP  R27
000af7 918f      	POP  R24
000af8 919f      	POP  R25
000af9 940e 1fcd 	CALL __ORD12
000afb 937f      	PUSH R23
000afc 936f      	PUSH R22
000afd 93ff      	PUSH R31
000afe 93ef      	PUSH R30
000aff 81ed      	LDD  R30,Y+5
000b00 940e 1bc3 	CALL SUBOPT_0x1D
000b02 e0e5      	LDI  R30,LOW(5)
000b03 940e 1fd6 	CALL __LSLD12
000b05 91af      	POP  R26
000b06 91bf      	POP  R27
000b07 918f      	POP  R24
000b08 919f      	POP  R25
000b09 940e 1fcd 	CALL __ORD12
000b0b 01df      	MOVW R26,R30
000b0c 01cb      	MOVW R24,R22
000b0d 81ec      	LDD  R30,Y+4
000b0e e0f0      	LDI  R31,0
000b0f 95f5      	ASR  R31
000b10 95e7      	ROR  R30
000b11 940e 200f 	CALL __CWD1
000b13 940e 1fcd 	CALL __ORD12
                 _0x20A0014:
000b15 9627      	ADIW R28,7
000b16 9508      	RET
                 ; .FEND
                 _chk_chrf_G101:
                 ; .FSTART _chk_chrf_G101
000b17 93aa      	ST   -Y,R26
000b18 930a      	ST   -Y,R16
                 _0x2020006:
000b19 940e 1bc9 	CALL SUBOPT_0x1E
                +
000b1b bf6b     +OUT RAMPZ , R22
000b1c 91e6     +ELPM R30 , Z
                 	__GETBRPF 30
000b1d 2f0e      	MOV  R16,R30
000b1e 30e0      	CPI  R30,0
000b1f f019      	BREQ _0x2020009
000b20 81e9      	LDD  R30,Y+1
000b21 17e0      	CP   R30,R16
000b22 f409      	BRNE _0x202000A
                 _0x2020009:
000b23 c005      	RJMP _0x2020008
                 _0x202000A:
000b24 01de      	MOVW R26,R28
000b25 9612      	ADIW R26,2
000b26 940e 1bce 	CALL SUBOPT_0x1F
000b28 cff0      	RJMP _0x2020006
                 _0x2020008:
000b29 2fe0      	MOV  R30,R16
000b2a e0f0      	LDI  R31,0
000b2b 8108      	LDD  R16,Y+0
000b2c 9626      	ADIW R28,6
000b2d 9508      	RET
                 ; .FEND
                 _move_window_G101:
                 ; .FSTART _move_window_G101
000b2e 940e 20e3 	CALL __PUTPARD2
000b30 9724      	SBIW R28,4
000b31 930a      	ST   -Y,R16
000b32 85a9      	LDD  R26,Y+9
000b33 85ba      	LDD  R27,Y+9+1
000b34 969e      	ADIW R26,46
000b35 940e 20b0 	CALL __GETD1P
000b37 940e 1bdb 	CALL SUBOPT_0x20
000b39 940e 1be0 	CALL SUBOPT_0x21
000b3b 940e 1be5 	CALL SUBOPT_0x22
000b3d 940e 20ff 	CALL __CPD12
000b3f f409      	BRNE PC+2
000b40 c052      	RJMP _0x202000B
000b41 85e9      	LDD  R30,Y+9
000b42 85fa      	LDD  R31,Y+9+1
000b43 81e4      	LDD  R30,Z+4
000b44 30e0      	CPI  R30,0
000b45 f189      	BREQ _0x202000C
000b46 940e 1bea 	CALL SUBOPT_0x23
000b48 30e0      	CPI  R30,0
000b49 f011      	BREQ _0x202000D
000b4a e0e1      	LDI  R30,LOW(1)
000b4b c227      	RJMP _0x20A0011
                 _0x202000D:
000b4c 85a9      	LDD  R26,Y+9
000b4d 85ba      	LDD  R27,Y+9+1
000b4e 9614      	ADIW R26,4
000b4f e0e0      	LDI  R30,LOW(0)
000b50 93ec      	ST   X,R30
000b51 85e9      	LDD  R30,Y+9
000b52 85fa      	LDD  R31,Y+9+1
000b53 940e 1bfc 	CALL SUBOPT_0x24
000b55 010d      	MOVW R0,R26
000b56 85a9      	LDD  R26,Y+9
000b57 85ba      	LDD  R27,Y+9+1
000b58 965a      	ADIW R26,26
000b59 940e 20b0 	CALL __GETD1P
000b5b 01d0      	MOVW R26,R0
000b5c 940e 1fb9 	CALL __ADDD12
000b5e 940e 1be5 	CALL SUBOPT_0x22
000b60 940e 2104 	CALL __CPD21
000b62 f4a0      	BRSH _0x202000E
000b63 85e9      	LDD  R30,Y+9
000b64 85fa      	LDD  R31,Y+9+1
000b65 8103      	LDD  R16,Z+3
                 _0x2020010:
000b66 3002      	CPI  R16,2
000b67 f078      	BRLO _0x2020011
000b68 85a9      	LDD  R26,Y+9
000b69 85ba      	LDD  R27,Y+9+1
000b6a 965a      	ADIW R26,26
000b6b 940e 20b0 	CALL __GETD1P
000b6d 940e 1be5 	CALL SUBOPT_0x22
000b6f 940e 1fb9 	CALL __ADDD12
000b71 940e 1bdb 	CALL SUBOPT_0x20
000b73 940e 1bea 	CALL SUBOPT_0x23
000b75 5001      	SUBI R16,1
000b76 cfef      	RJMP _0x2020010
                 _0x2020011:
                 _0x202000E:
                 _0x202000C:
000b77 940e 1be0 	CALL SUBOPT_0x21
000b79 940e 20f5 	CALL __CPD10
000b7b f0b9      	BREQ _0x2020012
000b7c 85e9      	LDD  R30,Y+9
000b7d 85fa      	LDD  R31,Y+9+1
000b7e 81a1      	LDD  R26,Z+1
000b7f 93aa      	ST   -Y,R26
000b80 85ea      	LDD  R30,Y+10
000b81 85fb      	LDD  R31,Y+10+1
000b82 96f2      	ADIW R30,50
000b83 93fa      	ST   -Y,R31
000b84 93ea      	ST   -Y,R30
000b85 940e 1c01 	CALL SUBOPT_0x25
000b87 940e 1c06 	CALL SUBOPT_0x26
000b89 f011      	BREQ _0x2020013
000b8a e0e1      	LDI  R30,LOW(1)
000b8b c1e7      	RJMP _0x20A0011
                 _0x2020013:
000b8c 940e 1be0 	CALL SUBOPT_0x21
                +
000b8e 85a9     +LDD R26 , Y + 9
000b8f 85ba     +LDD R27 , Y + 9 + 1
000b90 969e     +ADIW R26 , 46
000b91 940e 20bb+CALL __PUTDP1
                 	__PUTD1SNS 9,46
                 _0x2020012:
                 _0x202000B:
000b93 e0e0      	LDI  R30,LOW(0)
000b94 c1de      	RJMP _0x20A0011
                 ; .FEND
                 _sync_G101:
                 ; .FSTART _sync_G101
000b95 93ba      	ST   -Y,R27
000b96 93aa      	ST   -Y,R26
000b97 930a      	ST   -Y,R16
000b98 81e9      	LDD  R30,Y+1
000b99 81fa      	LDD  R31,Y+1+1
000b9a 940e 1c0d 	CALL SUBOPT_0x27
000b9c 2f0e      	MOV  R16,R30
000b9d 3000      	CPI  R16,0
000b9e f009      	BREQ PC+2
000b9f c05b      	RJMP _0x2020014
000ba0 81a9      	LDD  R26,Y+1
000ba1 81ba      	LDD  R27,Y+1+1
000ba2 91ac      	LD   R26,X
000ba3 30a3      	CPI  R26,LOW(0x3)
000ba4 f429      	BRNE _0x2020016
000ba5 81e9      	LDD  R30,Y+1
000ba6 81fa      	LDD  R31,Y+1+1
000ba7 81e5      	LDD  R30,Z+5
000ba8 30e0      	CPI  R30,0
000ba9 f409      	BRNE _0x2020017
                 _0x2020016:
000baa c044      	RJMP _0x2020015
                 _0x2020017:
000bab 81a9      	LDD  R26,Y+1
000bac 81ba      	LDD  R27,Y+1+1
000bad 940e 1c15 	CALL SUBOPT_0x28
000baf 81e9      	LDD  R30,Y+1
000bb0 81fa      	LDD  R31,Y+1+1
000bb1 940e 1c1d 	CALL SUBOPT_0x29
000bb3 81e9      	LDD  R30,Y+1
000bb4 81fa      	LDD  R31,Y+1+1
000bb5 96f2      	ADIW R30,50
000bb6 50e2      	SUBI R30,LOW(-510)
000bb7 4ffe      	SBCI R31,HIGH(-510)
000bb8 e5a5      	LDI  R26,LOW(43605)
000bb9 eaba      	LDI  R27,HIGH(43605)
000bba 83a0      	STD  Z+0,R26
000bbb 83b1      	STD  Z+1,R27
000bbc 81e9      	LDD  R30,Y+1
000bbd 81fa      	LDD  R31,Y+1+1
000bbe 96f2      	ADIW R30,50
                +
000bbf e5a2     +LDI R26 , LOW ( 0x41615252 )
000bc0 e5b2     +LDI R27 , HIGH ( 0x41615252 )
000bc1 e681     +LDI R24 , BYTE3 ( 0x41615252 )
000bc2 e491     +LDI R25 , BYTE4 ( 0x41615252 )
                 	__GETD2N 0x41615252
000bc3 940e 1c26 	CALL SUBOPT_0x2A
000bc5 51ec      	SUBI R30,LOW(-484)
000bc6 4ffe      	SBCI R31,HIGH(-484)
                +
000bc7 e7a2     +LDI R26 , LOW ( 0x61417272 )
000bc8 e7b2     +LDI R27 , HIGH ( 0x61417272 )
000bc9 e481     +LDI R24 , BYTE3 ( 0x61417272 )
000bca e691     +LDI R25 , BYTE4 ( 0x61417272 )
                 	__GETD2N 0x61417272
000bcb 940e 1c26 	CALL SUBOPT_0x2A
000bcd 51e8      	SUBI R30,LOW(-488)
000bce 4ffe      	SBCI R31,HIGH(-488)
000bcf 010f      	MOVW R0,R30
000bd0 81a9      	LDD  R26,Y+1
000bd1 81ba      	LDD  R27,Y+1+1
000bd2 961e      	ADIW R26,14
000bd3 940e 1c2c 	CALL SUBOPT_0x2B
000bd5 96f2      	ADIW R30,50
000bd6 51e4      	SUBI R30,LOW(-492)
000bd7 4ffe      	SBCI R31,HIGH(-492)
000bd8 010f      	MOVW R0,R30
000bd9 81a9      	LDD  R26,Y+1
000bda 81ba      	LDD  R27,Y+1+1
000bdb 961a      	ADIW R26,10
000bdc 940e 1c2c 	CALL SUBOPT_0x2B
000bde 81a1      	LDD  R26,Z+1
000bdf 93aa      	ST   -Y,R26
000be0 81ea      	LDD  R30,Y+2
000be1 81fb      	LDD  R31,Y+2+1
000be2 96f2      	ADIW R30,50
000be3 93fa      	ST   -Y,R31
000be4 93ea      	ST   -Y,R30
000be5 81ec      	LDD  R30,Y+4
000be6 81fd      	LDD  R31,Y+4+1
000be7 940e 1c34 	CALL SUBOPT_0x2C
000be9 dc6a      	RCALL _disk_write
000bea 81a9      	LDD  R26,Y+1
000beb 81ba      	LDD  R27,Y+1+1
000bec 9615      	ADIW R26,5
000bed e0e0      	LDI  R30,LOW(0)
000bee 93ec      	ST   X,R30
                 _0x2020015:
000bef 81e9      	LDD  R30,Y+1
000bf0 81fa      	LDD  R31,Y+1+1
000bf1 81a1      	LDD  R26,Z+1
000bf2 93aa      	ST   -Y,R26
000bf3 e0e0      	LDI  R30,LOW(0)
000bf4 93ea      	ST   -Y,R30
000bf5 e0a0      	LDI  R26,LOW(0)
000bf6 e0b0      	LDI  R27,HIGH(0)
000bf7 dcd3      	RCALL _disk_ioctl
000bf8 30e0      	CPI  R30,0
000bf9 f009      	BREQ _0x2020018
000bfa e001      	LDI  R16,LOW(1)
                 _0x2020018:
                 _0x2020014:
000bfb 2fe0      	MOV  R30,R16
                 _0x20A0013:
000bfc 8108      	LDD  R16,Y+0
000bfd 9623      	ADIW R28,3
000bfe 9508      	RET
                 ; .FEND
                 _get_fat:
                 ; .FSTART _get_fat
000bff 940e 20e3 	CALL __PUTPARD2
000c01 9724      	SBIW R28,4
000c02 940e 210b 	CALL __SAVELOCR4
000c04 940e 1c3c 	CALL SUBOPT_0x2D
000c06 940e 1c41 	CALL SUBOPT_0x2E
000c08 f050      	BRLO _0x202001A
000c09 85ac      	LDD  R26,Y+12
000c0a 85bd      	LDD  R27,Y+12+1
000c0b 965e      	ADIW R26,30
000c0c 940e 20b0 	CALL __GETD1P
000c0e 940e 1c3c 	CALL SUBOPT_0x2D
000c10 940e 2104 	CALL __CPD21
000c12 f018      	BRLO _0x2020019
                 _0x202001A:
000c13 940e 1c49 	CALL SUBOPT_0x2F
000c15 c060      	RJMP _0x20A0012
                 _0x2020019:
000c16 85ac      	LDD  R26,Y+12
000c17 85bd      	LDD  R27,Y+12+1
000c18 9692      	ADIW R26,34
000c19 940e 1c4e 	CALL SUBOPT_0x30
000c1b 85ac      	LDD  R26,Y+12
000c1c 85bd      	LDD  R27,Y+12+1
000c1d 91ec      	LD   R30,X
000c1e e0f0      	LDI  R31,0
000c1f 30e1      	CPI  R30,LOW(0x1)
000c20 e0a0      	LDI  R26,HIGH(0x1)
000c21 07fa      	CPC  R31,R26
000c22 f539      	BRNE _0x202001F
                +
000c23 8528     +LDD R18 , Y + 8
000c24 8539     +LDD R19 , Y + 8 + 1
                 	__GETWRS 18,19,8
000c25 01f9      	MOVW R30,R18
000c26 95f6      	LSR  R31
000c27 95e7      	ROR  R30
                +
000c28 0f2e     +ADD R18 , R30
000c29 1f3f     +ADC R19 , R31
                 	__ADDWRR 18,19,30,31
000c2a 940e 1c55 	CALL SUBOPT_0x31
000c2c f009      	BREQ _0x2020020
000c2d c046      	RJMP _0x202001E
                 _0x2020020:
000c2e 940e 1c6a 	CALL SUBOPT_0x32
000c30 910c      	LD   R16,X
000c31 2711      	CLR  R17
                +
000c32 5f2f     +SUBI R18 , LOW ( - 1 )
000c33 4f3f     +SBCI R19 , HIGH ( - 1 )
                 	__ADDWRN 18,19,1
000c34 940e 1c55 	CALL SUBOPT_0x31
000c36 f5e9      	BRNE _0x202001E
000c37 940e 1c6a 	CALL SUBOPT_0x32
000c39 91ec      	LD   R30,X
000c3a 2ffe      	MOV  R31,R30
000c3b e0e0      	LDI  R30,0
                +
000c3c 2b0e     +OR R16 , R30
000c3d 2b1f     +OR R17 , R31
                 	__ORWRR 16,17,30,31
000c3e 85e8      	LDD  R30,Y+8
000c3f 70e1      	ANDI R30,LOW(0x1)
000c40 f021      	BREQ _0x2020022
000c41 01f8      	MOVW R30,R16
000c42 940e 1ff7 	CALL __LSRW4
000c44 c002      	RJMP _0x202027A
                 _0x2020022:
000c45 01f8      	MOVW R30,R16
000c46 70ff      	ANDI R31,HIGH(0xFFF)
                 _0x202027A:
000c47 2766      	CLR  R22
000c48 2777      	CLR  R23
000c49 c02c      	RJMP _0x20A0012
                 _0x202001F:
000c4a 30e2      	CPI  R30,LOW(0x2)
000c4b e0a0      	LDI  R26,HIGH(0x2)
000c4c 07fa      	CPC  R31,R26
000c4d f479      	BRNE _0x2020025
000c4e 940e 1c72 	CALL SUBOPT_0x33
000c50 940e 1c7b 	CALL SUBOPT_0x34
000c52 940e 1c82 	CALL SUBOPT_0x35
000c54 f4f9      	BRNE _0x202001E
000c55 85a8      	LDD  R26,Y+8
000c56 85b9      	LDD  R27,Y+8+1
000c57 e0e2      	LDI  R30,LOW(2)
000c58 940e 1c8c 	CALL SUBOPT_0x36
000c5a 940e 1c95 	CALL SUBOPT_0x37
000c5c c019      	RJMP _0x20A0012
                 _0x2020025:
000c5d 30e3      	CPI  R30,LOW(0x3)
000c5e e0a0      	LDI  R26,HIGH(0x3)
000c5f 07fa      	CPC  R31,R26
000c60 f499      	BRNE _0x202001E
000c61 940e 1c72 	CALL SUBOPT_0x33
000c63 940e 1c9a 	CALL SUBOPT_0x38
000c65 940e 1c82 	CALL SUBOPT_0x35
000c67 f461      	BRNE _0x202001E
000c68 85a8      	LDD  R26,Y+8
000c69 85b9      	LDD  R27,Y+8+1
000c6a e0e4      	LDI  R30,LOW(4)
000c6b 940e 1c8c 	CALL SUBOPT_0x36
000c6d 940e 20b0 	CALL __GETD1P
                +
000c6f 7fef     +ANDI R30 , LOW ( 0xFFFFFFF )
000c70 7fff     +ANDI R31 , HIGH ( 0xFFFFFFF )
000c71 7f6f     +ANDI R22 , BYTE3 ( 0xFFFFFFF )
000c72 707f     +ANDI R23 , BYTE4 ( 0xFFFFFFF )
                 	__ANDD1N 0xFFFFFFF
000c73 c002      	RJMP _0x20A0012
                 _0x202001E:
000c74 940e 1ca1 	CALL SUBOPT_0x39
                 _0x20A0012:
000c76 940e 2112 	CALL __LOADLOCR4
000c78 962e      	ADIW R28,14
000c79 9508      	RET
                 ; .FEND
                 _put_fat:
                 ; .FSTART _put_fat
000c7a 940e 20e3 	CALL __PUTPARD2
000c7c 9724      	SBIW R28,4
000c7d 940e 210a 	CALL __SAVELOCR5
000c7f 940e 1ca6 	CALL SUBOPT_0x3A
000c81 940e 1c41 	CALL SUBOPT_0x2E
000c83 f050      	BRLO _0x202002A
000c84 89a9      	LDD  R26,Y+17
000c85 89ba      	LDD  R27,Y+17+1
000c86 965e      	ADIW R26,30
000c87 940e 20b0 	CALL __GETD1P
000c89 940e 1ca6 	CALL SUBOPT_0x3A
000c8b 940e 2104 	CALL __CPD21
000c8d f010      	BRLO _0x2020029
                 _0x202002A:
000c8e e042      	LDI  R20,LOW(2)
000c8f c085      	RJMP _0x202002C
                 _0x2020029:
000c90 89a9      	LDD  R26,Y+17
000c91 89ba      	LDD  R27,Y+17+1
000c92 9692      	ADIW R26,34
000c93 940e 20b0 	CALL __GETD1P
                +
000c95 83ed     +STD Y + 5 , R30
000c96 83fe     +STD Y + 5 + 1 , R31
000c97 836f     +STD Y + 5 + 2 , R22
000c98 8778     +STD Y + 5 + 3 , R23
                 	__PUTD1S 5
000c99 89a9      	LDD  R26,Y+17
000c9a 89ba      	LDD  R27,Y+17+1
000c9b 91ec      	LD   R30,X
000c9c e0f0      	LDI  R31,0
000c9d 30e1      	CPI  R30,LOW(0x1)
000c9e e0a0      	LDI  R26,HIGH(0x1)
000c9f 07fa      	CPC  R31,R26
000ca0 f009      	BREQ PC+2
000ca1 c043      	RJMP _0x2020030
                +
000ca2 850d     +LDD R16 , Y + 13
000ca3 851e     +LDD R17 , Y + 13 + 1
                 	__GETWRS 16,17,13
000ca4 01f8      	MOVW R30,R16
000ca5 95f6      	LSR  R31
000ca6 95e7      	ROR  R30
                +
000ca7 0f0e     +ADD R16 , R30
000ca8 1f1f     +ADC R17 , R31
                 	__ADDWRR 16,17,30,31
000ca9 940e 1cab 	CALL SUBOPT_0x3B
000cab f009      	BREQ _0x2020031
000cac c063      	RJMP _0x202002F
                 _0x2020031:
000cad 940e 1cc1 	CALL SUBOPT_0x3C
000caf f051      	BREQ _0x2020032
000cb0 01d9      	MOVW R26,R18
000cb1 91ec      	LD   R30,X
000cb2 70ef      	ANDI R30,LOW(0xF)
000cb3 2fae      	MOV  R26,R30
000cb4 85e9      	LDD  R30,Y+9
000cb5 e0f0      	LDI  R31,0
000cb6 940e 1fee 	CALL __LSLW4
000cb8 2bea      	OR   R30,R26
000cb9 c001      	RJMP _0x2020033
                 _0x2020032:
000cba 85e9      	LDD  R30,Y+9
                 _0x2020033:
000cbb 01d9      	MOVW R26,R18
000cbc 93ec      	ST   X,R30
                +
000cbd 5f0f     +SUBI R16 , LOW ( - 1 )
000cbe 4f1f     +SBCI R17 , HIGH ( - 1 )
                 	__ADDWRN 16,17,1
000cbf 89a9      	LDD  R26,Y+17
000cc0 89ba      	LDD  R27,Y+17+1
000cc1 9614      	ADIW R26,4
000cc2 e0e1      	LDI  R30,LOW(1)
000cc3 93ec      	ST   X,R30
000cc4 940e 1cab 	CALL SUBOPT_0x3B
000cc6 f009      	BREQ _0x2020035
000cc7 c048      	RJMP _0x202002F
                 _0x2020035:
000cc8 940e 1cc1 	CALL SUBOPT_0x3C
000cca f049      	BREQ _0x2020036
000ccb 940e 1ccc 	CALL SUBOPT_0x3D
000ccd e0e4      	LDI  R30,LOW(4)
000cce 940e 1fe2 	CALL __LSRD12
000cd0 27ff      	CLR  R31
000cd1 2766      	CLR  R22
000cd2 2777      	CLR  R23
000cd3 c00e      	RJMP _0x2020037
                 _0x2020036:
000cd4 01d9      	MOVW R26,R18
000cd5 91ec      	LD   R30,X
000cd6 7fe0      	ANDI R30,LOW(0xF0)
000cd7 2e1e      	MOV  R1,R30
000cd8 940e 1ccc 	CALL SUBOPT_0x3D
000cda e0e8      	LDI  R30,LOW(8)
000cdb 940e 1fe2 	CALL __LSRD12
000cdd 27ff      	CLR  R31
000cde 2766      	CLR  R22
000cdf 2777      	CLR  R23
000ce0 70ef      	ANDI R30,LOW(0xF)
000ce1 29e1      	OR   R30,R1
                 _0x2020037:
000ce2 01d9      	MOVW R26,R18
000ce3 93ec      	ST   X,R30
000ce4 c02b      	RJMP _0x202002F
                 _0x2020030:
000ce5 30e2      	CPI  R30,LOW(0x2)
000ce6 e0a0      	LDI  R26,HIGH(0x2)
000ce7 07fa      	CPC  R31,R26
000ce8 f489      	BRNE _0x2020039
000ce9 940e 1cd1 	CALL SUBOPT_0x3E
000ceb 940e 1c7b 	CALL SUBOPT_0x34
000ced 940e 1cda 	CALL SUBOPT_0x3F
000cef f501      	BRNE _0x202002F
000cf0 85ad      	LDD  R26,Y+13
000cf1 85be      	LDD  R27,Y+13+1
000cf2 e0e2      	LDI  R30,LOW(2)
000cf3 940e 1ce5 	CALL SUBOPT_0x40
000cf5 85a9      	LDD  R26,Y+9
000cf6 85ba      	LDD  R27,Y+9+1
000cf7 83a0      	STD  Z+0,R26
000cf8 83b1      	STD  Z+1,R27
000cf9 c016      	RJMP _0x202002F
                 _0x2020039:
000cfa 30e3      	CPI  R30,LOW(0x3)
000cfb e0a0      	LDI  R26,HIGH(0x3)
000cfc 07fa      	CPC  R31,R26
000cfd f489      	BRNE _0x202003D
000cfe 940e 1cd1 	CALL SUBOPT_0x3E
000d00 940e 1c9a 	CALL SUBOPT_0x38
000d02 940e 1cda 	CALL SUBOPT_0x3F
000d04 f459      	BRNE _0x202002F
000d05 85ad      	LDD  R26,Y+13
000d06 85be      	LDD  R27,Y+13+1
000d07 e0e4      	LDI  R30,LOW(4)
000d08 940e 1ce5 	CALL SUBOPT_0x40
000d0a 940e 1ccc 	CALL SUBOPT_0x3D
000d0c 940e 20d9 	CALL __PUTDZ20
000d0e c001      	RJMP _0x202002F
                 _0x202003D:
000d0f e042      	LDI  R20,LOW(2)
                 _0x202002F:
000d10 89a9      	LDD  R26,Y+17
000d11 89ba      	LDD  R27,Y+17+1
000d12 9614      	ADIW R26,4
000d13 e0e1      	LDI  R30,LOW(1)
000d14 93ec      	ST   X,R30
                 _0x202002C:
000d15 2fe4      	MOV  R30,R20
000d16 940e 2111 	CALL __LOADLOCR5
000d18 9663      	ADIW R28,19
000d19 9508      	RET
                 ; .FEND
                 _remove_chain_G101:
                 ; .FSTART _remove_chain_G101
000d1a 940e 20e3 	CALL __PUTPARD2
000d1c 9724      	SBIW R28,4
000d1d 930a      	ST   -Y,R16
000d1e 940e 1cee 	CALL SUBOPT_0x41
000d20 940e 1c41 	CALL SUBOPT_0x2E
000d22 f018      	BRLO _0x202003F
000d23 940e 1cf3 	CALL SUBOPT_0x42
000d25 f010      	BRLO _0x202003E
                 _0x202003F:
000d26 e002      	LDI  R16,LOW(2)
000d27 c04a      	RJMP _0x2020041
                 _0x202003E:
000d28 e000      	LDI  R16,LOW(0)
                 _0x2020042:
000d29 940e 1cf3 	CALL SUBOPT_0x42
000d2b f008      	BRLO PC+2
000d2c c045      	RJMP _0x2020044
000d2d 85e9      	LDD  R30,Y+9
000d2e 85fa      	LDD  R31,Y+9+1
000d2f 93fa      	ST   -Y,R31
000d30 93ea      	ST   -Y,R30
                +
000d31 81af     +LDD R26 , Y + 7
000d32 85b8     +LDD R27 , Y + 7 + 1
000d33 8589     +LDD R24 , Y + 7 + 2
000d34 859a     +LDD R25 , Y + 7 + 3
                 	__GETD2S 7
000d35 dec9      	RCALL _get_fat
000d36 940e 1bdb 	CALL SUBOPT_0x20
                +
000d38 81e9     +LDD R30 , Y + 1
000d39 81fa     +LDD R31 , Y + 1 + 1
000d3a 816b     +LDD R22 , Y + 1 + 2
000d3b 817c     +LDD R23 , Y + 1 + 3
                 	__GETD1S 1
000d3c 940e 20f5 	CALL __CPD10
000d3e f199      	BREQ _0x2020044
000d3f 940e 1be5 	CALL SUBOPT_0x22
000d41 940e 1cfc 	CALL SUBOPT_0x43
000d43 f411      	BRNE _0x2020046
000d44 e002      	LDI  R16,LOW(2)
000d45 c02c      	RJMP _0x2020044
                 _0x2020046:
000d46 940e 1be5 	CALL SUBOPT_0x22
000d48 940e 1d04 	CALL SUBOPT_0x44
000d4a f411      	BRNE _0x2020047
000d4b e001      	LDI  R16,LOW(1)
000d4c c025      	RJMP _0x2020044
                 _0x2020047:
000d4d 85e9      	LDD  R30,Y+9
000d4e 85fa      	LDD  R31,Y+9+1
000d4f 93fa      	ST   -Y,R31
000d50 93ea      	ST   -Y,R30
000d51 940e 1d0c 	CALL SUBOPT_0x45
000d53 940e 20de 	CALL __PUTPARD1
000d55 940e 1d11 	CALL SUBOPT_0x46
000d57 df22      	RCALL _put_fat
000d58 2f0e      	MOV  R16,R30
000d59 3000      	CPI  R16,0
000d5a f4b9      	BRNE _0x2020044
000d5b 85e9      	LDD  R30,Y+9
000d5c 85fa      	LDD  R31,Y+9+1
000d5d 940e 1d16 	CALL SUBOPT_0x47
000d5f f049      	BREQ _0x2020049
000d60 85a9      	LDD  R26,Y+9
000d61 85ba      	LDD  R27,Y+9+1
000d62 940e 1d1b 	CALL SUBOPT_0x48
000d64 85a9      	LDD  R26,Y+9
000d65 85ba      	LDD  R27,Y+9+1
000d66 9615      	ADIW R26,5
000d67 e0e1      	LDI  R30,LOW(1)
000d68 93ec      	ST   X,R30
                 _0x2020049:
                +
000d69 81e9     +LDD R30 , Y + 1
000d6a 81fa     +LDD R31 , Y + 1 + 1
000d6b 816b     +LDD R22 , Y + 1 + 2
000d6c 817c     +LDD R23 , Y + 1 + 3
                 	__GETD1S 1
                +
000d6d 83ed     +STD Y + 5 , R30
000d6e 83fe     +STD Y + 5 + 1 , R31
000d6f 836f     +STD Y + 5 + 2 , R22
000d70 8778     +STD Y + 5 + 3 , R23
                 	__PUTD1S 5
000d71 cfb7      	RJMP _0x2020042
                 _0x2020044:
                 _0x2020041:
000d72 2fe0      	MOV  R30,R16
                 _0x20A0011:
000d73 8108      	LDD  R16,Y+0
000d74 962b      	ADIW R28,11
000d75 9508      	RET
                 ; .FEND
                 _create_chain_G101:
                 ; .FSTART _create_chain_G101
000d76 940e 20e3 	CALL __PUTPARD2
000d78 9760      	SBIW R28,16
000d79 89ac      	LDD  R26,Y+20
000d7a 89bd      	LDD  R27,Y+20+1
000d7b 965e      	ADIW R26,30
000d7c 940e 20b0 	CALL __GETD1P
000d7e 940e 1d25 	CALL SUBOPT_0x49
000d80 940e 1d28 	CALL SUBOPT_0x4A
000d82 940e 20f5 	CALL __CPD10
000d84 f4b1      	BRNE _0x202004A
000d85 89ac      	LDD  R26,Y+20
000d86 89bd      	LDD  R27,Y+20+1
000d87 961a      	ADIW R26,10
000d88 940e 1c4e 	CALL SUBOPT_0x30
000d8a 940e 1d2d 	CALL SUBOPT_0x4B
000d8c 940e 20f9 	CALL __CPD02
000d8e f039      	BREQ _0x202004C
000d8f 940e 1d32 	CALL SUBOPT_0x4C
000d91 940e 1d2d 	CALL SUBOPT_0x4B
000d93 940e 2104 	CALL __CPD21
000d95 f020      	BRLO _0x202004B
                 _0x202004C:
000d96 940e 1c49 	CALL SUBOPT_0x2F
000d98 940e 1d35 	CALL SUBOPT_0x4D
                 _0x202004B:
000d9a c01e      	RJMP _0x202004E
                 _0x202004A:
000d9b 940e 1d3a 	CALL SUBOPT_0x4E
                +
000d9d 89aa     +LDD R26 , Y + 18
000d9e 89bb     +LDD R27 , Y + 18 + 1
000d9f 898c     +LDD R24 , Y + 18 + 2
000da0 899d     +LDD R25 , Y + 18 + 3
                 	__GETD2S 18
000da1 940e 1d3f 	CALL SUBOPT_0x4F
000da3 940e 1d46 	CALL SUBOPT_0x50
000da5 940e 1c41 	CALL SUBOPT_0x2E
000da7 f418      	BRSH _0x202004F
000da8 940e 1c49 	CALL SUBOPT_0x2F
000daa c090      	RJMP _0x20A0010
                 _0x202004F:
000dab 940e 1d32 	CALL SUBOPT_0x4C
000dad 940e 1d46 	CALL SUBOPT_0x50
000daf 940e 2104 	CALL __CPD21
000db1 f418      	BRSH _0x2020050
000db2 940e 1d4b 	CALL SUBOPT_0x51
000db4 c086      	RJMP _0x20A0010
                 _0x2020050:
000db5 940e 1d28 	CALL SUBOPT_0x4A
000db7 940e 1d35 	CALL SUBOPT_0x4D
                 _0x202004E:
000db9 940e 1d50 	CALL SUBOPT_0x52
000dbb 940e 1d55 	CALL SUBOPT_0x53
                 _0x2020052:
000dbd 940e 1c01 	CALL SUBOPT_0x25
                +
000dbf 5fef     +SUBI R30 , LOW ( - 1 )
000dc0 4fff     +SBCI R31 , HIGH ( - 1 )
000dc1 4f6f     +SBCI R22 , BYTE3 ( - 1 )
000dc2 4f7f     +SBCI R23 , BYTE4 ( - 1 )
                 	__SUBD1N -1
000dc3 940e 1d55 	CALL SUBOPT_0x53
000dc5 940e 1d32 	CALL SUBOPT_0x4C
000dc7 940e 1c3c 	CALL SUBOPT_0x2D
000dc9 940e 2104 	CALL __CPD21
000dcb f060      	BRLO _0x2020054
                +
000dcc e0e2     +LDI R30 , LOW ( 0x2 )
000dcd e0f0     +LDI R31 , HIGH ( 0x2 )
000dce e060     +LDI R22 , BYTE3 ( 0x2 )
000dcf e070     +LDI R23 , BYTE4 ( 0x2 )
                 	__GETD1N 0x2
000dd0 940e 1d55 	CALL SUBOPT_0x53
000dd2 940e 1d5a 	CALL SUBOPT_0x54
000dd4 f418      	BRSH _0x2020055
000dd5 940e 1d5f 	CALL SUBOPT_0x55
000dd7 c063      	RJMP _0x20A0010
                 _0x2020055:
                 _0x2020054:
000dd8 940e 1d3a 	CALL SUBOPT_0x4E
                +
000dda 85aa     +LDD R26 , Y + 10
000ddb 85bb     +LDD R27 , Y + 10 + 1
000ddc 858c     +LDD R24 , Y + 10 + 2
000ddd 859d     +LDD R25 , Y + 10 + 3
                 	__GETD2S 10
000dde 940e 1d3f 	CALL SUBOPT_0x4F
000de0 940e 1d4b 	CALL SUBOPT_0x51
000de2 940e 20f5 	CALL __CPD10
000de4 f0a1      	BREQ _0x2020053
000de5 940e 1d46 	CALL SUBOPT_0x50
000de7 940e 1d04 	CALL SUBOPT_0x44
000de9 f029      	BREQ _0x2020058
000dea 940e 1d46 	CALL SUBOPT_0x50
000dec 940e 1cfc 	CALL SUBOPT_0x43
000dee f419      	BRNE _0x2020057
                 _0x2020058:
000def 940e 1d4b 	CALL SUBOPT_0x51
000df1 c049      	RJMP _0x20A0010
                 _0x2020057:
000df2 940e 1d5a 	CALL SUBOPT_0x54
000df4 f419      	BRNE _0x202005A
000df5 940e 1d5f 	CALL SUBOPT_0x55
000df7 c043      	RJMP _0x20A0010
                 _0x202005A:
000df8 cfc4      	RJMP _0x2020052
                 _0x2020053:
000df9 940e 1d3a 	CALL SUBOPT_0x4E
000dfb 940e 1d64 	CALL SUBOPT_0x56
                +
000dfd efaf     +LDI R26 , LOW ( 0xFFFFFFF )
000dfe efbf     +LDI R27 , HIGH ( 0xFFFFFFF )
000dff ef8f     +LDI R24 , BYTE3 ( 0xFFFFFFF )
000e00 e09f     +LDI R25 , BYTE4 ( 0xFFFFFFF )
                 	__GETD2N 0xFFFFFFF
000e01 de78      	RCALL _put_fat
000e02 30e0      	CPI  R30,0
000e03 f019      	BREQ _0x202005B
000e04 940e 1ca1 	CALL SUBOPT_0x39
000e06 c034      	RJMP _0x20A0010
                 _0x202005B:
000e07 940e 1d28 	CALL SUBOPT_0x4A
000e09 940e 20f5 	CALL __CPD10
000e0b f091      	BREQ _0x202005C
000e0c 940e 1d3a 	CALL SUBOPT_0x4E
                +
000e0e 89ea     +LDD R30 , Y + 18
000e0f 89fb     +LDD R31 , Y + 18 + 1
000e10 896c     +LDD R22 , Y + 18 + 2
000e11 897d     +LDD R23 , Y + 18 + 3
                 	__GETD1S 18
000e12 940e 20de 	CALL __PUTPARD1
                +
000e14 85ae     +LDD R26 , Y + 14
000e15 85bf     +LDD R27 , Y + 14 + 1
000e16 8988     +LDD R24 , Y + 14 + 2
000e17 8999     +LDD R25 , Y + 14 + 3
                 	__GETD2S 14
000e18 de61      	RCALL _put_fat
000e19 30e0      	CPI  R30,0
000e1a f019      	BREQ _0x202005D
000e1b 940e 1ca1 	CALL SUBOPT_0x39
000e1d c01d      	RJMP _0x20A0010
                 _0x202005D:
                 _0x202005C:
000e1e 940e 1c01 	CALL SUBOPT_0x25
                +
000e20 89ac     +LDD R26 , Y + 20
000e21 89bd     +LDD R27 , Y + 20 + 1
000e22 961a     +ADIW R26 , 10
000e23 940e 20bb+CALL __PUTDP1
                 	__PUTD1SNS 20,10
000e25 89ec      	LDD  R30,Y+20
000e26 89fd      	LDD  R31,Y+20+1
000e27 940e 1d16 	CALL SUBOPT_0x47
000e29 f079      	BREQ _0x202005E
000e2a 89ac      	LDD  R26,Y+20
000e2b 89bd      	LDD  R27,Y+20+1
000e2c 961e      	ADIW R26,14
000e2d 940e 20b6 	CALL __GETD1P_INC
000e2f 9731      	SBIW R30,1
000e30 4060      	SBCI R22,0
000e31 4070      	SBCI R23,0
000e32 940e 20c0 	CALL __PUTDP1_DEC
000e34 89ac      	LDD  R26,Y+20
000e35 89bd      	LDD  R27,Y+20+1
000e36 9615      	ADIW R26,5
000e37 e0e1      	LDI  R30,LOW(1)
000e38 93ec      	ST   X,R30
                 _0x202005E:
000e39 940e 1c01 	CALL SUBOPT_0x25
                 _0x20A0010:
000e3b 9666      	ADIW R28,22
000e3c 9508      	RET
                 ; .FEND
                 _clust2sect:
                 ; .FSTART _clust2sect
000e3d 940e 20e3 	CALL __PUTPARD2
000e3f 940e 1d32 	CALL SUBOPT_0x4C
                +
000e41 50e2     +SUBI R30 , LOW ( 2 )
000e42 40f0     +SBCI R31 , HIGH ( 2 )
000e43 4060     +SBCI R22 , BYTE3 ( 2 )
000e44 4070     +SBCI R23 , BYTE4 ( 2 )
                 	__SUBD1N 2
000e45 940e 1d25 	CALL SUBOPT_0x49
000e47 81ec      	LDD  R30,Y+4
000e48 81fd      	LDD  R31,Y+4+1
                +
000e49 8da6     +LDD R26 , Z + 30
000e4a 8db7     +LDD R27 , Z + 30 + 1
000e4b a180     +LDD R24 , Z + 30 + 2
000e4c a191     +LDD R25 , Z + 30 + 3
                 	__GETD2Z 30
                +
000e4d e0e2     +LDI R30 , LOW ( 0x2 )
000e4e e0f0     +LDI R31 , HIGH ( 0x2 )
000e4f e060     +LDI R22 , BYTE3 ( 0x2 )
000e50 e070     +LDI R23 , BYTE4 ( 0x2 )
                 	__GETD1N 0x2
000e51 940e 1d6b 	CALL SUBOPT_0x57
000e53 940e 20cf 	CALL __GETD2S0
000e55 940e 2104 	CALL __CPD21
000e57 f018      	BRLO _0x202005F
000e58 940e 1d5f 	CALL SUBOPT_0x55
000e5a c372      	RJMP _0x20A000B
                 _0x202005F:
000e5b 81ec      	LDD  R30,Y+4
000e5c 81fd      	LDD  R31,Y+4+1
000e5d 81e2      	LDD  R30,Z+2
000e5e e0f0      	LDI  R31,0
000e5f 940e 20cf 	CALL __GETD2S0
000e61 940e 200f 	CALL __CWD1
000e63 940e 2028 	CALL __MULD12U
000e65 937f      	PUSH R23
000e66 936f      	PUSH R22
000e67 93ff      	PUSH R31
000e68 93ef      	PUSH R30
000e69 81ac      	LDD  R26,Y+4
000e6a 81bd      	LDD  R27,Y+4+1
000e6b 969a      	ADIW R26,42
000e6c 940e 20b0 	CALL __GETD1P
000e6e 91af      	POP  R26
000e6f 91bf      	POP  R27
000e70 918f      	POP  R24
000e71 919f      	POP  R25
000e72 940e 1fb9 	CALL __ADDD12
000e74 c358      	RJMP _0x20A000B
                 ; .FEND
                 _dir_seek_G101:
                 ; .FSTART _dir_seek_G101
000e75 93ba      	ST   -Y,R27
000e76 93aa      	ST   -Y,R26
000e77 9724      	SBIW R28,4
000e78 931a      	ST   -Y,R17
000e79 930a      	ST   -Y,R16
000e7a 81ee      	LDD  R30,Y+6
000e7b 81ff      	LDD  R31,Y+6+1
000e7c 940e 1d70 	CALL SUBOPT_0x58
000e7e 9616      	ADIW R26,6
000e7f 940e 1d78 	CALL SUBOPT_0x59
000e81 940e 1d7f 	CALL SUBOPT_0x5A
000e83 940e 1cfc 	CALL SUBOPT_0x43
000e85 f029      	BREQ _0x2020061
000e86 940e 1d84 	CALL SUBOPT_0x5B
000e88 940e 1d89 	CALL SUBOPT_0x5C
000e8a f020      	BRLO _0x2020060
                 _0x2020061:
000e8b e0e2      	LDI  R30,LOW(2)
000e8c 8119      	LDD  R17,Y+1
000e8d 8108      	LDD  R16,Y+0
000e8e c163      	RJMP _0x20A000F
                 _0x2020060:
000e8f 940e 1bc9 	CALL SUBOPT_0x1E
000e91 940e 20f5 	CALL __CPD10
000e93 f429      	BRNE _0x2020064
000e94 940e 1d84 	CALL SUBOPT_0x5B
000e96 81a0      	LD   R26,Z
000e97 30a3      	CPI  R26,LOW(0x3)
000e98 f009      	BREQ _0x2020065
                 _0x2020064:
000e99 c006      	RJMP _0x2020063
                 _0x2020065:
000e9a 940e 1d84 	CALL SUBOPT_0x5B
000e9c 96b6      	ADIW R30,38
000e9d 01df      	MOVW R26,R30
000e9e 940e 1d78 	CALL SUBOPT_0x59
                 _0x2020063:
000ea0 940e 1bc9 	CALL SUBOPT_0x1E
000ea2 940e 20f5 	CALL __CPD10
000ea4 f4b1      	BRNE _0x2020066
000ea5 940e 1d91 	CALL SUBOPT_0x5D
000ea7 9638      	ADIW R30,8
000ea8 01df      	MOVW R26,R30
000ea9 940e 20ac 	CALL __GETW1P
000eab 81ae      	LDD  R26,Y+6
000eac 81bf      	LDD  R27,Y+6+1
000ead 17ae      	CP   R26,R30
000eae 07bf      	CPC  R27,R31
000eaf f020      	BRLO _0x2020067
000eb0 e0e2      	LDI  R30,LOW(2)
000eb1 8119      	LDD  R17,Y+1
000eb2 8108      	LDD  R16,Y+0
000eb3 c13e      	RJMP _0x20A000F
                 _0x2020067:
000eb4 940e 1d84 	CALL SUBOPT_0x5B
000eb6 96b6      	ADIW R30,38
000eb7 01df      	MOVW R26,R30
000eb8 940e 20b0 	CALL __GETD1P
000eba c03b      	RJMP _0x202027B
                 _0x2020066:
000ebb 940e 1d84 	CALL SUBOPT_0x5B
000ebd 81e2      	LDD  R30,Z+2
000ebe e1a0      	LDI  R26,LOW(16)
000ebf 9fea      	MUL  R30,R26
000ec0 0180      	MOVW R16,R0
                 _0x2020069:
000ec1 81ae      	LDD  R26,Y+6
000ec2 81bf      	LDD  R27,Y+6+1
000ec3 17a0      	CP   R26,R16
000ec4 07b1      	CPC  R27,R17
000ec5 f148      	BRLO _0x202006B
000ec6 940e 1d84 	CALL SUBOPT_0x5B
000ec8 93fa      	ST   -Y,R31
000ec9 93ea      	ST   -Y,R30
000eca 940e 1d2d 	CALL SUBOPT_0x4B
000ecc dd32      	RCALL _get_fat
                +
000ecd 83ea     +STD Y + 2 , R30
000ece 83fb     +STD Y + 2 + 1 , R31
000ecf 836c     +STD Y + 2 + 2 , R22
000ed0 837d     +STD Y + 2 + 3 , R23
                 	__PUTD1S 2
000ed1 940e 1d7f 	CALL SUBOPT_0x5A
000ed3 940e 1d04 	CALL SUBOPT_0x44
000ed5 f421      	BRNE _0x202006C
000ed6 e0e1      	LDI  R30,LOW(1)
000ed7 8119      	LDD  R17,Y+1
000ed8 8108      	LDD  R16,Y+0
000ed9 c118      	RJMP _0x20A000F
                 _0x202006C:
000eda 940e 1d7f 	CALL SUBOPT_0x5A
000edc 940e 1c41 	CALL SUBOPT_0x2E
000ede f028      	BRLO _0x202006E
000edf 940e 1d84 	CALL SUBOPT_0x5B
000ee1 940e 1d89 	CALL SUBOPT_0x5C
000ee3 f020      	BRLO _0x202006D
                 _0x202006E:
000ee4 e0e2      	LDI  R30,LOW(2)
000ee5 8119      	LDD  R17,Y+1
000ee6 8108      	LDD  R16,Y+0
000ee7 c10a      	RJMP _0x20A000F
                 _0x202006D:
000ee8 81ee      	LDD  R30,Y+6
000ee9 81ff      	LDD  R31,Y+6+1
000eea 1be0      	SUB  R30,R16
000eeb 0bf1      	SBC  R31,R17
000eec 83ee      	STD  Y+6,R30
000eed 83ff      	STD  Y+6+1,R31
000eee cfd2      	RJMP _0x2020069
                 _0x202006B:
000eef 940e 1d91 	CALL SUBOPT_0x5D
000ef1 93fa      	ST   -Y,R31
000ef2 93ea      	ST   -Y,R30
000ef3 940e 1d2d 	CALL SUBOPT_0x4B
000ef5 df47      	RCALL _clust2sect
                 _0x202027B:
000ef6 01df      	MOVW R26,R30
000ef7 01cb      	MOVW R24,R22
000ef8 81ee      	LDD  R30,Y+6
000ef9 81ff      	LDD  R31,Y+6+1
000efa 940e 1ff7 	CALL __LSRW4
000efc 940e 1d98 	CALL SUBOPT_0x5E
000efe 940e 1d9d 	CALL SUBOPT_0x5F
000f00 940e 1d84 	CALL SUBOPT_0x5B
000f02 96f2      	ADIW R30,50
000f03 01df      	MOVW R26,R30
000f04 81ee      	LDD  R30,Y+6
000f05 81ff      	LDD  R31,Y+6+1
000f06 940e 1da3 	CALL SUBOPT_0x60
000f08 8119      	LDD  R17,Y+1
000f09 8108      	LDD  R16,Y+0
000f0a c0e7      	RJMP _0x20A000F
                 ; .FEND
                 _dir_next_G101:
                 ; .FSTART _dir_next_G101
000f0b 93aa      	ST   -Y,R26
000f0c 9724      	SBIW R28,4
000f0d 940e 210c 	CALL __SAVELOCR3
000f0f 85a8      	LDD  R26,Y+8
000f10 85b9      	LDD  R27,Y+8+1
000f11 9614      	ADIW R26,4
000f12 940e 20ac 	CALL __GETW1P
000f14 9631      	ADIW R30,1
000f15 018f      	MOVW R16,R30
000f16 2e00      	MOV  R0,R16
000f17 2a01      	OR   R0,R17
000f18 f031      	BREQ _0x2020071
000f19 85a8      	LDD  R26,Y+8
000f1a 85b9      	LDD  R27,Y+8+1
000f1b 961e      	ADIW R26,14
000f1c 940e 1db1 	CALL SUBOPT_0x61
000f1e f411      	BRNE _0x2020070
                 _0x2020071:
000f1f e0e4      	LDI  R30,LOW(4)
000f20 c0cf      	RJMP _0x20A000E
                 _0x2020070:
000f21 01f8      	MOVW R30,R16
000f22 70ef      	ANDI R30,LOW(0xF)
000f23 f009      	BREQ PC+2
000f24 c0c1      	RJMP _0x2020073
000f25 85a8      	LDD  R26,Y+8
000f26 85b9      	LDD  R27,Y+8+1
000f27 940e 1d1b 	CALL SUBOPT_0x48
000f29 85a8      	LDD  R26,Y+8
000f2a 85b9      	LDD  R27,Y+8+1
000f2b 961a      	ADIW R26,10
000f2c 940e 1db1 	CALL SUBOPT_0x61
000f2e f461      	BRNE _0x2020074
000f2f 940e 1d84 	CALL SUBOPT_0x5B
000f31 9638      	ADIW R30,8
000f32 01df      	MOVW R26,R30
000f33 940e 20ac 	CALL __GETW1P
000f35 170e      	CP   R16,R30
000f36 071f      	CPC  R17,R31
000f37 f010      	BRLO _0x2020075
000f38 e0e4      	LDI  R30,LOW(4)
000f39 c0b6      	RJMP _0x20A000E
                 _0x2020075:
000f3a c0ab      	RJMP _0x2020076
                 _0x2020074:
000f3b 01f8      	MOVW R30,R16
000f3c 940e 1ff7 	CALL __LSRW4
000f3e 010f      	MOVW R0,R30
000f3f 940e 1d84 	CALL SUBOPT_0x5B
000f41 81e2      	LDD  R30,Z+2
000f42 e0f0      	LDI  R31,0
000f43 9731      	SBIW R30,1
000f44 21e0      	AND  R30,R0
000f45 21f1      	AND  R31,R1
000f46 9730      	SBIW R30,0
000f47 f009      	BREQ PC+2
000f48 c09d      	RJMP _0x2020077
000f49 940e 1d84 	CALL SUBOPT_0x5B
000f4b 940e 1db6 	CALL SUBOPT_0x62
000f4d dcb1      	RCALL _get_fat
000f4e 940e 1dbf 	CALL SUBOPT_0x63
000f50 940e 1dc4 	CALL SUBOPT_0x64
000f52 940e 1c41 	CALL SUBOPT_0x2E
000f54 f410      	BRSH _0x2020078
000f55 e0e2      	LDI  R30,LOW(2)
000f56 c099      	RJMP _0x20A000E
                 _0x2020078:
000f57 940e 1dc4 	CALL SUBOPT_0x64
000f59 940e 1d04 	CALL SUBOPT_0x44
000f5b f411      	BRNE _0x2020079
000f5c e0e1      	LDI  R30,LOW(1)
000f5d c092      	RJMP _0x20A000E
                 _0x2020079:
000f5e 940e 1d84 	CALL SUBOPT_0x5B
000f60 967e      	ADIW R30,30
000f61 01df      	MOVW R26,R30
000f62 940e 20b0 	CALL __GETD1P
000f64 940e 1dc4 	CALL SUBOPT_0x64
000f66 940e 2104 	CALL __CPD21
000f68 f408      	BRSH PC+2
000f69 c06d      	RJMP _0x202007A
000f6a 81ef      	LDD  R30,Y+7
000f6b 30e0      	CPI  R30,0
000f6c f411      	BRNE _0x202007B
000f6d e0e4      	LDI  R30,LOW(4)
000f6e c081      	RJMP _0x20A000E
                 _0x202007B:
000f6f 940e 1d84 	CALL SUBOPT_0x5B
000f71 940e 1db6 	CALL SUBOPT_0x62
000f73 de02      	RCALL _create_chain_G101
000f74 940e 1dc9 	CALL SUBOPT_0x65
000f76 940e 20f5 	CALL __CPD10
000f78 f411      	BRNE _0x202007C
000f79 e0e7      	LDI  R30,LOW(7)
000f7a c075      	RJMP _0x20A000E
                 _0x202007C:
000f7b 940e 1dc4 	CALL SUBOPT_0x64
000f7d 940e 1cfc 	CALL SUBOPT_0x43
000f7f f411      	BRNE _0x202007D
000f80 e0e2      	LDI  R30,LOW(2)
000f81 c06e      	RJMP _0x20A000E
                 _0x202007D:
000f82 940e 1dc4 	CALL SUBOPT_0x64
000f84 940e 1d04 	CALL SUBOPT_0x44
000f86 f411      	BRNE _0x202007E
000f87 e0e1      	LDI  R30,LOW(1)
000f88 c067      	RJMP _0x20A000E
                 _0x202007E:
000f89 940e 1d84 	CALL SUBOPT_0x5B
000f8b 940e 1c0d 	CALL SUBOPT_0x27
000f8d 30e0      	CPI  R30,0
000f8e f011      	BREQ _0x202007F
000f8f e0e1      	LDI  R30,LOW(1)
000f90 c05f      	RJMP _0x20A000E
                 _0x202007F:
000f91 940e 1d84 	CALL SUBOPT_0x5B
000f93 940e 1c1d 	CALL SUBOPT_0x29
000f95 940e 1d84 	CALL SUBOPT_0x5B
000f97 01df      	MOVW R26,R30
000f98 96be      	ADIW R30,46
000f99 93ff      	PUSH R31
000f9a 93ef      	PUSH R30
000f9b 01fd      	MOVW R30,R26
000f9c 940e 1dcf 	CALL SUBOPT_0x66
000f9e 91af      	POP  R26
000f9f 91bf      	POP  R27
000fa0 940e 20bb 	CALL __PUTDP1
000fa2 e020      	LDI  R18,LOW(0)
                 _0x2020081:
000fa3 940e 1d84 	CALL SUBOPT_0x5B
000fa5 81e2      	LDD  R30,Z+2
000fa6 172e      	CP   R18,R30
000fa7 f4d8      	BRSH _0x2020082
000fa8 940e 1d84 	CALL SUBOPT_0x5B
000faa 9634      	ADIW R30,4
000fab e0a1      	LDI  R26,LOW(1)
000fac 83a0      	STD  Z+0,R26
000fad 940e 1d84 	CALL SUBOPT_0x5B
000faf 940e 1c0d 	CALL SUBOPT_0x27
000fb1 30e0      	CPI  R30,0
000fb2 f011      	BREQ _0x2020083
000fb3 e0e1      	LDI  R30,LOW(1)
000fb4 c03b      	RJMP _0x20A000E
                 _0x2020083:
000fb5 940e 1d84 	CALL SUBOPT_0x5B
000fb7 96be      	ADIW R30,46
000fb8 01df      	MOVW R26,R30
000fb9 940e 20b6 	CALL __GETD1P_INC
                +
000fbb 5fef     +SUBI R30 , LOW ( - 1 )
000fbc 4fff     +SBCI R31 , HIGH ( - 1 )
000fbd 4f6f     +SBCI R22 , BYTE3 ( - 1 )
000fbe 4f7f     +SBCI R23 , BYTE4 ( - 1 )
                 	__SUBD1N -1
000fbf 940e 20c0 	CALL __PUTDP1_DEC
000fc1 5f2f      	SUBI R18,-1
000fc2 cfe0      	RJMP _0x2020081
                 _0x2020082:
000fc3 940e 1d84 	CALL SUBOPT_0x5B
000fc5 96be      	ADIW R30,46
000fc6 93ff      	PUSH R31
000fc7 93ef      	PUSH R30
000fc8 01df      	MOVW R26,R30
000fc9 940e 20b0 	CALL __GETD1P
000fcb 01df      	MOVW R26,R30
000fcc 01cb      	MOVW R24,R22
000fcd 2fe2      	MOV  R30,R18
000fce e0f0      	LDI  R31,0
000fcf 940e 200f 	CALL __CWD1
000fd1 940e 1d6b 	CALL SUBOPT_0x57
000fd3 91af      	POP  R26
000fd4 91bf      	POP  R27
000fd5 940e 20bb 	CALL __PUTDP1
                 _0x202007A:
                +
000fd7 81eb     +LDD R30 , Y + 3
000fd8 81fc     +LDD R31 , Y + 3 + 1
000fd9 816d     +LDD R22 , Y + 3 + 2
000fda 817e     +LDD R23 , Y + 3 + 3
                 	__GETD1S 3
                +
000fdb 85a8     +LDD R26 , Y + 8
000fdc 85b9     +LDD R27 , Y + 8 + 1
000fdd 961a     +ADIW R26 , 10
000fde 940e 20bb+CALL __PUTDP1
                 	__PUTD1SNS 8,10
000fe0 940e 1d84 	CALL SUBOPT_0x5B
000fe2 940e 1dcf 	CALL SUBOPT_0x66
000fe4 940e 1d9d 	CALL SUBOPT_0x5F
                 _0x2020077:
                 _0x2020076:
                 _0x2020073:
000fe6 01f8      	MOVW R30,R16
000fe7 940e 1d70 	CALL SUBOPT_0x58
000fe9 940e 20ac 	CALL __GETW1P
000feb 96f2      	ADIW R30,50
000fec 01df      	MOVW R26,R30
000fed 01f8      	MOVW R30,R16
000fee 940e 1da3 	CALL SUBOPT_0x60
                 _0x20A000E:
000ff0 940e 2113 	CALL __LOADLOCR3
                 _0x20A000F:
000ff2 962a      	ADIW R28,10
000ff3 9508      	RET
                 ; .FEND
                 _dir_find_G101:
                 ; .FSTART _dir_find_G101
000ff4 940e 1dd4 	CALL SUBOPT_0x67
000ff6 f021      	BREQ _0x2020084
000ff7 2fe0      	MOV  R30,R16
000ff8 940e 2112 	CALL __LOADLOCR4
000ffa c1d2      	RJMP _0x20A000B
                 _0x2020084:
                 _0x2020086:
000ffb 940e 1de3 	CALL SUBOPT_0x68
000ffd f501      	BRNE _0x2020087
000ffe 81ac      	LDD  R26,Y+4
000fff 81bd      	LDD  R27,Y+4+1
001000 9652      	ADIW R26,18
001001 912d      	LD   R18,X+
001002 913c      	LD   R19,X
001003 01d9      	MOVW R26,R18
001004 911c      	LD   R17,X
001005 3010      	CPI  R17,0
001006 f411      	BRNE _0x2020089
001007 e004      	LDI  R16,LOW(4)
001008 c015      	RJMP _0x2020087
                 _0x2020089:
001009 01f9      	MOVW R30,R18
00100a 85e3      	LDD  R30,Z+11
00100b 70e8      	ANDI R30,LOW(0x8)
00100c f431      	BRNE _0x202008B
00100d 940e 1df4 	CALL SUBOPT_0x69
00100f 940e 1abb 	CALL _memcmp
001011 30e0      	CPI  R30,0
001012 f009      	BREQ _0x202008C
                 _0x202008B:
001013 c001      	RJMP _0x202008A
                 _0x202008C:
001014 c009      	RJMP _0x2020087
                 _0x202008A:
001015 81ec      	LDD  R30,Y+4
001016 81fd      	LDD  R31,Y+4+1
001017 93fa      	ST   -Y,R31
001018 93ea      	ST   -Y,R30
001019 e0a0      	LDI  R26,LOW(0)
00101a def0      	RCALL _dir_next_G101
00101b 2f0e      	MOV  R16,R30
00101c 3000      	CPI  R16,0
00101d f2e9      	BREQ _0x2020086
                 _0x2020087:
00101e 2fe0      	MOV  R30,R16
00101f 940e 2112 	CALL __LOADLOCR4
001021 c1ab      	RJMP _0x20A000B
                 ; .FEND
                 _dir_register_G101:
                 ; .FSTART _dir_register_G101
001022 940e 1dd4 	CALL SUBOPT_0x67
001024 f4b1      	BRNE _0x2020099
                 _0x202009B:
001025 940e 1de3 	CALL SUBOPT_0x68
001027 f499      	BRNE _0x202009C
001028 81ec      	LDD  R30,Y+4
001029 81fd      	LDD  R31,Y+4+1
00102a 89a2      	LDD  R26,Z+18
00102b 89b3      	LDD  R27,Z+19
00102c 911c      	LD   R17,X
00102d 3e15      	CPI  R17,229
00102e f011      	BREQ _0x202009F
00102f 3010      	CPI  R17,0
001030 f409      	BRNE _0x202009E
                 _0x202009F:
001031 c009      	RJMP _0x202009C
                 _0x202009E:
001032 81ec      	LDD  R30,Y+4
001033 81fd      	LDD  R31,Y+4+1
001034 93fa      	ST   -Y,R31
001035 93ea      	ST   -Y,R30
001036 e0a1      	LDI  R26,LOW(1)
001037 ded3      	RCALL _dir_next_G101
001038 2f0e      	MOV  R16,R30
001039 3000      	CPI  R16,0
00103a f351      	BREQ _0x202009B
                 _0x202009C:
                 _0x2020099:
00103b 3000      	CPI  R16,0
00103c f529      	BRNE _0x20200A1
00103d 940e 1de3 	CALL SUBOPT_0x68
00103f f511      	BRNE _0x20200A2
001040 81ac      	LDD  R26,Y+4
001041 81bd      	LDD  R27,Y+4+1
001042 9652      	ADIW R26,18
001043 912d      	LD   R18,X+
001044 913c      	LD   R19,X
001045 933a      	ST   -Y,R19
001046 932a      	ST   -Y,R18
001047 e0e0      	LDI  R30,LOW(0)
001048 93ea      	ST   -Y,R30
001049 e2a0      	LDI  R26,LOW(32)
00104a e0b0      	LDI  R27,0
00104b 940e 1ae6 	CALL _memset
00104d 940e 1df4 	CALL SUBOPT_0x69
00104f 940e 1ad4 	CALL _memcpy
001051 81ac      	LDD  R26,Y+4
001052 81bd      	LDD  R27,Y+4+1
001053 9654      	ADIW R26,20
001054 940e 20ac 	CALL __GETW1P
001056 85e3      	LDD  R30,Z+11
001057 71e8      	ANDI R30,LOW(0x18)
                +
001058 01d9     +MOVW R26 , R18
001059 961c     +ADIW R26 , 12
00105a 93ec     +ST X , R30
                 	__PUTB1RNS 18,12
00105b 81ac      	LDD  R26,Y+4
00105c 81bd      	LDD  R27,Y+4+1
00105d 940e 20ac 	CALL __GETW1P
00105f 9634      	ADIW R30,4
001060 e0a1      	LDI  R26,LOW(1)
001061 83a0      	STD  Z+0,R26
                 _0x20200A2:
                 _0x20200A1:
001062 2fe0      	MOV  R30,R16
001063 940e 2112 	CALL __LOADLOCR4
001065 c167      	RJMP _0x20A000B
                 ; .FEND
                 _create_name_G101:
                 ; .FSTART _create_name_G101
001066 93ba      	ST   -Y,R27
001067 93aa      	ST   -Y,R26
001068 9725      	SBIW R28,5
001069 940e 2109 	CALL __SAVELOCR6
00106b 85ad      	LDD  R26,Y+13
00106c 85be      	LDD  R27,Y+13+1
00106d 9654      	ADIW R26,20
00106e 913d      	LD   R19,X+
00106f 914c      	LD   R20,X
001070 934a      	ST   -Y,R20
001071 933a      	ST   -Y,R19
001072 e2e0      	LDI  R30,LOW(32)
001073 93ea      	ST   -Y,R30
001074 e0ab      	LDI  R26,LOW(11)
001075 e0b0      	LDI  R27,0
001076 940e 1ae6 	CALL _memset
001078 e0e0      	LDI  R30,LOW(0)
001079 87e8      	STD  Y+8,R30
00107a 87e9      	STD  Y+8+1,R30
00107b 2f0e      	MOV  R16,R30
00107c 2f5e      	MOV  R21,R30
00107d e0e8      	LDI  R30,LOW(8)
00107e 87ea      	STD  Y+10,R30
00107f 85ab      	LDD  R26,Y+11
001080 85bc      	LDD  R27,Y+11+1
001081 940e 1dff 	CALL SUBOPT_0x6A
001083 940e 1e04 	CALL SUBOPT_0x6B
001085 0fae      	ADD  R26,R30
001086 1fbf      	ADC  R27,R31
001087 91ac      	LD   R26,X
001088 32ae      	CPI  R26,LOW(0x2E)
001089 f511      	BRNE _0x20200A5
                 _0x20200A7:
00108a 940e 1e09 	CALL SUBOPT_0x6C
00108c 321e      	CPI  R17,46
00108d f421      	BRNE _0x20200AA
00108e 85a8      	LDD  R26,Y+8
00108f 85b9      	LDD  R27,Y+8+1
001090 9713      	SBIW R26,3
001091 f00c      	BRLT _0x20200A9
                 _0x20200AA:
001092 c003      	RJMP _0x20200A8
                 _0x20200A9:
001093 940e 1e15 	CALL SUBOPT_0x6D
001095 cff4      	RJMP _0x20200A7
                 _0x20200A8:
001096 321f      	CPI  R17,47
001097 f021      	BREQ _0x20200AD
001098 351c      	CPI  R17,92
001099 f011      	BREQ _0x20200AD
00109a 3211      	CPI  R17,33
00109b f408      	BRSH _0x20200AE
                 _0x20200AD:
00109c c002      	RJMP _0x20200AC
                 _0x20200AE:
00109d e0e6      	LDI  R30,LOW(6)
00109e c073      	RJMP _0x20A000C
                 _0x20200AC:
00109f 940e 1e04 	CALL SUBOPT_0x6B
0010a1 940e 1e1c 	CALL SUBOPT_0x6E
0010a3 f410      	BRSH _0x20200AF
0010a4 e2e4      	LDI  R30,LOW(36)
0010a5 c001      	RJMP _0x20200B0
                 _0x20200AF:
0010a6 e2e0      	LDI  R30,LOW(32)
                 _0x20200B0:
                +
0010a7 2fa3     +MOV R26 , R19
0010a8 2fb4     +MOV R27 , R20
0010a9 961b     +ADIW R26 , 11
0010aa 93ec     +ST X , R30
                 	__PUTB1RONS 19,20,11
0010ab c065      	RJMP _0x20A000D
                 _0x20200A5:
                 _0x20200B3:
0010ac 940e 1e09 	CALL SUBOPT_0x6C
0010ae 3211      	CPI  R17,33
0010af f020      	BRLO _0x20200B6
0010b0 321f      	CPI  R17,47
0010b1 f011      	BREQ _0x20200B6
0010b2 351c      	CPI  R17,92
0010b3 f409      	BRNE _0x20200B5
                 _0x20200B6:
0010b4 c034      	RJMP _0x20200B4
                 _0x20200B5:
0010b5 321e      	CPI  R17,46
0010b6 f019      	BREQ _0x20200B9
0010b7 85ea      	LDD  R30,Y+10
0010b8 175e      	CP   R21,R30
0010b9 f068      	BRLO _0x20200B8
                 _0x20200B9:
0010ba 85aa      	LDD  R26,Y+10
0010bb 30a8      	CPI  R26,LOW(0x8)
0010bc f411      	BRNE _0x20200BC
0010bd 321e      	CPI  R17,46
0010be f011      	BREQ _0x20200BB
                 _0x20200BC:
0010bf e0e6      	LDI  R30,LOW(6)
0010c0 c051      	RJMP _0x20A000C
                 _0x20200BB:
0010c1 e058      	LDI  R21,LOW(8)
0010c2 e0eb      	LDI  R30,LOW(11)
0010c3 87ea      	STD  Y+10,R30
0010c4 0f00      	LSL  R16
0010c5 0f00      	LSL  R16
0010c6 c021      	RJMP _0x20200B2
                 _0x20200B8:
0010c7 3810      	CPI  R17,128
0010c8 f018      	BRLO _0x20200BE
0010c9 6003      	ORI  R16,LOW(3)
0010ca e0e6      	LDI  R30,LOW(6)
0010cb c046      	RJMP _0x20A000C
                 _0x20200BE:
                +
0010cc e1e0     +LDI R30 , LOW ( 2 * _k1 + ( 0 ) )
0010cd e0f1     +LDI R31 , HIGH ( 2 * _k1 + ( 0 ) )
0010ce e060     +LDI R22 , BYTE3 ( 2 * _k1 + ( 0 ) )
0010cf e070     +LDI R23 , BYTE4 ( 2 * _k1 + ( 0 ) )
                 	__POINTD1FN _k1,0
0010d0 940e 20de 	CALL __PUTPARD1
0010d2 2fa1      	MOV  R26,R17
0010d3 da43      	RCALL _chk_chrf_G101
0010d4 9730      	SBIW R30,0
0010d5 f011      	BREQ _0x20200C4
0010d6 e0e6      	LDI  R30,LOW(6)
0010d7 c03a      	RJMP _0x20A000C
                 _0x20200C4:
0010d8 3411      	CPI  R17,65
0010d9 f010      	BRLO _0x20200C6
0010da 351b      	CPI  R17,91
0010db f008      	BRLO _0x20200C7
                 _0x20200C6:
0010dc c002      	RJMP _0x20200C5
                 _0x20200C7:
0010dd 6002      	ORI  R16,LOW(2)
0010de c007      	RJMP _0x20200C8
                 _0x20200C5:
0010df 3611      	CPI  R17,97
0010e0 f010      	BRLO _0x20200CA
0010e1 371b      	CPI  R17,123
0010e2 f008      	BRLO _0x20200CB
                 _0x20200CA:
0010e3 c002      	RJMP _0x20200C9
                 _0x20200CB:
0010e4 6001      	ORI  R16,LOW(1)
0010e5 5210      	SUBI R17,LOW(32)
                 _0x20200C9:
                 _0x20200C8:
0010e6 940e 1e15 	CALL SUBOPT_0x6D
                 _0x20200B2:
0010e8 cfc3      	RJMP _0x20200B3
                 _0x20200B4:
0010e9 940e 1e04 	CALL SUBOPT_0x6B
0010eb 940e 1e1c 	CALL SUBOPT_0x6E
0010ed f410      	BRSH _0x20200CC
0010ee e0e4      	LDI  R30,LOW(4)
0010ef c001      	RJMP _0x20200CD
                 _0x20200CC:
0010f0 e0e0      	LDI  R30,LOW(0)
                 _0x20200CD:
0010f1 2f1e      	MOV  R17,R30
0010f2 3050      	CPI  R21,0
0010f3 f411      	BRNE _0x20200CF
0010f4 e0e6      	LDI  R30,LOW(6)
0010f5 c01c      	RJMP _0x20A000C
                 _0x20200CF:
                +
0010f6 2fa3     +MOV R26 , R19
0010f7 2fb4     +MOV R27 , R20
                 	__GETW2R 19,20
0010f8 91ac      	LD   R26,X
0010f9 3ea5      	CPI  R26,LOW(0xE5)
0010fa f421      	BRNE _0x20200D0
                +
0010fb 2fa3     +MOV R26 , R19
0010fc 2fb4     +MOV R27 , R20
                 	__GETW2R 19,20
0010fd e0e5      	LDI  R30,LOW(5)
0010fe 93ec      	ST   X,R30
                 _0x20200D0:
0010ff 85aa      	LDD  R26,Y+10
001100 30a8      	CPI  R26,LOW(0x8)
001101 f411      	BRNE _0x20200D1
001102 0f00      	LSL  R16
001103 0f00      	LSL  R16
                 _0x20200D1:
001104 2fe0      	MOV  R30,R16
001105 70e3      	ANDI R30,LOW(0x3)
001106 30e1      	CPI  R30,LOW(0x1)
001107 f409      	BRNE _0x20200D2
001108 6110      	ORI  R17,LOW(16)
                 _0x20200D2:
001109 2fe0      	MOV  R30,R16
00110a 70ec      	ANDI R30,LOW(0xC)
00110b 30e4      	CPI  R30,LOW(0x4)
00110c f409      	BRNE _0x20200D3
00110d 6018      	ORI  R17,LOW(8)
                 _0x20200D3:
                +
00110e 2fe3     +MOV R30 , R19
00110f 2ff4     +MOV R31 , R20
                 	__GETW1R 19,20
                +
001110 8713     +STD Z + 11 , R17
                 	__PUTBZR 17,11
                 _0x20A000D:
001111 e0e0      	LDI  R30,LOW(0)
                 _0x20A000C:
001112 940e 2110 	CALL __LOADLOCR6
001114 962f      	ADIW R28,15
001115 9508      	RET
                 ; .FEND
                 _follow_path_G101:
                 ; .FSTART _follow_path_G101
001116 93ba      	ST   -Y,R27
001117 93aa      	ST   -Y,R26
001118 940e 210b 	CALL __SAVELOCR4
                 _0x20200E9:
00111a e0e1      	LDI  R30,LOW(1)
00111b 30e0      	CPI  R30,0
00111c f029      	BREQ _0x20200EC
00111d 81ac      	LDD  R26,Y+4
00111e 81bd      	LDD  R27,Y+4+1
00111f 91ac      	LD   R26,X
001120 32a0      	CPI  R26,LOW(0x20)
001121 f009      	BREQ _0x20200ED
                 _0x20200EC:
001122 c006      	RJMP _0x20200EB
                 _0x20200ED:
001123 81ec      	LDD  R30,Y+4
001124 81fd      	LDD  R31,Y+4+1
001125 9631      	ADIW R30,1
001126 83ec      	STD  Y+4,R30
001127 83fd      	STD  Y+4+1,R31
001128 cff1      	RJMP _0x20200E9
                 _0x20200EB:
001129 81ac      	LDD  R26,Y+4
00112a 81bd      	LDD  R27,Y+4+1
00112b 91ac      	LD   R26,X
00112c 32af      	CPI  R26,LOW(0x2F)
00112d f029      	BREQ _0x20200EF
00112e 81ac      	LDD  R26,Y+4
00112f 81bd      	LDD  R27,Y+4+1
001130 91ac      	LD   R26,X
001131 35ac      	CPI  R26,LOW(0x5C)
001132 f459      	BRNE _0x20200EE
                 _0x20200EF:
001133 81ec      	LDD  R30,Y+4
001134 81fd      	LDD  R31,Y+4+1
001135 9631      	ADIW R30,1
001136 83ec      	STD  Y+4,R30
001137 83fd      	STD  Y+4+1,R31
001138 81ae      	LDD  R26,Y+6
001139 81bf      	LDD  R27,Y+6+1
00113a 9616      	ADIW R26,6
00113b 940e 1e24 	CALL SUBOPT_0x6F
00113d c00a      	RJMP _0x20200F1
                 _0x20200EE:
00113e 81ae      	LDD  R26,Y+6
00113f 81bf      	LDD  R27,Y+6+1
001140 940e 20ac 	CALL __GETW1P
001142 9676      	ADIW R30,22
001143 01df      	MOVW R26,R30
001144 940e 20b0 	CALL __GETD1P
001146 940e 1e28 	CALL SUBOPT_0x70
                 _0x20200F1:
001148 81ac      	LDD  R26,Y+4
001149 81bd      	LDD  R27,Y+4+1
00114a 91ac      	LD   R26,X
00114b 27bb      	CLR  R27
00114c 9790      	SBIW R26,32
00114d f460      	BRSH _0x20200F2
00114e 940e 1e2e 	CALL SUBOPT_0x71
001150 e0a0      	LDI  R26,LOW(0)
001151 e0b0      	LDI  R27,0
001152 dd22      	RCALL _dir_seek_G101
001153 2f0e      	MOV  R16,R30
001154 81ae      	LDD  R26,Y+6
001155 81bf      	LDD  R27,Y+6+1
001156 9652      	ADIW R26,18
001157 940e 1e33 	CALL SUBOPT_0x72
001159 c03e      	RJMP _0x20200F3
                 _0x20200F2:
                 _0x20200F5:
00115a 940e 1e2e 	CALL SUBOPT_0x71
00115c 01de      	MOVW R26,R28
00115d 9616      	ADIW R26,6
00115e df07      	RCALL _create_name_G101
00115f 2f0e      	MOV  R16,R30
001160 3000      	CPI  R16,0
001161 f5b1      	BRNE _0x20200F6
001162 81ae      	LDD  R26,Y+6
001163 81bf      	LDD  R27,Y+6+1
001164 de8f      	RCALL _dir_find_G101
001165 2f0e      	MOV  R16,R30
001166 81ae      	LDD  R26,Y+6
001167 81bf      	LDD  R27,Y+6+1
001168 9654      	ADIW R26,20
001169 940e 20ac 	CALL __GETW1P
00116b 85e3      	LDD  R30,Z+11
00116c 70e4      	ANDI R30,LOW(0x4)
00116d 2f3e      	MOV  R19,R30
00116e 3000      	CPI  R16,0
00116f f039      	BREQ _0x20200F8
001170 3004      	CPI  R16,4
001171 f411      	BRNE _0x20200FA
001172 3030      	CPI  R19,0
001173 f009      	BREQ _0x20200FB
                 _0x20200FA:
001174 c001      	RJMP _0x20200F9
                 _0x20200FB:
001175 e005      	LDI  R16,LOW(5)
                 _0x20200F9:
001176 c021      	RJMP _0x20200F6
                 _0x20200F8:
001177 3030      	CPI  R19,0
001178 f4f9      	BRNE _0x20200F6
001179 81ae      	LDD  R26,Y+6
00117a 81bf      	LDD  R27,Y+6+1
00117b 9652      	ADIW R26,18
00117c 911d      	LD   R17,X+
00117d 912c      	LD   R18,X
                +
00117e 2fe1     +MOV R30 , R17
00117f 2ff2     +MOV R31 , R18
                 	__GETW1R 17,18
001180 85e3      	LDD  R30,Z+11
001181 71e0      	ANDI R30,LOW(0x10)
001182 f411      	BRNE _0x20200FD
001183 e005      	LDI  R16,LOW(5)
001184 c013      	RJMP _0x20200F6
                 _0x20200FD:
001185 940e 1e38 	CALL SUBOPT_0x73
001187 940e 200a 	CALL __LSLD16
001189 937f      	PUSH R23
00118a 936f      	PUSH R22
00118b 93ff      	PUSH R31
00118c 93ef      	PUSH R30
00118d 940e 1e3c 	CALL SUBOPT_0x74
00118f 91af      	POP  R26
001190 91bf      	POP  R27
001191 918f      	POP  R24
001192 919f      	POP  R25
001193 940e 1e42 	CALL SUBOPT_0x75
001195 940e 1e28 	CALL SUBOPT_0x70
001197 cfc2      	RJMP _0x20200F5
                 _0x20200F6:
                 _0x20200F3:
001198 2fe0      	MOV  R30,R16
001199 940e 2112 	CALL __LOADLOCR4
00119b 9628      	ADIW R28,8
00119c 9508      	RET
                 ; .FEND
                 _check_fs_G101:
                 ; .FSTART _check_fs_G101
00119d 940e 20e3 	CALL __PUTPARD2
00119f 81ec      	LDD  R30,Y+4
0011a0 81fd      	LDD  R31,Y+4+1
0011a1 81a1      	LDD  R26,Z+1
0011a2 93aa      	ST   -Y,R26
0011a3 81ed      	LDD  R30,Y+5
0011a4 81fe      	LDD  R31,Y+5+1
0011a5 96f2      	ADIW R30,50
0011a6 93fa      	ST   -Y,R31
0011a7 93ea      	ST   -Y,R30
                +
0011a8 81eb     +LDD R30 , Y + 3
0011a9 81fc     +LDD R31 , Y + 3 + 1
0011aa 816d     +LDD R22 , Y + 3 + 2
0011ab 817e     +LDD R23 , Y + 3 + 3
                 	__GETD1S 3
0011ac 940e 1c06 	CALL SUBOPT_0x26
0011ae f011      	BREQ _0x20200FE
0011af e0e3      	LDI  R30,LOW(3)
0011b0 c01c      	RJMP _0x20A000B
                 _0x20200FE:
0011b1 81ec      	LDD  R30,Y+4
0011b2 81fd      	LDD  R31,Y+4+1
0011b3 940e 1e47 	CALL SUBOPT_0x76
0011b5 f011      	BREQ _0x20200FF
0011b6 e0e2      	LDI  R30,LOW(2)
0011b7 c015      	RJMP _0x20A000B
                 _0x20200FF:
0011b8 81ac      	LDD  R26,Y+4
0011b9 81bd      	LDD  R27,Y+4+1
0011ba 59a8      	SUBI R26,LOW(-104)
0011bb 4fbf      	SBCI R27,HIGH(-104)
0011bc 940e 1e51 	CALL SUBOPT_0x77
0011be f411      	BRNE _0x2020100
0011bf e0e0      	LDI  R30,LOW(0)
0011c0 c00c      	RJMP _0x20A000B
                 _0x2020100:
0011c1 81ec      	LDD  R30,Y+4
0011c2 81fd      	LDD  R31,Y+4+1
0011c3 96f2      	ADIW R30,50
0011c4 5aee      	SUBI R30,LOW(-82)
0011c5 4fff      	SBCI R31,HIGH(-82)
0011c6 01df      	MOVW R26,R30
0011c7 940e 1e51 	CALL SUBOPT_0x77
0011c9 f411      	BRNE _0x2020101
0011ca e0e0      	LDI  R30,LOW(0)
0011cb c001      	RJMP _0x20A000B
                 _0x2020101:
0011cc e0e1      	LDI  R30,LOW(1)
                 _0x20A000B:
0011cd 9626      	ADIW R28,6
0011ce 9508      	RET
                 ; .FEND
                 _chk_mounted:
                 ; .FSTART _chk_mounted
0011cf 93aa      	ST   -Y,R26
0011d0 9764      	SBIW R28,20
0011d1 940e 210a 	CALL __SAVELOCR5
0011d3 8dac      	LDD  R26,Y+28
0011d4 8dbd      	LDD  R27,Y+28+1
0011d5 940e 20ac 	CALL __GETW1P
0011d7 83ef      	STD  Y+7,R30
0011d8 87f8      	STD  Y+7+1,R31
0011d9 81af      	LDD  R26,Y+7
0011da 85b8      	LDD  R27,Y+7+1
0011db 91ec      	LD   R30,X
0011dc 53e0      	SUBI R30,LOW(48)
0011dd 2f3e      	MOV  R19,R30
0011de 303a      	CPI  R19,10
0011df f420      	BRSH _0x2020103
0011e0 9611      	ADIW R26,1
0011e1 91ac      	LD   R26,X
0011e2 33aa      	CPI  R26,LOW(0x3A)
0011e3 f009      	BREQ _0x2020104
                 _0x2020103:
0011e4 c00a      	RJMP _0x2020102
                 _0x2020104:
0011e5 81ef      	LDD  R30,Y+7
0011e6 85f8      	LDD  R31,Y+7+1
0011e7 9632      	ADIW R30,2
0011e8 83ef      	STD  Y+7,R30
0011e9 87f8      	STD  Y+7+1,R31
0011ea 8dac      	LDD  R26,Y+28
0011eb 8dbd      	LDD  R27,Y+28+1
0011ec 93ed      	ST   X+,R30
0011ed 93fc      	ST   X,R31
0011ee c002      	RJMP _0x2020105
                 _0x2020102:
0011ef 9130 0f0f 	LDS  R19,_Drive_G101
                 _0x2020105:
0011f1 3031      	CPI  R19,1
0011f2 f010      	BRLO _0x2020106
0011f3 e0eb      	LDI  R30,LOW(11)
0011f4 c1cc      	RJMP _0x20A0009
                 _0x2020106:
0011f5 2fe3      	MOV  R30,R19
0011f6 940e 1e5f 	CALL SUBOPT_0x78
0011f8 940e 20ac 	CALL __GETW1P
0011fa 83ed      	STD  Y+5,R30
0011fb 83fe      	STD  Y+5+1,R31
0011fc 8daa      	LDD  R26,Y+26
0011fd 8dbb      	LDD  R27,Y+26+1
0011fe 93ed      	ST   X+,R30
0011ff 93fc      	ST   X,R31
001200 9730      	SBIW R30,0
001201 f411      	BRNE _0x2020107
001202 e0ec      	LDI  R30,LOW(12)
001203 c1bd      	RJMP _0x20A0009
                 _0x2020107:
001204 81ad      	LDD  R26,Y+5
001205 81be      	LDD  R27,Y+5+1
001206 91ec      	LD   R30,X
001207 30e0      	CPI  R30,0
001208 f089      	BREQ _0x2020108
001209 81ed      	LDD  R30,Y+5
00120a 81fe      	LDD  R31,Y+5+1
00120b 81a1      	LDD  R26,Z+1
00120c 940e 07e6 	CALL _disk_status
00120e 2f4e      	MOV  R20,R30
00120f fd40      	SBRC R20,0
001210 c009      	RJMP _0x2020109
001211 8de9      	LDD  R30,Y+25
001212 30e0      	CPI  R30,0
001213 f011      	BREQ _0x202010B
001214 fd42      	SBRC R20,2
001215 c001      	RJMP _0x202010C
                 _0x202010B:
001216 c002      	RJMP _0x202010A
                 _0x202010C:
001217 e0ea      	LDI  R30,LOW(10)
001218 c1a8      	RJMP _0x20A0009
                 _0x202010A:
001219 c1a6      	RJMP _0x20A000A
                 _0x2020109:
                 _0x2020108:
00121a 81ad      	LDD  R26,Y+5
00121b 81be      	LDD  R27,Y+5+1
00121c e0e0      	LDI  R30,LOW(0)
00121d 93ec      	ST   X,R30
00121e 2fe3      	MOV  R30,R19
                +
00121f 81ad     +LDD R26 , Y + 5
001220 81be     +LDD R27 , Y + 5 + 1
001221 9611     +ADIW R26 , 1
001222 93ec     +ST X , R30
                 	__PUTB1SNS 5,1
001223 81ed      	LDD  R30,Y+5
001224 81fe      	LDD  R31,Y+5+1
001225 81a1      	LDD  R26,Z+1
001226 940e 0712 	CALL _disk_initialize
001228 2f4e      	MOV  R20,R30
001229 ff40      	SBRS R20,0
00122a c002      	RJMP _0x202010D
00122b e0e3      	LDI  R30,LOW(3)
00122c c194      	RJMP _0x20A0009
                 _0x202010D:
00122d 8de9      	LDD  R30,Y+25
00122e 30e0      	CPI  R30,0
00122f f011      	BREQ _0x202010F
001230 fd42      	SBRC R20,2
001231 c001      	RJMP _0x2020110
                 _0x202010F:
001232 c002      	RJMP _0x202010E
                 _0x2020110:
001233 e0ea      	LDI  R30,LOW(10)
001234 c18c      	RJMP _0x20A0009
                 _0x202010E:
001235 940e 1e67 	CALL SUBOPT_0x79
001237 940e 1d5f 	CALL SUBOPT_0x55
                +
001239 8bef     +STD Y + 23 , R30
00123a 8ff8     +STD Y + 23 + 1 , R31
00123b 8f69     +STD Y + 23 + 2 , R22
00123c 8f7a     +STD Y + 23 + 3 , R23
                 	__PUTD1S 23
00123d 01df      	MOVW R26,R30
00123e 01cb      	MOVW R24,R22
00123f df5d      	RCALL _check_fs_G101
001240 2f0e      	MOV  R16,R30
001241 3001      	CPI  R16,1
001242 f4d9      	BRNE _0x2020111
001243 81ed      	LDD  R30,Y+5
001244 81fe      	LDD  R31,Y+5+1
001245 96f2      	ADIW R30,50
001246 54e2      	SUBI R30,LOW(-446)
001247 4ffe      	SBCI R31,HIGH(-446)
                +
001248 2f1e     +MOV R17 , R30
001249 2f2f     +MOV R18 , R31
                 	__PUTW1R 17,18
00124a 81e4      	LDD  R30,Z+4
00124b 30e0      	CPI  R30,0
00124c f089      	BREQ _0x2020112
                +
00124d 2fa1     +MOV R26 , R17
00124e 2fb2     +MOV R27 , R18
                 	__GETW2R 17,18
00124f 9618      	ADIW R26,8
001250 940e 20b0 	CALL __GETD1P
                +
001252 8bed     +STD Y + 21 , R30
001253 8bfe     +STD Y + 21 + 1 , R31
001254 8b6f     +STD Y + 21 + 2 , R22
001255 8f78     +STD Y + 21 + 3 , R23
                 	__PUTD1S 21
001256 940e 1e67 	CALL SUBOPT_0x79
                +
001258 89af     +LDD R26 , Y + 23
001259 8db8     +LDD R27 , Y + 23 + 1
00125a 8d89     +LDD R24 , Y + 23 + 2
00125b 8d9a     +LDD R25 , Y + 23 + 3
                 	__GETD2S 23
00125c df40      	RCALL _check_fs_G101
00125d 2f0e      	MOV  R16,R30
                 _0x2020112:
                 _0x2020111:
00125e 3003      	CPI  R16,3
00125f f411      	BRNE _0x2020113
001260 e0e1      	LDI  R30,LOW(1)
001261 c15f      	RJMP _0x20A0009
                 _0x2020113:
001262 3000      	CPI  R16,0
001263 f449      	BRNE _0x2020115
001264 81ad      	LDD  R26,Y+5
001265 81be      	LDD  R27,Y+5+1
001266 96dd      	ADIW R26,61
001267 940e 20ac 	CALL __GETW1P
001269 30e0      	CPI  R30,LOW(0x200)
00126a e0a2      	LDI  R26,HIGH(0x200)
00126b 07fa      	CPC  R31,R26
00126c f011      	BREQ _0x2020114
                 _0x2020115:
00126d e0ed      	LDI  R30,LOW(13)
00126e c152      	RJMP _0x20A0009
                 _0x2020114:
00126f 81ad      	LDD  R26,Y+5
001270 81be      	LDD  R27,Y+5+1
001271 5ba8      	SUBI R26,LOW(-72)
001272 4fbf      	SBCI R27,HIGH(-72)
001273 940e 1c95 	CALL SUBOPT_0x37
001275 940e 1e6c 	CALL SUBOPT_0x7A
001277 940e 1e71 	CALL SUBOPT_0x7B
001279 940e 20f5 	CALL __CPD10
00127b f441      	BRNE _0x2020117
00127c 81ad      	LDD  R26,Y+5
00127d 81be      	LDD  R27,Y+5+1
00127e 5aaa      	SUBI R26,LOW(-86)
00127f 4fbf      	SBCI R27,HIGH(-86)
001280 940e 20b0 	CALL __GETD1P
001282 940e 1e6c 	CALL SUBOPT_0x7A
                 _0x2020117:
001284 940e 1e71 	CALL SUBOPT_0x7B
                +
001286 81ad     +LDD R26 , Y + 5
001287 81be     +LDD R27 , Y + 5 + 1
001288 965a     +ADIW R26 , 26
001289 940e 20bb+CALL __PUTDP1
                 	__PUTD1SNS 5,26
00128b 81ed      	LDD  R30,Y+5
00128c 81fe      	LDD  R31,Y+5+1
00128d 5bee      	SUBI R30,LOW(-66)
00128e 4fff      	SBCI R31,HIGH(-66)
00128f 81e0      	LD   R30,Z
                +
001290 81ad     +LDD R26 , Y + 5
001291 81be     +LDD R27 , Y + 5 + 1
001292 9613     +ADIW R26 , 3
001293 93ec     +ST X , R30
                 	__PUTB1SNS 5,3
001294 81ed      	LDD  R30,Y+5
001295 81fe      	LDD  R31,Y+5+1
001296 81e3      	LDD  R30,Z+3
001297 e0f0      	LDI  R31,0
                +
001298 89a9     +LDD R26 , Y + 17
001299 89ba     +LDD R27 , Y + 17 + 1
00129a 898b     +LDD R24 , Y + 17 + 2
00129b 899c     +LDD R25 , Y + 17 + 3
                 	__GETD2S 17
00129c 940e 200f 	CALL __CWD1
00129e 940e 2028 	CALL __MULD12U
0012a0 940e 1e6c 	CALL SUBOPT_0x7A
0012a2 940e 1e76 	CALL SUBOPT_0x7C
0012a4 940e 1e7d 	CALL SUBOPT_0x7D
                +
0012a6 81ad     +LDD R26 , Y + 5
0012a7 81be     +LDD R27 , Y + 5 + 1
0012a8 9692     +ADIW R26 , 34
0012a9 940e 20bb+CALL __PUTDP1
                 	__PUTD1SNS 5,34
0012ab 81ed      	LDD  R30,Y+5
0012ac 81fe      	LDD  R31,Y+5+1
0012ad ade7      	LDD  R30,Z+63
                +
0012ae 81ad     +LDD R26 , Y + 5
0012af 81be     +LDD R27 , Y + 5 + 1
0012b0 9612     +ADIW R26 , 2
0012b1 93ec     +ST X , R30
                 	__PUTB1SNS 5,2
0012b2 81ad      	LDD  R26,Y+5
0012b3 81be      	LDD  R27,Y+5+1
0012b4 5bad      	SUBI R26,LOW(-67)
0012b5 4fbf      	SBCI R27,HIGH(-67)
0012b6 940e 20ac 	CALL __GETW1P
                +
0012b8 81ad     +LDD R26 , Y + 5
0012b9 81be     +LDD R27 , Y + 5 + 1
0012ba 9618     +ADIW R26 , 8
0012bb 93ed     +ST X + , R30
0012bc 93fc     +ST X , R31
                 	__PUTW1SNS 5,8
0012bd 81ad      	LDD  R26,Y+5
0012be 81be      	LDD  R27,Y+5+1
0012bf 5bab      	SUBI R26,LOW(-69)
0012c0 4fbf      	SBCI R27,HIGH(-69)
0012c1 940e 1c95 	CALL SUBOPT_0x37
                +
0012c3 87ed     +STD Y + 13 , R30
0012c4 87fe     +STD Y + 13 + 1 , R31
0012c5 876f     +STD Y + 13 + 2 , R22
0012c6 8b78     +STD Y + 13 + 3 , R23
                 	__PUTD1S 13
0012c7 940e 20f5 	CALL __CPD10
0012c9 f451      	BRNE _0x2020118
0012ca 81ad      	LDD  R26,Y+5
0012cb 81be      	LDD  R27,Y+5+1
0012cc 5aae      	SUBI R26,LOW(-82)
0012cd 4fbf      	SBCI R27,HIGH(-82)
0012ce 940e 20b0 	CALL __GETD1P
                +
0012d0 87ed     +STD Y + 13 , R30
0012d1 87fe     +STD Y + 13 + 1 , R31
0012d2 876f     +STD Y + 13 + 2 , R22
0012d3 8b78     +STD Y + 13 + 3 , R23
                 	__PUTD1S 13
                 _0x2020118:
0012d4 940e 1e76 	CALL SUBOPT_0x7C
0012d6 940e 1ca6 	CALL SUBOPT_0x3A
0012d8 2766      	CLR  R22
0012d9 2777      	CLR  R23
0012da 940e 1d6b 	CALL SUBOPT_0x57
                +
0012dc 89a9     +LDD R26 , Y + 17
0012dd 89ba     +LDD R27 , Y + 17 + 1
0012de 898b     +LDD R24 , Y + 17 + 2
0012df 899c     +LDD R25 , Y + 17 + 3
                 	__GETD2S 17
0012e0 940e 1fc3 	CALL __SUBD12
0012e2 937f      	PUSH R23
0012e3 936f      	PUSH R22
0012e4 93ff      	PUSH R31
0012e5 93ef      	PUSH R30
0012e6 940e 1e82 	CALL SUBOPT_0x7E
0012e8 91af      	POP  R26
0012e9 91bf      	POP  R27
0012ea 918f      	POP  R24
0012eb 919f      	POP  R25
0012ec 2766      	CLR  R22
0012ed 2777      	CLR  R23
0012ee 940e 1fc8 	CALL __SUBD21
0012f0 81ed      	LDD  R30,Y+5
0012f1 81fe      	LDD  R31,Y+5+1
0012f2 81e2      	LDD  R30,Z+2
0012f3 e0f0      	LDI  R31,0
0012f4 940e 200f 	CALL __CWD1
0012f6 940e 206b 	CALL __DIVD21U
                +
0012f8 5fee     +SUBI R30 , LOW ( - 2 )
0012f9 4fff     +SBCI R31 , HIGH ( - 2 )
0012fa 4f6f     +SBCI R22 , BYTE3 ( - 2 )
0012fb 4f7f     +SBCI R23 , BYTE4 ( - 2 )
                 	__ADDD1N 2
                +
0012fc 87e9     +STD Y + 9 , R30
0012fd 87fa     +STD Y + 9 + 1 , R31
0012fe 876b     +STD Y + 9 + 2 , R22
0012ff 877c     +STD Y + 9 + 3 , R23
                 	__PUTD1S 9
                +
001300 81ad     +LDD R26 , Y + 5
001301 81be     +LDD R27 , Y + 5 + 1
001302 965e     +ADIW R26 , 30
001303 940e 20bb+CALL __PUTDP1
                 	__PUTD1SNS 5,30
001305 e001      	LDI  R16,LOW(1)
001306 940e 1ccc 	CALL SUBOPT_0x3D
                +
001308 3fa7     +CPI R26 , LOW ( 0xFF7 )
001309 e0ef     +LDI R30 , HIGH ( 0xFF7 )
00130a 07be     +CPC R27 , R30
00130b e0e0     +LDI R30 , BYTE3 ( 0xFF7 )
00130c 078e     +CPC R24 , R30
00130d e0e0     +LDI R30 , BYTE4 ( 0xFF7 )
00130e 079e     +CPC R25 , R30
                 	__CPD2N 0xFF7
00130f f008      	BRLO _0x2020119
001310 e002      	LDI  R16,LOW(2)
                 _0x2020119:
001311 940e 1ccc 	CALL SUBOPT_0x3D
                +
001313 3fa7     +CPI R26 , LOW ( 0xFFF7 )
001314 efef     +LDI R30 , HIGH ( 0xFFF7 )
001315 07be     +CPC R27 , R30
001316 e0e0     +LDI R30 , BYTE3 ( 0xFFF7 )
001317 078e     +CPC R24 , R30
001318 e0e0     +LDI R30 , BYTE4 ( 0xFFF7 )
001319 079e     +CPC R25 , R30
                 	__CPD2N 0xFFF7
00131a f008      	BRLO _0x202011A
00131b e003      	LDI  R16,LOW(3)
                 _0x202011A:
00131c 3003      	CPI  R16,3
00131d f439      	BRNE _0x202011B
00131e 81ad      	LDD  R26,Y+5
00131f 81be      	LDD  R27,Y+5+1
001320 5aa2      	SUBI R26,LOW(-94)
001321 4fbf      	SBCI R27,HIGH(-94)
001322 940e 20b0 	CALL __GETD1P
001324 c002      	RJMP _0x202027C
                 _0x202011B:
001325 940e 1e8a 	CALL SUBOPT_0x7F
                 _0x202027C:
                +
001327 81ad     +LDD R26 , Y + 5
001328 81be     +LDD R27 , Y + 5 + 1
001329 9696     +ADIW R26 , 38
00132a 940e 20bb+CALL __PUTDP1
                 	__PUTD1SNS 5,38
00132c 940e 1e8a 	CALL SUBOPT_0x7F
00132e 937f      	PUSH R23
00132f 936f      	PUSH R22
001330 93ff      	PUSH R31
001331 93ef      	PUSH R30
001332 940e 1e82 	CALL SUBOPT_0x7E
001334 91af      	POP  R26
001335 91bf      	POP  R27
001336 918f      	POP  R24
001337 919f      	POP  R25
001338 940e 1d98 	CALL SUBOPT_0x5E
                +
00133a 81ad     +LDD R26 , Y + 5
00133b 81be     +LDD R27 , Y + 5 + 1
00133c 969a     +ADIW R26 , 42
00133d 940e 20bb+CALL __PUTDP1
                 	__PUTD1SNS 5,42
00133f 81ad      	LDD  R26,Y+5
001340 81be      	LDD  R27,Y+5+1
001341 961e      	ADIW R26,14
001342 940e 1ca1 	CALL SUBOPT_0x39
001344 940e 20bb 	CALL __PUTDP1
001346 81ad      	LDD  R26,Y+5
001347 81be      	LDD  R27,Y+5+1
001348 9614      	ADIW R26,4
001349 e0e0      	LDI  R30,LOW(0)
00134a 93ec      	ST   X,R30
00134b 3003      	CPI  R16,3
00134c f009      	BREQ PC+2
00134d c05f      	RJMP _0x202011D
00134e 81ad      	LDD  R26,Y+5
00134f 81be      	LDD  R27,Y+5+1
001350 9615      	ADIW R26,5
001351 93ec      	ST   X,R30
001352 81ad      	LDD  R26,Y+5
001353 81be      	LDD  R27,Y+5+1
001354 59ae      	SUBI R26,LOW(-98)
001355 4fbf      	SBCI R27,HIGH(-98)
001356 940e 20ac 	CALL __GETW1P
001358 940e 1e7d 	CALL SUBOPT_0x7D
                +
00135a 81ad     +LDD R26 , Y + 5
00135b 81be     +LDD R27 , Y + 5 + 1
00135c 9652     +ADIW R26 , 18
00135d 940e 20bb+CALL __PUTDP1
                 	__PUTD1SNS 5,18
00135f 81ed      	LDD  R30,Y+5
001360 81fe      	LDD  R31,Y+5+1
001361 81a1      	LDD  R26,Z+1
001362 93aa      	ST   -Y,R26
001363 81ee      	LDD  R30,Y+6
001364 81ff      	LDD  R31,Y+6+1
001365 96f2      	ADIW R30,50
001366 93fa      	ST   -Y,R31
001367 93ea      	ST   -Y,R30
001368 85e8      	LDD  R30,Y+8
001369 85f9      	LDD  R31,Y+8+1
00136a 940e 1c34 	CALL SUBOPT_0x2C
00136c 940e 07f0 	CALL _disk_read
00136e 30e0      	CPI  R30,0
00136f f511      	BRNE _0x202011F
001370 81ed      	LDD  R30,Y+5
001371 81fe      	LDD  R31,Y+5+1
001372 940e 1e47 	CALL SUBOPT_0x76
001374 f4e9      	BRNE _0x202011F
001375 81ad      	LDD  R26,Y+5
001376 81be      	LDD  R27,Y+5+1
001377 96d2      	ADIW R26,50
001378 940e 20b0 	CALL __GETD1P
                +
00137a 35e2     +CPI R30 , LOW ( 0x41615252 )
00137b e5a2     +LDI R26 , HIGH ( 0x41615252 )
00137c 07fa     +CPC R31 , R26
00137d e6a1     +LDI R26 , BYTE3 ( 0x41615252 )
00137e 076a     +CPC R22 , R26
00137f e4a1     +LDI R26 , BYTE4 ( 0x41615252 )
001380 077a     +CPC R23 , R26
                 	__CPD1N 0x41615252
001381 f481      	BRNE _0x202011F
001382 81ed      	LDD  R30,Y+5
001383 81fe      	LDD  R31,Y+5+1
001384 96f2      	ADIW R30,50
001385 51ec      	SUBI R30,LOW(-484)
001386 4ffe      	SBCI R31,HIGH(-484)
001387 01df      	MOVW R26,R30
001388 940e 20b0 	CALL __GETD1P
                +
00138a 37e2     +CPI R30 , LOW ( 0x61417272 )
00138b e7a2     +LDI R26 , HIGH ( 0x61417272 )
00138c 07fa     +CPC R31 , R26
00138d e4a1     +LDI R26 , BYTE3 ( 0x61417272 )
00138e 076a     +CPC R22 , R26
00138f e6a1     +LDI R26 , BYTE4 ( 0x61417272 )
001390 077a     +CPC R23 , R26
                 	__CPD1N 0x61417272
001391 f009      	BREQ _0x2020120
                 _0x202011F:
001392 c01a      	RJMP _0x202011E
                 _0x2020120:
001393 81ed      	LDD  R30,Y+5
001394 81fe      	LDD  R31,Y+5+1
001395 96f2      	ADIW R30,50
001396 51e4      	SUBI R30,LOW(-492)
001397 4ffe      	SBCI R31,HIGH(-492)
001398 01df      	MOVW R26,R30
001399 940e 20b0 	CALL __GETD1P
                +
00139b 81ad     +LDD R26 , Y + 5
00139c 81be     +LDD R27 , Y + 5 + 1
00139d 961a     +ADIW R26 , 10
00139e 940e 20bb+CALL __PUTDP1
                 	__PUTD1SNS 5,10
0013a0 81ed      	LDD  R30,Y+5
0013a1 81fe      	LDD  R31,Y+5+1
0013a2 96f2      	ADIW R30,50
0013a3 51e8      	SUBI R30,LOW(-488)
0013a4 4ffe      	SBCI R31,HIGH(-488)
0013a5 01df      	MOVW R26,R30
0013a6 940e 20b0 	CALL __GETD1P
                +
0013a8 81ad     +LDD R26 , Y + 5
0013a9 81be     +LDD R27 , Y + 5 + 1
0013aa 961e     +ADIW R26 , 14
0013ab 940e 20bb+CALL __PUTDP1
                 	__PUTD1SNS 5,14
                 _0x202011E:
                 _0x202011D:
0013ad 81ad      	LDD  R26,Y+5
0013ae 81be      	LDD  R27,Y+5+1
0013af 930c      	ST   X,R16
0013b0 940e 1c15 	CALL SUBOPT_0x28
0013b2 81ad      	LDD  R26,Y+5
0013b3 81be      	LDD  R27,Y+5+1
0013b4 9656      	ADIW R26,22
0013b5 940e 1e24 	CALL SUBOPT_0x6F
0013b7 e0ad      	LDI  R26,LOW(_Fsid_G101)
0013b8 e0bf      	LDI  R27,HIGH(_Fsid_G101)
0013b9 940e 1e91 	CALL SUBOPT_0x80
                +
0013bb 81ad     +LDD R26 , Y + 5
0013bc 81be     +LDD R27 , Y + 5 + 1
0013bd 9616     +ADIW R26 , 6
0013be 93ed     +ST X + , R30
0013bf 93fc     +ST X , R31
                 	__PUTW1SNS 5,6
                 _0x20A000A:
0013c0 e0e0      	LDI  R30,LOW(0)
                 _0x20A0009:
0013c1 940e 2111 	CALL __LOADLOCR5
0013c3 966e      	ADIW R28,30
0013c4 9508      	RET
                 ; .FEND
                 _validate_G101:
                 ; .FSTART _validate_G101
0013c5 93ba      	ST   -Y,R27
0013c6 93aa      	ST   -Y,R26
0013c7 81ea      	LDD  R30,Y+2
0013c8 81fb      	LDD  R31,Y+2+1
0013c9 9730      	SBIW R30,0
0013ca f071      	BREQ _0x2020122
0013cb 81aa      	LDD  R26,Y+2
0013cc 81bb      	LDD  R27,Y+2+1
0013cd 91ec      	LD   R30,X
0013ce 30e0      	CPI  R30,0
0013cf f049      	BREQ _0x2020122
0013d0 81ea      	LDD  R30,Y+2
0013d1 81fb      	LDD  R31,Y+2+1
0013d2 81a6      	LDD  R26,Z+6
0013d3 81b7      	LDD  R27,Z+7
0013d4 81e8      	LD   R30,Y
0013d5 81f9      	LDD  R31,Y+1
0013d6 17ea      	CP   R30,R26
0013d7 07fb      	CPC  R31,R27
0013d8 f011      	BREQ _0x2020121
                 _0x2020122:
0013d9 e0e9      	LDI  R30,LOW(9)
0013da c00a      	RJMP _0x20A0008
                 _0x2020121:
0013db 81ea      	LDD  R30,Y+2
0013dc 81fb      	LDD  R31,Y+2+1
0013dd 81a1      	LDD  R26,Z+1
0013de 940e 07e6 	CALL _disk_status
0013e0 70e1      	ANDI R30,LOW(0x1)
0013e1 f011      	BREQ _0x2020124
0013e2 e0e3      	LDI  R30,LOW(3)
0013e3 c001      	RJMP _0x20A0008
                 _0x2020124:
0013e4 e0e0      	LDI  R30,LOW(0)
                 _0x20A0008:
0013e5 9624      	ADIW R28,4
0013e6 9508      	RET
                 ; .FEND
                 _f_mount:
                 ; .FSTART _f_mount
0013e7 940e 1b67 	CALL SUBOPT_0xD
0013e9 81ac      	LDD  R26,Y+4
0013ea 30a1      	CPI  R26,LOW(0x1)
0013eb f010      	BRLO _0x2020125
0013ec e0eb      	LDI  R30,LOW(11)
0013ed c020      	RJMP _0x20A0007
                 _0x2020125:
0013ee 81ec      	LDD  R30,Y+4
0013ef 940e 1e5f 	CALL SUBOPT_0x78
0013f1 910d      	LD   R16,X+
0013f2 911c      	LD   R17,X
0013f3 2e00      	MOV  R0,R16
0013f4 2a01      	OR   R0,R17
0013f5 f019      	BREQ _0x2020126
0013f6 01d8      	MOVW R26,R16
0013f7 e0e0      	LDI  R30,LOW(0)
0013f8 93ec      	ST   X,R30
                 _0x2020126:
0013f9 81ea      	LDD  R30,Y+2
0013fa 81fb      	LDD  R31,Y+2+1
0013fb 9730      	SBIW R30,0
0013fc f021      	BREQ _0x2020127
0013fd 81aa      	LDD  R26,Y+2
0013fe 81bb      	LDD  R27,Y+2+1
0013ff e0e0      	LDI  R30,LOW(0)
001400 93ec      	ST   X,R30
                 _0x2020127:
001401 81ec      	LDD  R30,Y+4
001402 e0ab      	LDI  R26,LOW(_FatFs_G101)
001403 e0bf      	LDI  R27,HIGH(_FatFs_G101)
001404 e0f0      	LDI  R31,0
001405 0fee      	LSL  R30
001406 1fff      	ROL  R31
001407 0fea      	ADD  R30,R26
001408 1ffb      	ADC  R31,R27
001409 81aa      	LDD  R26,Y+2
00140a 81bb      	LDD  R27,Y+2+1
00140b 83a0      	STD  Z+0,R26
00140c 83b1      	STD  Z+1,R27
00140d e0e0      	LDI  R30,LOW(0)
                 _0x20A0007:
00140e 8119      	LDD  R17,Y+1
00140f 8108      	LDD  R16,Y+0
001410 9625      	ADIW R28,5
001411 9508      	RET
                 ; .FEND
                 _f_open:
                 ; .FSTART _f_open
001412 93aa      	ST   -Y,R26
001413 97a2      	SBIW R28,34
001414 940e 210c 	CALL __SAVELOCR3
001416 a5a8      	LDD  R26,Y+40
001417 a5b9      	LDD  R27,Y+40+1
001418 940e 1e33 	CALL SUBOPT_0x72
00141a a1ed      	LDD  R30,Y+37
00141b 71ef      	ANDI R30,LOW(0x1F)
00141c a3ed      	STD  Y+37,R30
00141d 01fe      	MOVW R30,R28
00141e 96b6      	ADIW R30,38
00141f 93fa      	ST   -Y,R31
001420 93ea      	ST   -Y,R30
001421 01fe      	MOVW R30,R28
001422 9671      	ADIW R30,17
001423 93fa      	ST   -Y,R31
001424 93ea      	ST   -Y,R30
001425 a5e9      	LDD  R30,Y+41
001426 71ee      	ANDI R30,LOW(0x1E)
001427 2fae      	MOV  R26,R30
001428 dda6      	RCALL _chk_mounted
001429 2f0e      	MOV  R16,R30
00142a 3000      	CPI  R16,0
00142b f009      	BREQ _0x2020128
00142c c11c      	RJMP _0x20A0006
                 _0x2020128:
00142d 01fe      	MOVW R30,R28
00142e 9633      	ADIW R30,3
00142f a3eb      	STD  Y+35,R30
001430 a3fc      	STD  Y+35+1,R31
001431 01fe      	MOVW R30,R28
001432 963f      	ADIW R30,15
001433 93fa      	ST   -Y,R31
001434 93ea      	ST   -Y,R30
001435 a5a8      	LDD  R26,Y+40
001436 a5b9      	LDD  R27,Y+40+1
001437 dcde      	RCALL _follow_path_G101
001438 2f0e      	MOV  R16,R30
001439 a1ed      	LDD  R30,Y+37
00143a 71ec      	ANDI R30,LOW(0x1C)
00143b f409      	BRNE PC+2
00143c c09c      	RJMP _0x2020129
00143d 9728      	SBIW R28,8
00143e 3000      	CPI  R16,0
00143f f089      	BREQ _0x202012A
001440 3004      	CPI  R16,4
001441 f421      	BRNE _0x202012B
001442 01de      	MOVW R26,R28
001443 9657      	ADIW R26,23
001444 dbdd      	RCALL _dir_register_G101
001445 2f0e      	MOV  R16,R30
                 _0x202012B:
001446 3000      	CPI  R16,0
001447 f019      	BREQ _0x202012C
001448 2fe0      	MOV  R30,R16
001449 9628      	ADIW R28,8
00144a c0fe      	RJMP _0x20A0006
                 _0x202012C:
00144b a5ed      	LDD  R30,Y+45
00144c 60e8      	ORI  R30,8
00144d a7ed      	STD  Y+45,R30
                +
00144e a519     +LDD R17 , Y + 41
00144f a52a     +LDD R18 , Y + 41 + 1
                 	__GETWRS 17,18,41
001450 c06b      	RJMP _0x202012D
                 _0x202012A:
001451 a5ed      	LDD  R30,Y+45
001452 70e4      	ANDI R30,LOW(0x4)
001453 f019      	BREQ _0x202012E
001454 e0e8      	LDI  R30,LOW(8)
001455 9628      	ADIW R28,8
001456 c0f2      	RJMP _0x20A0006
                 _0x202012E:
                +
001457 a519     +LDD R17 , Y + 41
001458 a52a     +LDD R18 , Y + 41 + 1
                 	__GETWRS 17,18,41
001459 2e01      	MOV  R0,R17
00145a 2a02      	OR   R0,R18
00145b f029      	BREQ _0x2020130
                +
00145c 2fe1     +MOV R30 , R17
00145d 2ff2     +MOV R31 , R18
                 	__GETW1R 17,18
00145e 85e3      	LDD  R30,Z+11
00145f 71e1      	ANDI R30,LOW(0x11)
001460 f019      	BREQ _0x202012F
                 _0x2020130:
001461 e0e7      	LDI  R30,LOW(7)
001462 9628      	ADIW R28,8
001463 c0e5      	RJMP _0x20A0006
                 _0x202012F:
001464 a5ed      	LDD  R30,Y+45
001465 70e8      	ANDI R30,LOW(0x8)
001466 f409      	BRNE PC+2
001467 c054      	RJMP _0x2020132
001468 940e 1e38 	CALL SUBOPT_0x73
00146a 940e 200a 	CALL __LSLD16
00146c 937f      	PUSH R23
00146d 936f      	PUSH R22
00146e 93ff      	PUSH R31
00146f 93ef      	PUSH R30
001470 940e 1e3c 	CALL SUBOPT_0x74
001472 91af      	POP  R26
001473 91bf      	POP  R27
001474 918f      	POP  R24
001475 919f      	POP  R25
001476 940e 1e42 	CALL SUBOPT_0x75
001478 940e 1d25 	CALL SUBOPT_0x49
                +
00147a 2fe1     +MOV R30 , R17
00147b 2ff2     +MOV R31 , R18
                 	__GETW1R 17,18
00147c 9674      	ADIW R30,20
00147d 940e 1e97 	CALL SUBOPT_0x81
00147f 967a      	ADIW R30,26
001480 940e 1e97 	CALL SUBOPT_0x81
001482 967c      	ADIW R30,28
001483 940e 1d11 	CALL SUBOPT_0x46
001485 940e 20d9 	CALL __PUTDZ20
001487 89af      	LDD  R26,Y+23
001488 8db8      	LDD  R27,Y+23+1
001489 9614      	ADIW R26,4
00148a e0e1      	LDI  R30,LOW(1)
00148b 93ec      	ST   X,R30
00148c 89af      	LDD  R26,Y+23
00148d 8db8      	LDD  R27,Y+23+1
00148e 969e      	ADIW R26,46
00148f 940e 1c4e 	CALL SUBOPT_0x30
001491 940e 1d32 	CALL SUBOPT_0x4C
001493 940e 20f5 	CALL __CPD10
001495 f0b9      	BREQ _0x2020133
001496 89ef      	LDD  R30,Y+23
001497 8df8      	LDD  R31,Y+23+1
001498 93fa      	ST   -Y,R31
001499 93ea      	ST   -Y,R30
00149a 940e 1d7f 	CALL SUBOPT_0x5A
00149c d87d      	RCALL _remove_chain_G101
00149d 2f0e      	MOV  R16,R30
00149e 3000      	CPI  R16,0
00149f f011      	BREQ _0x2020134
0014a0 9628      	ADIW R28,8
0014a1 c0a7      	RJMP _0x20A0006
                 _0x2020134:
0014a2 940e 1d32 	CALL SUBOPT_0x4C
                +
0014a4 50e1     +SUBI R30 , LOW ( 1 )
0014a5 40f0     +SBCI R31 , HIGH ( 1 )
0014a6 4060     +SBCI R22 , BYTE3 ( 1 )
0014a7 4070     +SBCI R23 , BYTE4 ( 1 )
                 	__SUBD1N 1
                +
0014a8 89af     +LDD R26 , Y + 23
0014a9 8db8     +LDD R27 , Y + 23 + 1
0014aa 961a     +ADIW R26 , 10
0014ab 940e 20bb+CALL __PUTDP1
                 	__PUTD1SNS 23,10
                 _0x2020133:
0014ad 89ef      	LDD  R30,Y+23
0014ae 8df8      	LDD  R31,Y+23+1
0014af 93fa      	ST   -Y,R31
0014b0 93ea      	ST   -Y,R30
                +
0014b1 81ae     +LDD R26 , Y + 6
0014b2 81bf     +LDD R27 , Y + 6 + 1
0014b3 8588     +LDD R24 , Y + 6 + 2
0014b4 8599     +LDD R25 , Y + 6 + 3
                 	__GETD2S 6
0014b5 940e 0b2e 	CALL _move_window_G101
0014b7 2f0e      	MOV  R16,R30
0014b8 3000      	CPI  R16,0
0014b9 f011      	BREQ _0x2020135
0014ba 9628      	ADIW R28,8
0014bb c08d      	RJMP _0x20A0006
                 _0x2020135:
                 _0x2020132:
                 _0x202012D:
0014bc a5ed      	LDD  R30,Y+45
0014bd 70e8      	ANDI R30,LOW(0x8)
0014be f0c1      	BREQ _0x2020136
                +
0014bf 2fe1     +MOV R30 , R17
0014c0 2ff2     +MOV R31 , R18
                 	__GETW1R 17,18
0014c1 963b      	ADIW R30,11
0014c2 e0a0      	LDI  R26,LOW(0)
0014c3 83a0      	STD  Z+0,R26
0014c4 940e 0a96 	CALL _get_fattime
0014c6 940e 1d35 	CALL SUBOPT_0x4D
0014c8 940e 1d50 	CALL SUBOPT_0x52
                +
0014ca 2fa1     +MOV R26 , R17
0014cb 2fb2     +MOV R27 , R18
0014cc 961e     +ADIW R26 , 14
0014cd 940e 20bb+CALL __PUTDP1
                 	__PUTD1RONS 17,18,14
0014cf 89af      	LDD  R26,Y+23
0014d0 8db8      	LDD  R27,Y+23+1
0014d1 9614      	ADIW R26,4
0014d2 e0e1      	LDI  R30,LOW(1)
0014d3 93ec      	ST   X,R30
0014d4 a5ed      	LDD  R30,Y+45
0014d5 62e0      	ORI  R30,0x20
0014d6 a7ed      	STD  Y+45,R30
                 _0x2020136:
0014d7 9628      	ADIW R28,8
0014d8 c01b      	RJMP _0x2020137
                 _0x2020129:
0014d9 3000      	CPI  R16,0
0014da f011      	BREQ _0x2020138
0014db 2fe0      	MOV  R30,R16
0014dc c06c      	RJMP _0x20A0006
                 _0x2020138:
                +
0014dd a119     +LDD R17 , Y + 33
0014de a12a     +LDD R18 , Y + 33 + 1
                 	__GETWRS 17,18,33
0014df 2e01      	MOV  R0,R17
0014e0 2a02      	OR   R0,R18
0014e1 f029      	BREQ _0x202013A
                +
0014e2 2fe1     +MOV R30 , R17
0014e3 2ff2     +MOV R31 , R18
                 	__GETW1R 17,18
0014e4 85e3      	LDD  R30,Z+11
0014e5 71e0      	ANDI R30,LOW(0x10)
0014e6 f011      	BREQ _0x2020139
                 _0x202013A:
0014e7 e0e4      	LDI  R30,LOW(4)
0014e8 c060      	RJMP _0x20A0006
                 _0x2020139:
0014e9 a1ed      	LDD  R30,Y+37
0014ea 70e2      	ANDI R30,LOW(0x2)
0014eb f029      	BREQ _0x202013D
                +
0014ec 2fe1     +MOV R30 , R17
0014ed 2ff2     +MOV R31 , R18
                 	__GETW1R 17,18
0014ee 85e3      	LDD  R30,Z+11
0014ef 70e1      	ANDI R30,LOW(0x1)
0014f0 f409      	BRNE _0x202013E
                 _0x202013D:
0014f1 c002      	RJMP _0x202013C
                 _0x202013E:
0014f2 e0e7      	LDI  R30,LOW(7)
0014f3 c055      	RJMP _0x20A0006
                 _0x202013C:
                 _0x2020137:
0014f4 85af      	LDD  R26,Y+15
0014f5 89b8      	LDD  R27,Y+15+1
0014f6 969e      	ADIW R26,46
0014f7 940e 20b0 	CALL __GETD1P
                +
0014f9 a5a8     +LDD R26 , Y + 40
0014fa a5b9     +LDD R27 , Y + 40 + 1
0014fb 965a     +ADIW R26 , 26
0014fc 940e 20bb+CALL __PUTDP1
                 	__PUTD1SNS 40,26
0014fe a1e9      	LDD  R30,Y+33
0014ff a1fa      	LDD  R31,Y+33+1
                +
001500 a5a8     +LDD R26 , Y + 40
001501 a5b9     +LDD R27 , Y + 40 + 1
001502 965e     +ADIW R26 , 30
001503 93ed     +ST X + , R30
001504 93fc     +ST X , R31
                 	__PUTW1SNS 40,30
001505 a1ed      	LDD  R30,Y+37
                +
001506 a5a8     +LDD R26 , Y + 40
001507 a5b9     +LDD R27 , Y + 40 + 1
001508 9614     +ADIW R26 , 4
001509 93ec     +ST X , R30
                 	__PUTB1SNS 40,4
00150a 940e 1e38 	CALL SUBOPT_0x73
00150c 940e 200a 	CALL __LSLD16
00150e 937f      	PUSH R23
00150f 936f      	PUSH R22
001510 93ff      	PUSH R31
001511 93ef      	PUSH R30
001512 940e 1e3c 	CALL SUBOPT_0x74
001514 91af      	POP  R26
001515 91bf      	POP  R27
001516 918f      	POP  R24
001517 919f      	POP  R25
001518 940e 1e42 	CALL SUBOPT_0x75
                +
00151a a5a8     +LDD R26 , Y + 40
00151b a5b9     +LDD R27 , Y + 40 + 1
00151c 961e     +ADIW R26 , 14
00151d 940e 20bb+CALL __PUTDP1
                 	__PUTD1SNS 40,14
                +
00151f 2fa1     +MOV R26 , R17
001520 2fb2     +MOV R27 , R18
                 	__GETW2R 17,18
001521 965c      	ADIW R26,28
001522 940e 20b0 	CALL __GETD1P
                +
001524 a5a8     +LDD R26 , Y + 40
001525 a5b9     +LDD R27 , Y + 40 + 1
001526 961a     +ADIW R26 , 10
001527 940e 20bb+CALL __PUTDP1
                 	__PUTD1SNS 40,10
001529 a5a8      	LDD  R26,Y+40
00152a a5b9      	LDD  R27,Y+40+1
00152b 9616      	ADIW R26,6
00152c 940e 1e24 	CALL SUBOPT_0x6F
00152e a5a8      	LDD  R26,Y+40
00152f a5b9      	LDD  R27,Y+40+1
001530 9615      	ADIW R26,5
001531 efef      	LDI  R30,LOW(255)
001532 93ec      	ST   X,R30
001533 a5a8      	LDD  R26,Y+40
001534 a5b9      	LDD  R27,Y+40+1
001535 9656      	ADIW R26,22
001536 940e 1e24 	CALL SUBOPT_0x6F
001538 85ef      	LDD  R30,Y+15
001539 89f8      	LDD  R31,Y+15+1
00153a a5a8      	LDD  R26,Y+40
00153b a5b9      	LDD  R27,Y+40+1
00153c 93ed      	ST   X+,R30
00153d 93fc      	ST   X,R31
00153e 85af      	LDD  R26,Y+15
00153f 89b8      	LDD  R27,Y+15+1
001540 9616      	ADIW R26,6
001541 940e 20ac 	CALL __GETW1P
                +
001543 a5a8     +LDD R26 , Y + 40
001544 a5b9     +LDD R27 , Y + 40 + 1
001545 9612     +ADIW R26 , 2
001546 93ed     +ST X + , R30
001547 93fc     +ST X , R31
                 	__PUTW1SNS 40,2
001548 e0e0      	LDI  R30,LOW(0)
                 _0x20A0006:
001549 940e 2113 	CALL __LOADLOCR3
00154b 96aa      	ADIW R28,42
00154c 9508      	RET
                 ; .FEND
                 _f_read:
                 ; .FSTART _f_read
00154d 93ba      	ST   -Y,R27
00154e 93aa      	ST   -Y,R26
00154f 972e      	SBIW R28,14
001550 940e 210a 	CALL __SAVELOCR5
001552 89ef      	LDD  R30,Y+23
001553 8df8      	LDD  R31,Y+23+1
001554 83ed      	STD  Y+5,R30
001555 83fe      	STD  Y+5+1,R31
001556 89ab      	LDD  R26,Y+19
001557 89bc      	LDD  R27,Y+19+1
001558 940e 1e33 	CALL SUBOPT_0x72
00155a 940e 1e9e 	CALL SUBOPT_0x82
00155c 940e 1ea3 	CALL SUBOPT_0x83
00155e 940e 1ea8 	CALL SUBOPT_0x84
001560 f011      	BREQ _0x202013F
001561 2fe0      	MOV  R30,R16
001562 c151      	RJMP _0x20A0005
                 _0x202013F:
001563 8de9      	LDD  R30,Y+25
001564 8dfa      	LDD  R31,Y+25+1
001565 81a4      	LDD  R26,Z+4
001566 78a0      	ANDI R26,LOW(0x80)
001567 f011      	BREQ _0x2020140
001568 e0e2      	LDI  R30,LOW(2)
001569 c14a      	RJMP _0x20A0005
                 _0x2020140:
00156a 8de9      	LDD  R30,Y+25
00156b 8dfa      	LDD  R31,Y+25+1
00156c 81a4      	LDD  R26,Z+4
00156d 70a1      	ANDI R26,LOW(0x1)
00156e f411      	BRNE _0x2020141
00156f e0e7      	LDI  R30,LOW(7)
001570 c143      	RJMP _0x20A0005
                 _0x2020141:
001571 8de9      	LDD  R30,Y+25
001572 8dfa      	LDD  R31,Y+25+1
                +
001573 85a2     +LDD R26 , Z + 10
001574 85b3     +LDD R27 , Z + 10 + 1
001575 8584     +LDD R24 , Z + 10 + 2
001576 8595     +LDD R25 , Z + 10 + 3
                 	__GETD2Z 10
001577 939f      	PUSH R25
001578 938f      	PUSH R24
001579 93bf      	PUSH R27
00157a 93af      	PUSH R26
00157b 940e 1eaf 	CALL SUBOPT_0x85
00157d 91ef      	POP  R30
00157e 91ff      	POP  R31
00157f 916f      	POP  R22
001580 917f      	POP  R23
001581 940e 1fc3 	CALL __SUBD12
001583 940e 1eb6 	CALL SUBOPT_0x86
001585 89ad      	LDD  R26,Y+21
001586 89be      	LDD  R27,Y+21+1
001587 2788      	CLR  R24
001588 2799      	CLR  R25
001589 940e 20ff 	CALL __CPD12
00158b f420      	BRSH _0x2020142
00158c 81ef      	LDD  R30,Y+7
00158d 85f8      	LDD  R31,Y+7+1
00158e 8bed      	STD  Y+21,R30
00158f 8bfe      	STD  Y+21+1,R31
                 _0x2020142:
                 _0x2020144:
001590 89ed      	LDD  R30,Y+21
001591 89fe      	LDD  R31,Y+21+1
001592 9730      	SBIW R30,0
001593 f409      	BRNE PC+2
001594 c11e      	RJMP _0x2020145
001595 940e 1eaf 	CALL SUBOPT_0x85
001597 01fd      	MOVW R30,R26
001598 01bc      	MOVW R22,R24
001599 70f1      	ANDI R31,HIGH(0x1FF)
00159a 9730      	SBIW R30,0
00159b f009      	BREQ PC+2
00159c c0e8      	RJMP _0x2020146
00159d 8de9      	LDD  R30,Y+25
00159e 8dfa      	LDD  R31,Y+25+1
00159f 8005      	LDD  R0,Z+5
0015a0 940e 1e9e 	CALL SUBOPT_0x82
0015a2 81e2      	LDD  R30,Z+2
0015a3 160e      	CP   R0,R30
0015a4 f1d8      	BRLO _0x2020147
0015a5 940e 1eaf 	CALL SUBOPT_0x85
0015a7 940e 20f9 	CALL __CPD02
0015a9 f431      	BRNE _0x2020148
0015aa 8da9      	LDD  R26,Y+25
0015ab 8dba      	LDD  R27,Y+25+1
0015ac 961e      	ADIW R26,14
0015ad 940e 20b0 	CALL __GETD1P
0015af c008      	RJMP _0x2020149
                 _0x2020148:
0015b0 940e 1e9e 	CALL SUBOPT_0x82
0015b2 940e 1ea3 	CALL SUBOPT_0x83
0015b4 940e 1ebb 	CALL SUBOPT_0x87
0015b6 940e 0bff 	CALL _get_fat
                 _0x2020149:
                +
0015b8 87ef     +STD Y + 15 , R30
0015b9 8bf8     +STD Y + 15 + 1 , R31
0015ba 8b69     +STD Y + 15 + 2 , R22
0015bb 8b7a     +STD Y + 15 + 3 , R23
                 	__PUTD1S 15
                +
0015bc 85af     +LDD R26 , Y + 15
0015bd 89b8     +LDD R27 , Y + 15 + 1
0015be 8989     +LDD R24 , Y + 15 + 2
0015bf 899a     +LDD R25 , Y + 15 + 3
                 	__GETD2S 15
0015c0 940e 1c41 	CALL SUBOPT_0x2E
0015c2 f420      	BRSH _0x202014B
0015c3 940e 1ec0 	CALL SUBOPT_0x88
0015c5 e0e2      	LDI  R30,LOW(2)
0015c6 c0ed      	RJMP _0x20A0005
                 _0x202014B:
                +
0015c7 85af     +LDD R26 , Y + 15
0015c8 89b8     +LDD R27 , Y + 15 + 1
0015c9 8989     +LDD R24 , Y + 15 + 2
0015ca 899a     +LDD R25 , Y + 15 + 3
                 	__GETD2S 15
0015cb 940e 1d04 	CALL SUBOPT_0x44
0015cd f421      	BRNE _0x202014C
0015ce 940e 1ec0 	CALL SUBOPT_0x88
0015d0 e0e1      	LDI  R30,LOW(1)
0015d1 c0e2      	RJMP _0x20A0005
                 _0x202014C:
                +
0015d2 85ef     +LDD R30 , Y + 15
0015d3 89f8     +LDD R31 , Y + 15 + 1
0015d4 8969     +LDD R22 , Y + 15 + 2
0015d5 897a     +LDD R23 , Y + 15 + 3
                 	__GETD1S 15
                +
0015d6 8da9     +LDD R26 , Y + 25
0015d7 8dba     +LDD R27 , Y + 25 + 1
0015d8 9652     +ADIW R26 , 18
0015d9 940e 20bb+CALL __PUTDP1
                 	__PUTD1SNS 25,18
0015db 8da9      	LDD  R26,Y+25
0015dc 8dba      	LDD  R27,Y+25+1
0015dd 9615      	ADIW R26,5
0015de e0e0      	LDI  R30,LOW(0)
0015df 93ec      	ST   X,R30
                 _0x2020147:
0015e0 940e 1e9e 	CALL SUBOPT_0x82
0015e2 940e 1ea3 	CALL SUBOPT_0x83
0015e4 940e 1ebb 	CALL SUBOPT_0x87
0015e6 d856      	RCALL _clust2sect
0015e7 940e 1ec7 	CALL SUBOPT_0x89
0015e9 940e 1ecc 	CALL SUBOPT_0x8A
0015eb 940e 20f5 	CALL __CPD10
0015ed f421      	BRNE _0x202014D
0015ee 940e 1ec0 	CALL SUBOPT_0x88
0015f0 e0e2      	LDI  R30,LOW(2)
0015f1 c0c2      	RJMP _0x20A0005
                 _0x202014D:
0015f2 940e 1ed1 	CALL SUBOPT_0x8B
0015f4 940e 1ed6 	CALL SUBOPT_0x8C
0015f6 940e 200f 	CALL __CWD1
0015f8 940e 1fb9 	CALL __ADDD12
0015fa 940e 1ec7 	CALL SUBOPT_0x89
0015fc 89ad      	LDD  R26,Y+21
0015fd 89be      	LDD  R27,Y+21+1
0015fe 940e 1edb 	CALL SUBOPT_0x8D
001600 f409      	BRNE PC+2
001601 c04c      	RJMP _0x202014E
001602 940e 1ed1 	CALL SUBOPT_0x8B
001604 0fe3      	ADD  R30,R19
001605 1ff4      	ADC  R31,R20
001606 010f      	MOVW R0,R30
001607 940e 1e9e 	CALL SUBOPT_0x82
001609 81e2      	LDD  R30,Z+2
00160a 01d0      	MOVW R26,R0
00160b e0f0      	LDI  R31,0
00160c 17ea      	CP   R30,R26
00160d 07fb      	CPC  R31,R27
00160e f458      	BRSH _0x202014F
00160f 940e 1e9e 	CALL SUBOPT_0x82
001611 81e2      	LDD  R30,Z+2
001612 e0f0      	LDI  R31,0
001613 01df      	MOVW R26,R30
001614 940e 1ed1 	CALL SUBOPT_0x8B
001616 1bae      	SUB  R26,R30
001617 0bbf      	SBC  R27,R31
                +
001618 2f3a     +MOV R19 , R26
001619 2f4b     +MOV R20 , R27
                 	__PUTW2R 19,20
                 _0x202014F:
00161a 940e 1e9e 	CALL SUBOPT_0x82
00161c 81e1      	LDD  R30,Z+1
00161d 93ea      	ST   -Y,R30
00161e 940e 1e2e 	CALL SUBOPT_0x71
                +
001620 85ee     +LDD R30 , Y + 14
001621 85ff     +LDD R31 , Y + 14 + 1
001622 8968     +LDD R22 , Y + 14 + 2
001623 8979     +LDD R23 , Y + 14 + 3
                 	__GETD1S 14
001624 940e 20de 	CALL __PUTPARD1
001626 2fa3      	MOV  R26,R19
001627 940e 07f0 	CALL _disk_read
001629 30e0      	CPI  R30,0
00162a f021      	BREQ _0x2020150
00162b 940e 1ec0 	CALL SUBOPT_0x88
00162d e0e1      	LDI  R30,LOW(1)
00162e c085      	RJMP _0x20A0005
                 _0x2020150:
00162f 8de9      	LDD  R30,Y+25
001630 8dfa      	LDD  R31,Y+25+1
001631 81a4      	LDD  R26,Z+4
001632 74a0      	ANDI R26,LOW(0x40)
001633 f029      	BREQ _0x2020152
001634 940e 1ee4 	CALL SUBOPT_0x8E
001636 940e 1eeb 	CALL SUBOPT_0x8F
001638 f008      	BRLO _0x2020153
                 _0x2020152:
001639 c00f      	RJMP _0x2020151
                 _0x2020153:
00163a 940e 1ee4 	CALL SUBOPT_0x8E
00163c 940e 1ef4 	CALL SUBOPT_0x90
00163e 81ad      	LDD  R26,Y+5
00163f 81be      	LDD  R27,Y+5+1
001640 2788      	CLR  R24
001641 2799      	CLR  R25
001642 0fea      	ADD  R30,R26
001643 1ffb      	ADC  R31,R27
001644 940e 1ea3 	CALL SUBOPT_0x83
001646 96b0      	ADIW R30,32
001647 940e 1efd 	CALL SUBOPT_0x91
                 _0x2020151:
001649 8da9      	LDD  R26,Y+25
00164a 8dba      	LDD  R27,Y+25+1
00164b 940e 1f03 	CALL SUBOPT_0x92
00164d c051      	RJMP _0x2020143
                 _0x202014E:
00164e 8de9      	LDD  R30,Y+25
00164f 8dfa      	LDD  R31,Y+25+1
001650 81a4      	LDD  R26,Z+4
001651 74a0      	ANDI R26,LOW(0x40)
001652 f089      	BREQ _0x2020154
001653 940e 1e9e 	CALL SUBOPT_0x82
001655 940e 1f10 	CALL SUBOPT_0x93
001657 8dec      	LDD  R30,Y+28
001658 8dfd      	LDD  R31,Y+28+1
001659 940e 1f18 	CALL SUBOPT_0x94
00165b f021      	BREQ _0x2020155
00165c 940e 1ec0 	CALL SUBOPT_0x88
00165e e0e1      	LDI  R30,LOW(1)
00165f c054      	RJMP _0x20A0005
                 _0x2020155:
001660 8da9      	LDD  R26,Y+25
001661 8dba      	LDD  R27,Y+25+1
001662 940e 1f23 	CALL SUBOPT_0x95
                 _0x2020154:
001664 940e 1ee4 	CALL SUBOPT_0x8E
001666 940e 20ff 	CALL __CPD12
001668 f079      	BREQ _0x2020156
001669 940e 1e9e 	CALL SUBOPT_0x82
00166b 940e 1f10 	CALL SUBOPT_0x93
                +
00166d 85ee     +LDD R30 , Y + 14
00166e 85ff     +LDD R31 , Y + 14 + 1
00166f 8968     +LDD R22 , Y + 14 + 2
001670 8979     +LDD R23 , Y + 14 + 3
                 	__GETD1S 14
001671 940e 1c06 	CALL SUBOPT_0x26
001673 f021      	BREQ _0x2020157
001674 940e 1ec0 	CALL SUBOPT_0x88
001676 e0e1      	LDI  R30,LOW(1)
001677 c03c      	RJMP _0x20A0005
                 _0x2020157:
                 _0x2020156:
001678 940e 1ecc 	CALL SUBOPT_0x8A
                +
00167a 8da9     +LDD R26 , Y + 25
00167b 8dba     +LDD R27 , Y + 25 + 1
00167c 9656     +ADIW R26 , 22
00167d 940e 20bb+CALL __PUTDP1
                 	__PUTD1SNS 25,22
00167f 8da9      	LDD  R26,Y+25
001680 8dba      	LDD  R27,Y+25+1
001681 9615      	ADIW R26,5
001682 91ec      	LD   R30,X
001683 5fef      	SUBI R30,-LOW(1)
001684 93ec      	ST   X,R30
                 _0x2020146:
001685 8da9      	LDD  R26,Y+25
001686 8dba      	LDD  R27,Y+25+1
001687 940e 1f28 	CALL SUBOPT_0x96
001689 940e 1f2d 	CALL SUBOPT_0x97
00168b 89ed      	LDD  R30,Y+21
00168c 89fe      	LDD  R31,Y+21+1
00168d 17e1      	CP   R30,R17
00168e 07f2      	CPC  R31,R18
00168f f410      	BRSH _0x2020158
                +
001690 891d     +LDD R17 , Y + 21
001691 892e     +LDD R18 , Y + 21 + 1
                 	__GETWRS 17,18,21
                 _0x2020158:
001692 940e 1e67 	CALL SUBOPT_0x79
001694 8dab      	LDD  R26,Y+27
001695 8dbc      	LDD  R27,Y+27+1
001696 940e 1f28 	CALL SUBOPT_0x96
001698 8dab      	LDD  R26,Y+27
001699 8dbc      	LDD  R27,Y+27+1
00169a 9690      	ADIW R26,32
00169b 0fea      	ADD  R30,R26
00169c 1ffb      	ADC  R31,R27
00169d 940e 1f34 	CALL SUBOPT_0x98
                 _0x2020143:
00169f 940e 1f3a 	CALL SUBOPT_0x99
0016a1 8de9      	LDD  R30,Y+25
0016a2 8dfa      	LDD  R31,Y+25+1
0016a3 940e 1f43 	CALL SUBOPT_0x9A
0016a5 01d0      	MOVW R26,R0
0016a6 940e 20bb 	CALL __PUTDP1
0016a8 89ab      	LDD  R26,Y+19
0016a9 89bc      	LDD  R27,Y+19+1
0016aa 940e 1f4d 	CALL SUBOPT_0x9B
0016ac 89ed      	LDD  R30,Y+21
0016ad 89fe      	LDD  R31,Y+21+1
0016ae 1be1      	SUB  R30,R17
0016af 0bf2      	SBC  R31,R18
0016b0 8bed      	STD  Y+21,R30
0016b1 8bfe      	STD  Y+21+1,R31
0016b2 cedd      	RJMP _0x2020144
                 _0x2020145:
0016b3 e0e0      	LDI  R30,LOW(0)
                 _0x20A0005:
0016b4 940e 2111 	CALL __LOADLOCR5
0016b6 966b      	ADIW R28,27
0016b7 9508      	RET
                 ; .FEND
                 _f_write:
                 ; .FSTART _f_write
0016b8 93ba      	ST   -Y,R27
0016b9 93aa      	ST   -Y,R26
0016ba 972a      	SBIW R28,10
0016bb 940e 210a 	CALL __SAVELOCR5
0016bd 89eb      	LDD  R30,Y+19
0016be 89fc      	LDD  R31,Y+19+1
0016bf 83ed      	STD  Y+5,R30
0016c0 83fe      	STD  Y+5+1,R31
0016c1 85af      	LDD  R26,Y+15
0016c2 89b8      	LDD  R27,Y+15+1
0016c3 940e 1e33 	CALL SUBOPT_0x72
0016c5 940e 1f54 	CALL SUBOPT_0x9C
0016c7 940e 1f59 	CALL SUBOPT_0x9D
0016c9 940e 1ea8 	CALL SUBOPT_0x84
0016cb f011      	BREQ _0x2020159
0016cc 2fe0      	MOV  R30,R16
0016cd c192      	RJMP _0x20A0004
                 _0x2020159:
0016ce 89ed      	LDD  R30,Y+21
0016cf 89fe      	LDD  R31,Y+21+1
0016d0 81a4      	LDD  R26,Z+4
0016d1 78a0      	ANDI R26,LOW(0x80)
0016d2 f011      	BREQ _0x202015A
0016d3 e0e2      	LDI  R30,LOW(2)
0016d4 c18b      	RJMP _0x20A0004
                 _0x202015A:
0016d5 89ed      	LDD  R30,Y+21
0016d6 89fe      	LDD  R31,Y+21+1
0016d7 81a4      	LDD  R26,Z+4
0016d8 70a2      	ANDI R26,LOW(0x2)
0016d9 f411      	BRNE _0x202015B
0016da e0e7      	LDI  R30,LOW(7)
0016db c184      	RJMP _0x20A0004
                 _0x202015B:
0016dc 89ed      	LDD  R30,Y+21
0016dd 89fe      	LDD  R31,Y+21+1
                +
0016de 85a2     +LDD R26 , Z + 10
0016df 85b3     +LDD R27 , Z + 10 + 1
0016e0 8584     +LDD R24 , Z + 10 + 2
0016e1 8595     +LDD R25 , Z + 10 + 3
                 	__GETD2Z 10
0016e2 89e9      	LDD  R30,Y+17
0016e3 89fa      	LDD  R31,Y+17+1
0016e4 940e 1d98 	CALL SUBOPT_0x5E
0016e6 937f      	PUSH R23
0016e7 936f      	PUSH R22
0016e8 93ff      	PUSH R31
0016e9 93ef      	PUSH R30
0016ea 940e 1f5e 	CALL SUBOPT_0x9E
0016ec 91af      	POP  R26
0016ed 91bf      	POP  R27
0016ee 918f      	POP  R24
0016ef 919f      	POP  R25
0016f0 940e 2104 	CALL __CPD21
0016f2 f418      	BRSH _0x202015C
0016f3 e0e0      	LDI  R30,LOW(0)
0016f4 8be9      	STD  Y+17,R30
0016f5 8bea      	STD  Y+17+1,R30
                 _0x202015C:
                 _0x202015E:
0016f6 89e9      	LDD  R30,Y+17
0016f7 89fa      	LDD  R31,Y+17+1
0016f8 9730      	SBIW R30,0
0016f9 f409      	BRNE PC+2
0016fa c14b      	RJMP _0x202015F
0016fb 940e 1f64 	CALL SUBOPT_0x9F
0016fd 01fd      	MOVW R30,R26
0016fe 01bc      	MOVW R22,R24
0016ff 70f1      	ANDI R31,HIGH(0x1FF)
001700 9730      	SBIW R30,0
001701 f009      	BREQ PC+2
001702 c10d      	RJMP _0x2020160
001703 89ed      	LDD  R30,Y+21
001704 89fe      	LDD  R31,Y+21+1
001705 8005      	LDD  R0,Z+5
001706 940e 1f54 	CALL SUBOPT_0x9C
001708 81e2      	LDD  R30,Z+2
001709 160e      	CP   R0,R30
00170a f408      	BRSH PC+2
00170b c050      	RJMP _0x2020161
00170c 89ad      	LDD  R26,Y+21
00170d 89be      	LDD  R27,Y+21+1
00170e 9616      	ADIW R26,6
00170f 940e 1db1 	CALL SUBOPT_0x61
001711 f4e1      	BRNE _0x2020162
001712 89ad      	LDD  R26,Y+21
001713 89be      	LDD  R27,Y+21+1
001714 961e      	ADIW R26,14
001715 940e 20b0 	CALL __GETD1P
001717 940e 1ec7 	CALL SUBOPT_0x89
001719 940e 1ecc 	CALL SUBOPT_0x8A
00171b 940e 20f5 	CALL __CPD10
00171d f479      	BRNE _0x2020163
00171e 940e 1f54 	CALL SUBOPT_0x9C
001720 93fa      	ST   -Y,R31
001721 93ea      	ST   -Y,R30
001722 940e 1d11 	CALL SUBOPT_0x46
001724 940e 0d76 	CALL _create_chain_G101
001726 940e 1ec7 	CALL SUBOPT_0x89
                +
001728 89ad     +LDD R26 , Y + 21
001729 89be     +LDD R27 , Y + 21 + 1
00172a 961e     +ADIW R26 , 14
00172b 940e 20bb+CALL __PUTDP1
                 	__PUTD1SNS 21,14
                 _0x2020163:
00172d c00a      	RJMP _0x2020164
                 _0x2020162:
00172e 940e 1f54 	CALL SUBOPT_0x9C
001730 940e 1f59 	CALL SUBOPT_0x9D
001732 940e 1ebb 	CALL SUBOPT_0x87
001734 940e 0d76 	CALL _create_chain_G101
001736 940e 1ec7 	CALL SUBOPT_0x89
                 _0x2020164:
001738 940e 1ecc 	CALL SUBOPT_0x8A
00173a 940e 20f5 	CALL __CPD10
00173c f409      	BRNE _0x2020165
00173d c108      	RJMP _0x202015F
                 _0x2020165:
00173e 940e 1ed6 	CALL SUBOPT_0x8C
001740 940e 1cfc 	CALL SUBOPT_0x43
001742 f421      	BRNE _0x2020166
001743 940e 1f6b 	CALL SUBOPT_0xA0
001745 e0e2      	LDI  R30,LOW(2)
001746 c119      	RJMP _0x20A0004
                 _0x2020166:
001747 940e 1ed6 	CALL SUBOPT_0x8C
001749 940e 1d04 	CALL SUBOPT_0x44
00174b f421      	BRNE _0x2020167
00174c 940e 1f6b 	CALL SUBOPT_0xA0
00174e e0e1      	LDI  R30,LOW(1)
00174f c110      	RJMP _0x20A0004
                 _0x2020167:
001750 940e 1ecc 	CALL SUBOPT_0x8A
                +
001752 89ad     +LDD R26 , Y + 21
001753 89be     +LDD R27 , Y + 21 + 1
001754 9652     +ADIW R26 , 18
001755 940e 20bb+CALL __PUTDP1
                 	__PUTD1SNS 21,18
001757 89ad      	LDD  R26,Y+21
001758 89be      	LDD  R27,Y+21+1
001759 9615      	ADIW R26,5
00175a e0e0      	LDI  R30,LOW(0)
00175b 93ec      	ST   X,R30
                 _0x2020161:
00175c 89ed      	LDD  R30,Y+21
00175d 89fe      	LDD  R31,Y+21+1
00175e 81a4      	LDD  R26,Z+4
00175f 74a0      	ANDI R26,LOW(0x40)
001760 f089      	BREQ _0x2020168
001761 940e 1f54 	CALL SUBOPT_0x9C
001763 940e 1f72 	CALL SUBOPT_0xA1
001765 8de8      	LDD  R30,Y+24
001766 8df9      	LDD  R31,Y+24+1
001767 940e 1f18 	CALL SUBOPT_0x94
001769 f021      	BREQ _0x2020169
00176a 940e 1f6b 	CALL SUBOPT_0xA0
00176c e0e1      	LDI  R30,LOW(1)
00176d c0f2      	RJMP _0x20A0004
                 _0x2020169:
00176e 89ad      	LDD  R26,Y+21
00176f 89be      	LDD  R27,Y+21+1
001770 940e 1f23 	CALL SUBOPT_0x95
                 _0x2020168:
001772 940e 1f54 	CALL SUBOPT_0x9C
001774 940e 1f59 	CALL SUBOPT_0x9D
001776 940e 1ebb 	CALL SUBOPT_0x87
001778 940e 0e3d 	CALL _clust2sect
00177a 940e 1eb6 	CALL SUBOPT_0x86
00177c 940e 20f5 	CALL __CPD10
00177e f421      	BRNE _0x202016A
00177f 940e 1f6b 	CALL SUBOPT_0xA0
001781 e0e2      	LDI  R30,LOW(2)
001782 c0dd      	RJMP _0x20A0004
                 _0x202016A:
001783 940e 1f7a 	CALL SUBOPT_0xA2
                +
001785 81af     +LDD R26 , Y + 7
001786 85b8     +LDD R27 , Y + 7 + 1
001787 8589     +LDD R24 , Y + 7 + 2
001788 859a     +LDD R25 , Y + 7 + 3
                 	__GETD2S 7
001789 940e 200f 	CALL __CWD1
00178b 940e 1fb9 	CALL __ADDD12
                +
00178d 83ef     +STD Y + 7 , R30
00178e 87f8     +STD Y + 7 + 1 , R31
00178f 8769     +STD Y + 7 + 2 , R22
001790 877a     +STD Y + 7 + 3 , R23
                 	__PUTD1S 7
001791 89a9      	LDD  R26,Y+17
001792 89ba      	LDD  R27,Y+17+1
001793 940e 1edb 	CALL SUBOPT_0x8D
001795 f409      	BRNE PC+2
001796 c04e      	RJMP _0x202016B
001797 940e 1f7a 	CALL SUBOPT_0xA2
001799 0fe3      	ADD  R30,R19
00179a 1ff4      	ADC  R31,R20
00179b 010f      	MOVW R0,R30
00179c 940e 1f54 	CALL SUBOPT_0x9C
00179e 81e2      	LDD  R30,Z+2
00179f 01d0      	MOVW R26,R0
0017a0 e0f0      	LDI  R31,0
0017a1 17ea      	CP   R30,R26
0017a2 07fb      	CPC  R31,R27
0017a3 f458      	BRSH _0x202016C
0017a4 940e 1f54 	CALL SUBOPT_0x9C
0017a6 81e2      	LDD  R30,Z+2
0017a7 e0f0      	LDI  R31,0
0017a8 01df      	MOVW R26,R30
0017a9 940e 1f7a 	CALL SUBOPT_0xA2
0017ab 1bae      	SUB  R26,R30
0017ac 0bbf      	SBC  R27,R31
                +
0017ad 2f3a     +MOV R19 , R26
0017ae 2f4b     +MOV R20 , R27
                 	__PUTW2R 19,20
                 _0x202016C:
0017af 940e 1f54 	CALL SUBOPT_0x9C
0017b1 81e1      	LDD  R30,Z+1
0017b2 93ea      	ST   -Y,R30
0017b3 940e 1e2e 	CALL SUBOPT_0x71
0017b5 940e 1d64 	CALL SUBOPT_0x56
0017b7 2fa3      	MOV  R26,R19
0017b8 940e 0854 	CALL _disk_write
0017ba 30e0      	CPI  R30,0
0017bb f021      	BREQ _0x202016D
0017bc 940e 1f6b 	CALL SUBOPT_0xA0
0017be e0e1      	LDI  R30,LOW(1)
0017bf c0a0      	RJMP _0x20A0004
                 _0x202016D:
0017c0 940e 1f7f 	CALL SUBOPT_0xA3
0017c2 940e 1eeb 	CALL SUBOPT_0x8F
0017c4 f4d8      	BRSH _0x202016E
0017c5 89ed      	LDD  R30,Y+21
0017c6 89fe      	LDD  R31,Y+21+1
0017c7 96b0      	ADIW R30,32
0017c8 940e 1f59 	CALL SUBOPT_0x9D
                +
0017ca 89a6     +LDD R26 , Z + 22
0017cb 89b7     +LDD R27 , Z + 22 + 1
0017cc 8d80     +LDD R24 , Z + 22 + 2
0017cd 8d91     +LDD R25 , Z + 22 + 3
                 	__GETD2Z 22
                +
0017ce 85e9     +LDD R30 , Y + 9
0017cf 85fa     +LDD R31 , Y + 9 + 1
0017d0 856b     +LDD R22 , Y + 9 + 2
0017d1 857c     +LDD R23 , Y + 9 + 3
                 	__GETD1S 9
0017d2 940e 1ef4 	CALL SUBOPT_0x90
0017d4 81af      	LDD  R26,Y+7
0017d5 85b8      	LDD  R27,Y+7+1
0017d6 2788      	CLR  R24
0017d7 2799      	CLR  R25
0017d8 0fea      	ADD  R30,R26
0017d9 1ffb      	ADC  R31,R27
0017da 940e 1efd 	CALL SUBOPT_0x91
0017dc 89ad      	LDD  R26,Y+21
0017dd 89be      	LDD  R27,Y+21+1
0017de 940e 1f23 	CALL SUBOPT_0x95
                 _0x202016E:
0017e0 89ad      	LDD  R26,Y+21
0017e1 89be      	LDD  R27,Y+21+1
0017e2 940e 1f03 	CALL SUBOPT_0x92
0017e4 c04d      	RJMP _0x202015D
                 _0x202016B:
0017e5 940e 1f7f 	CALL SUBOPT_0xA3
0017e7 940e 20ff 	CALL __CPD12
0017e9 f0c9      	BREQ _0x202016F
0017ea 940e 1f64 	CALL SUBOPT_0x9F
0017ec 010d      	MOVW R0,R26
0017ed 940e 1f5e 	CALL SUBOPT_0x9E
0017ef 01d0      	MOVW R26,R0
0017f0 940e 2104 	CALL __CPD21
0017f2 f458      	BRSH _0x2020171
0017f3 940e 1f54 	CALL SUBOPT_0x9C
0017f5 940e 1f72 	CALL SUBOPT_0xA1
                +
0017f7 85ea     +LDD R30 , Y + 10
0017f8 85fb     +LDD R31 , Y + 10 + 1
0017f9 856c     +LDD R22 , Y + 10 + 2
0017fa 857d     +LDD R23 , Y + 10 + 3
                 	__GETD1S 10
0017fb 940e 1c06 	CALL SUBOPT_0x26
0017fd f409      	BRNE _0x2020172
                 _0x2020171:
0017fe c004      	RJMP _0x2020170
                 _0x2020172:
0017ff 940e 1f6b 	CALL SUBOPT_0xA0
001801 e0e1      	LDI  R30,LOW(1)
001802 c05d      	RJMP _0x20A0004
                 _0x2020170:
                 _0x202016F:
001803 940e 1d0c 	CALL SUBOPT_0x45
                +
001805 89ad     +LDD R26 , Y + 21
001806 89be     +LDD R27 , Y + 21 + 1
001807 9656     +ADIW R26 , 22
001808 940e 20bb+CALL __PUTDP1
                 	__PUTD1SNS 21,22
00180a 89ad      	LDD  R26,Y+21
00180b 89be      	LDD  R27,Y+21+1
00180c 9615      	ADIW R26,5
00180d 91ec      	LD   R30,X
00180e 5fef      	SUBI R30,-LOW(1)
00180f 93ec      	ST   X,R30
                 _0x2020160:
001810 89ad      	LDD  R26,Y+21
001811 89be      	LDD  R27,Y+21+1
001812 940e 1f28 	CALL SUBOPT_0x96
001814 940e 1f2d 	CALL SUBOPT_0x97
001816 89e9      	LDD  R30,Y+17
001817 89fa      	LDD  R31,Y+17+1
001818 17e1      	CP   R30,R17
001819 07f2      	CPC  R31,R18
00181a f410      	BRSH _0x2020173
                +
00181b 8919     +LDD R17 , Y + 17
00181c 892a     +LDD R18 , Y + 17 + 1
                 	__GETWRS 17,18,17
                 _0x2020173:
00181d 89ad      	LDD  R26,Y+21
00181e 89be      	LDD  R27,Y+21+1
00181f 940e 1f28 	CALL SUBOPT_0x96
001821 89ad      	LDD  R26,Y+21
001822 89be      	LDD  R27,Y+21+1
001823 9690      	ADIW R26,32
001824 0fea      	ADD  R30,R26
001825 1ffb      	ADC  R31,R27
001826 93fa      	ST   -Y,R31
001827 93ea      	ST   -Y,R30
001828 81ef      	LDD  R30,Y+7
001829 85f8      	LDD  R31,Y+7+1
00182a 940e 1f34 	CALL SUBOPT_0x98
00182c 89ad      	LDD  R26,Y+21
00182d 89be      	LDD  R27,Y+21+1
00182e 9614      	ADIW R26,4
00182f 91ec      	LD   R30,X
001830 64e0      	ORI  R30,0x40
001831 93ec      	ST   X,R30
                 _0x202015D:
001832 940e 1f3a 	CALL SUBOPT_0x99
001834 89ed      	LDD  R30,Y+21
001835 89fe      	LDD  R31,Y+21+1
001836 940e 1f43 	CALL SUBOPT_0x9A
001838 01d0      	MOVW R26,R0
001839 940e 20bb 	CALL __PUTDP1
00183b 85af      	LDD  R26,Y+15
00183c 89b8      	LDD  R27,Y+15+1
00183d 940e 1f4d 	CALL SUBOPT_0x9B
00183f 89e9      	LDD  R30,Y+17
001840 89fa      	LDD  R31,Y+17+1
001841 1be1      	SUB  R30,R17
001842 0bf2      	SBC  R31,R18
001843 8be9      	STD  Y+17,R30
001844 8bfa      	STD  Y+17+1,R31
001845 ceb0      	RJMP _0x202015E
                 _0x202015F:
001846 940e 1f64 	CALL SUBOPT_0x9F
001848 010d      	MOVW R0,R26
001849 940e 1f5e 	CALL SUBOPT_0x9E
00184b 01d0      	MOVW R26,R0
00184c 940e 20ff 	CALL __CPD12
00184e f450      	BRSH _0x2020174
00184f 89ad      	LDD  R26,Y+21
001850 89be      	LDD  R27,Y+21+1
001851 9616      	ADIW R26,6
001852 940e 20b0 	CALL __GETD1P
                +
001854 89ad     +LDD R26 , Y + 21
001855 89be     +LDD R27 , Y + 21 + 1
001856 961a     +ADIW R26 , 10
001857 940e 20bb+CALL __PUTDP1
                 	__PUTD1SNS 21,10
                 _0x2020174:
001859 89ad      	LDD  R26,Y+21
00185a 89be      	LDD  R27,Y+21+1
00185b 9614      	ADIW R26,4
00185c 91ec      	LD   R30,X
00185d 62e0      	ORI  R30,0x20
00185e 93ec      	ST   X,R30
00185f e0e0      	LDI  R30,LOW(0)
                 _0x20A0004:
001860 940e 2111 	CALL __LOADLOCR5
001862 9667      	ADIW R28,23
001863 9508      	RET
                 ; .FEND
                 _f_sync:
                 ; .FSTART _f_sync
001864 93ba      	ST   -Y,R27
001865 93aa      	ST   -Y,R26
001866 9724      	SBIW R28,4
001867 940e 210c 	CALL __SAVELOCR3
001869 940e 1f86 	CALL SUBOPT_0xA4
00186b 93fa      	ST   -Y,R31
00186c 93ea      	ST   -Y,R30
00186d 85e9      	LDD  R30,Y+9
00186e 85fa      	LDD  R31,Y+9+1
00186f 940e 1ea8 	CALL SUBOPT_0x84
001871 f009      	BREQ PC+2
001872 c075      	RJMP _0x2020175
001873 81ef      	LDD  R30,Y+7
001874 85f8      	LDD  R31,Y+7+1
001875 81a4      	LDD  R26,Z+4
001876 72a0      	ANDI R26,LOW(0x20)
001877 f409      	BRNE PC+2
001878 c06f      	RJMP _0x2020176
001879 81a4      	LDD  R26,Z+4
00187a 74a0      	ANDI R26,LOW(0x40)
00187b f0a1      	BREQ _0x2020177
00187c 940e 1f86 	CALL SUBOPT_0xA4
00187e 81e1      	LDD  R30,Z+1
00187f 93ea      	ST   -Y,R30
001880 85e8      	LDD  R30,Y+8
001881 85f9      	LDD  R31,Y+8+1
001882 96b0      	ADIW R30,32
001883 93fa      	ST   -Y,R31
001884 93ea      	ST   -Y,R30
001885 85ea      	LDD  R30,Y+10
001886 85fb      	LDD  R31,Y+10+1
001887 940e 1f18 	CALL SUBOPT_0x94
001889 f011      	BREQ _0x2020178
00188a e0e1      	LDI  R30,LOW(1)
00188b c05d      	RJMP _0x20A0003
                 _0x2020178:
00188c 81af      	LDD  R26,Y+7
00188d 85b8      	LDD  R27,Y+7+1
00188e 940e 1f23 	CALL SUBOPT_0x95
                 _0x2020177:
001890 940e 1f86 	CALL SUBOPT_0xA4
001892 93fa      	ST   -Y,R31
001893 93ea      	ST   -Y,R30
001894 85e9      	LDD  R30,Y+9
001895 85fa      	LDD  R31,Y+9+1
                +
001896 8da2     +LDD R26 , Z + 26
001897 8db3     +LDD R27 , Z + 26 + 1
001898 8d84     +LDD R24 , Z + 26 + 2
001899 8d95     +LDD R25 , Z + 26 + 3
                 	__GETD2Z 26
00189a 940e 0b2e 	CALL _move_window_G101
00189c 2f0e      	MOV  R16,R30
00189d 3000      	CPI  R16,0
00189e f009      	BREQ PC+2
00189f c048      	RJMP _0x2020179
0018a0 81af      	LDD  R26,Y+7
0018a1 85b8      	LDD  R27,Y+7+1
0018a2 965e      	ADIW R26,30
0018a3 911d      	LD   R17,X+
0018a4 912c      	LD   R18,X
                +
0018a5 2fa1     +MOV R26 , R17
0018a6 2fb2     +MOV R27 , R18
                 	__GETW2R 17,18
0018a7 961b      	ADIW R26,11
0018a8 91ec      	LD   R30,X
0018a9 62e0      	ORI  R30,0x20
0018aa 93ec      	ST   X,R30
0018ab 81af      	LDD  R26,Y+7
0018ac 85b8      	LDD  R27,Y+7+1
0018ad 961a      	ADIW R26,10
0018ae 940e 20b0 	CALL __GETD1P
                +
0018b0 2fa1     +MOV R26 , R17
0018b1 2fb2     +MOV R27 , R18
0018b2 965c     +ADIW R26 , 28
0018b3 940e 20bb+CALL __PUTDP1
                 	__PUTD1RONS 17,18,28
0018b5 81af      	LDD  R26,Y+7
0018b6 85b8      	LDD  R27,Y+7+1
0018b7 961e      	ADIW R26,14
0018b8 940e 20ac 	CALL __GETW1P
                +
0018ba 2fa1     +MOV R26 , R17
0018bb 2fb2     +MOV R27 , R18
0018bc 965a     +ADIW R26 , 26
0018bd 93ed     +ST X + , R30
0018be 93fc     +ST X , R31
                 	__PUTW1RONS 17,18,26
0018bf 81ef      	LDD  R30,Y+7
0018c0 85f8      	LDD  R31,Y+7+1
                +
0018c1 85a6     +LDD R26 , Z + 14
0018c2 85b7     +LDD R27 , Z + 14 + 1
0018c3 8980     +LDD R24 , Z + 14 + 2
0018c4 8991     +LDD R25 , Z + 14 + 3
                 	__GETD2Z 14
0018c5 01fd      	MOVW R30,R26
0018c6 01bc      	MOVW R22,R24
0018c7 940e 2005 	CALL __LSRD16
                +
0018c9 2fa1     +MOV R26 , R17
0018ca 2fb2     +MOV R27 , R18
0018cb 9654     +ADIW R26 , 20
0018cc 93ed     +ST X + , R30
0018cd 93fc     +ST X , R31
                 	__PUTW1RONS 17,18,20
0018ce 940e 0a96 	CALL _get_fattime
0018d0 940e 1dc9 	CALL SUBOPT_0x65
                +
0018d2 2fa1     +MOV R26 , R17
0018d3 2fb2     +MOV R27 , R18
0018d4 9656     +ADIW R26 , 22
0018d5 940e 20bb+CALL __PUTDP1
                 	__PUTD1RONS 17,18,22
0018d7 81af      	LDD  R26,Y+7
0018d8 85b8      	LDD  R27,Y+7+1
0018d9 9614      	ADIW R26,4
0018da 91ec      	LD   R30,X
0018db 7def      	ANDI R30,0xDF
0018dc 93ec      	ST   X,R30
0018dd 940e 1f86 	CALL SUBOPT_0xA4
0018df 9634      	ADIW R30,4
0018e0 e0a1      	LDI  R26,LOW(1)
0018e1 83a0      	STD  Z+0,R26
0018e2 940e 1f86 	CALL SUBOPT_0xA4
0018e4 01df      	MOVW R26,R30
0018e5 940e 0b95 	CALL _sync_G101
0018e7 2f0e      	MOV  R16,R30
                 _0x2020179:
                 _0x2020176:
                 _0x2020175:
0018e8 2fe0      	MOV  R30,R16
                 _0x20A0003:
0018e9 940e 2113 	CALL __LOADLOCR3
0018eb 9629      	ADIW R28,9
0018ec 9508      	RET
                 ; .FEND
                 _f_close:
                 ; .FSTART _f_close
0018ed 93ba      	ST   -Y,R27
0018ee 93aa      	ST   -Y,R26
0018ef 930a      	ST   -Y,R16
0018f0 81a9      	LDD  R26,Y+1
0018f1 81ba      	LDD  R27,Y+1+1
0018f2 df71      	RCALL _f_sync
0018f3 2f0e      	MOV  R16,R30
0018f4 3000      	CPI  R16,0
0018f5 f421      	BRNE _0x202017A
0018f6 81a9      	LDD  R26,Y+1
0018f7 81ba      	LDD  R27,Y+1+1
0018f8 940e 1e33 	CALL SUBOPT_0x72
                 _0x202017A:
0018fa 2fe0      	MOV  R30,R16
0018fb 8108      	LDD  R16,Y+0
0018fc 9623      	ADIW R28,3
0018fd 9508      	RET
                 ; .FEND
                 	#ifndef __SLEEP_DEFINED__
                 	#endif
                 
                 	.CSEG
                 _put_buff_G102:
                 ; .FSTART _put_buff_G102
0018fe 940e 1b67 	CALL SUBOPT_0xD
001900 81aa      	LDD  R26,Y+2
001901 81bb      	LDD  R27,Y+2+1
001902 9612      	ADIW R26,2
001903 940e 20ac 	CALL __GETW1P
001905 9730      	SBIW R30,0
001906 f129      	BREQ _0x204002D
001907 81aa      	LDD  R26,Y+2
001908 81bb      	LDD  R27,Y+2+1
001909 9614      	ADIW R26,4
00190a 940e 20ac 	CALL __GETW1P
00190c 018f      	MOVW R16,R30
00190d 9730      	SBIW R30,0
00190e f061      	BREQ _0x204002F
                +
00190f 3002     +CPI R16 , LOW ( 2 )
001910 e0e0     +LDI R30 , HIGH ( 2 )
001911 071e     +CPC R17 , R30
                 	__CPWRN 16,17,2
001912 f080      	BRLO _0x2040030
001913 01f8      	MOVW R30,R16
001914 9731      	SBIW R30,1
001915 018f      	MOVW R16,R30
                +
001916 81aa     +LDD R26 , Y + 2
001917 81bb     +LDD R27 , Y + 2 + 1
001918 9614     +ADIW R26 , 4
001919 93ed     +ST X + , R30
00191a 93fc     +ST X , R31
                 	__PUTW1SNS 2,4
                 _0x204002F:
00191b 81aa      	LDD  R26,Y+2
00191c 81bb      	LDD  R27,Y+2+1
00191d 9612      	ADIW R26,2
00191e 940e 1e91 	CALL SUBOPT_0x80
001920 9731      	SBIW R30,1
001921 81ac      	LDD  R26,Y+4
001922 83a0      	STD  Z+0,R26
                 _0x2040030:
001923 81aa      	LDD  R26,Y+2
001924 81bb      	LDD  R27,Y+2+1
001925 940e 20ac 	CALL __GETW1P
001927 23ff      	TST  R31
001928 f012      	BRMI _0x2040031
001929 940e 1e91 	CALL SUBOPT_0x80
                 _0x2040031:
00192b c006      	RJMP _0x2040032
                 _0x204002D:
00192c 81aa      	LDD  R26,Y+2
00192d 81bb      	LDD  R27,Y+2+1
00192e efef      	LDI  R30,LOW(65535)
00192f efff      	LDI  R31,HIGH(65535)
001930 93ed      	ST   X+,R30
001931 93fc      	ST   X,R31
                 _0x2040032:
001932 8119      	LDD  R17,Y+1
001933 8108      	LDD  R16,Y+0
001934 940c 1af4 	JMP  _0x20A0001
                 ; .FEND
                 __print_G102:
                 ; .FSTART __print_G102
001936 93ba      	ST   -Y,R27
001937 93aa      	ST   -Y,R26
001938 9728      	SBIW R28,8
001939 940e 2109 	CALL __SAVELOCR6
00193b e000      	LDI  R16,0
00193c 85ae      	LDD  R26,Y+14
00193d 85bf      	LDD  R27,Y+14+1
00193e 940e 1e33 	CALL SUBOPT_0x72
                 _0x2040037:
001940 01de      	MOVW R26,R28
001941 9654      	ADIW R26,20
001942 940e 1bce 	CALL SUBOPT_0x1F
                +
001944 bf6b     +OUT RAMPZ , R22
001945 91e6     +ELPM R30 , Z
                 	__GETBRPF 30
001946 2f3e      	MOV  R19,R30
001947 30e0      	CPI  R30,0
001948 f409      	BRNE PC+2
001949 c12f      	RJMP _0x2040039
00194a 2fe0      	MOV  R30,R16
00194b 30e0      	CPI  R30,0
00194c f439      	BRNE _0x204003D
00194d 3235      	CPI  R19,37
00194e f411      	BRNE _0x204003E
00194f e001      	LDI  R16,LOW(1)
001950 c002      	RJMP _0x204003F
                 _0x204003E:
001951 940e 1f8b 	CALL SUBOPT_0xA5
                 _0x204003F:
001953 c124      	RJMP _0x204003C
                 _0x204003D:
001954 30e1      	CPI  R30,LOW(0x1)
001955 f4a9      	BRNE _0x2040040
001956 3235      	CPI  R19,37
001957 f419      	BRNE _0x2040041
001958 940e 1f8b 	CALL SUBOPT_0xA5
00195a c11c      	RJMP _0x20400F5
                 _0x2040041:
00195b e002      	LDI  R16,LOW(2)
00195c e050      	LDI  R21,LOW(0)
00195d e010      	LDI  R17,LOW(0)
00195e 323d      	CPI  R19,45
00195f f411      	BRNE _0x2040042
001960 e011      	LDI  R17,LOW(1)
001961 c116      	RJMP _0x204003C
                 _0x2040042:
001962 323b      	CPI  R19,43
001963 f411      	BRNE _0x2040043
001964 e25b      	LDI  R21,LOW(43)
001965 c112      	RJMP _0x204003C
                 _0x2040043:
001966 3230      	CPI  R19,32
001967 f411      	BRNE _0x2040044
001968 e250      	LDI  R21,LOW(32)
001969 c10e      	RJMP _0x204003C
                 _0x2040044:
00196a c002      	RJMP _0x2040045
                 _0x2040040:
00196b 30e2      	CPI  R30,LOW(0x2)
00196c f439      	BRNE _0x2040046
                 _0x2040045:
00196d e040      	LDI  R20,LOW(0)
00196e e003      	LDI  R16,LOW(3)
00196f 3330      	CPI  R19,48
001970 f411      	BRNE _0x2040047
001971 6810      	ORI  R17,LOW(128)
001972 c105      	RJMP _0x204003C
                 _0x2040047:
001973 c003      	RJMP _0x2040048
                 _0x2040046:
001974 30e3      	CPI  R30,LOW(0x3)
001975 f009      	BREQ PC+2
001976 c101      	RJMP _0x204003C
                 _0x2040048:
001977 3330      	CPI  R19,48
001978 f010      	BRLO _0x204004B
001979 333a      	CPI  R19,58
00197a f008      	BRLO _0x204004C
                 _0x204004B:
00197b c007      	RJMP _0x204004A
                 _0x204004C:
00197c e0aa      	LDI  R26,LOW(10)
00197d 9f4a      	MUL  R20,R26
00197e 2d40      	MOV  R20,R0
00197f 2fe3      	MOV  R30,R19
001980 53e0      	SUBI R30,LOW(48)
001981 0f4e      	ADD  R20,R30
001982 c0f5      	RJMP _0x204003C
                 _0x204004A:
001983 2fe3      	MOV  R30,R19
001984 36e3      	CPI  R30,LOW(0x63)
001985 f449      	BRNE _0x2040050
001986 940e 1f92 	CALL SUBOPT_0xA6
001988 89ea      	LDD  R30,Y+18
001989 89fb      	LDD  R31,Y+18+1
00198a 81a4      	LDD  R26,Z+4
00198b 93aa      	ST   -Y,R26
00198c 940e 1f98 	CALL SUBOPT_0xA7
00198e c0e8      	RJMP _0x2040051
                 _0x2040050:
00198f 37e3      	CPI  R30,LOW(0x73)
001990 f469      	BRNE _0x2040053
001991 940e 1f92 	CALL SUBOPT_0xA6
001993 89aa      	LDD  R26,Y+18
001994 89bb      	LDD  R27,Y+18+1
001995 9614      	ADIW R26,4
001996 940e 1dff 	CALL SUBOPT_0x6A
001998 81ae      	LDD  R26,Y+6
001999 81bf      	LDD  R27,Y+6+1
00199a 940e 1af6 	CALL _strlen
00199c 2f0e      	MOV  R16,R30
00199d c013      	RJMP _0x2040054
                 _0x2040053:
00199e 37e0      	CPI  R30,LOW(0x70)
00199f f4a9      	BRNE _0x2040056
0019a0 940e 1f92 	CALL SUBOPT_0xA6
0019a2 89aa      	LDD  R26,Y+18
0019a3 89bb      	LDD  R27,Y+18+1
0019a4 9614      	ADIW R26,4
0019a5 940e 20b0 	CALL __GETD1P
0019a7 940e 1f9e 	CALL SUBOPT_0xA8
                +
0019a9 81ae     +LDD R26 , Y + 6
0019aa 81bf     +LDD R27 , Y + 6 + 1
0019ab 8588     +LDD R24 , Y + 6 + 2
0019ac 8599     +LDD R25 , Y + 6 + 3
                 	__GETD2S 6
0019ad 940e 1b02 	CALL _strlenf
0019af 2f0e      	MOV  R16,R30
0019b0 6018      	ORI  R17,LOW(8)
                 _0x2040054:
0019b1 6012      	ORI  R17,LOW(2)
0019b2 771f      	ANDI R17,LOW(127)
0019b3 e020      	LDI  R18,LOW(0)
0019b4 c038      	RJMP _0x2040057
                 _0x2040056:
0019b5 36e4      	CPI  R30,LOW(0x64)
0019b6 f011      	BREQ _0x204005A
0019b7 36e9      	CPI  R30,LOW(0x69)
0019b8 f411      	BRNE _0x204005B
                 _0x204005A:
0019b9 6014      	ORI  R17,LOW(4)
0019ba c002      	RJMP _0x204005C
                 _0x204005B:
0019bb 37e5      	CPI  R30,LOW(0x75)
0019bc f441      	BRNE _0x204005D
                 _0x204005C:
                +
0019bd e4e8     +LDI R30 , LOW ( 2 * _tbl10_G102 + ( 0 ) )
0019be e0f1     +LDI R31 , HIGH ( 2 * _tbl10_G102 + ( 0 ) )
0019bf e060     +LDI R22 , BYTE3 ( 2 * _tbl10_G102 + ( 0 ) )
0019c0 e070     +LDI R23 , BYTE4 ( 2 * _tbl10_G102 + ( 0 ) )
                 	__POINTD1FN _tbl10_G102,0
0019c1 940e 1f9e 	CALL SUBOPT_0xA8
0019c3 e005      	LDI  R16,LOW(5)
0019c4 c00e      	RJMP _0x204005E
                 _0x204005D:
0019c5 35e8      	CPI  R30,LOW(0x58)
0019c6 f411      	BRNE _0x2040060
0019c7 6018      	ORI  R17,LOW(8)
0019c8 c003      	RJMP _0x2040061
                 _0x2040060:
0019c9 37e8      	CPI  R30,LOW(0x78)
0019ca f009      	BREQ PC+2
0019cb c0ab      	RJMP _0x2040092
                 _0x2040061:
                +
0019cc e5e2     +LDI R30 , LOW ( 2 * _tbl16_G102 + ( 0 ) )
0019cd e0f1     +LDI R31 , HIGH ( 2 * _tbl16_G102 + ( 0 ) )
0019ce e060     +LDI R22 , BYTE3 ( 2 * _tbl16_G102 + ( 0 ) )
0019cf e070     +LDI R23 , BYTE4 ( 2 * _tbl16_G102 + ( 0 ) )
                 	__POINTD1FN _tbl16_G102,0
0019d0 940e 1f9e 	CALL SUBOPT_0xA8
0019d2 e004      	LDI  R16,LOW(4)
                 _0x204005E:
0019d3 ff12      	SBRS R17,2
0019d4 c014      	RJMP _0x2040063
0019d5 940e 1f92 	CALL SUBOPT_0xA6
0019d7 940e 1fa3 	CALL SUBOPT_0xA9
0019d9 85ad      	LDD  R26,Y+13
0019da 23aa      	TST  R26
0019db f43a      	BRPL _0x2040064
0019dc 85ec      	LDD  R30,Y+12
0019dd 85fd      	LDD  R31,Y+12+1
0019de 940e 1fd2 	CALL __ANEGW1
0019e0 87ec      	STD  Y+12,R30
0019e1 87fd      	STD  Y+12+1,R31
0019e2 e25d      	LDI  R21,LOW(45)
                 _0x2040064:
0019e3 3050      	CPI  R21,0
0019e4 f011      	BREQ _0x2040065
0019e5 5f0f      	SUBI R16,-LOW(1)
0019e6 c001      	RJMP _0x2040066
                 _0x2040065:
0019e7 7f1b      	ANDI R17,LOW(251)
                 _0x2040066:
0019e8 c004      	RJMP _0x2040067
                 _0x2040063:
0019e9 940e 1f92 	CALL SUBOPT_0xA6
0019eb 940e 1fa3 	CALL SUBOPT_0xA9
                 _0x2040067:
                 _0x2040057:
0019ed fd10      	SBRC R17,0
0019ee c011      	RJMP _0x2040068
                 _0x2040069:
0019ef 1704      	CP   R16,R20
0019f0 f478      	BRSH _0x204006B
0019f1 ff17      	SBRS R17,7
0019f2 c008      	RJMP _0x204006C
0019f3 ff12      	SBRS R17,2
0019f4 c004      	RJMP _0x204006D
0019f5 7f1b      	ANDI R17,LOW(251)
0019f6 2f35      	MOV  R19,R21
0019f7 5001      	SUBI R16,LOW(1)
0019f8 c001      	RJMP _0x204006E
                 _0x204006D:
0019f9 e330      	LDI  R19,LOW(48)
                 _0x204006E:
0019fa c001      	RJMP _0x204006F
                 _0x204006C:
0019fb e230      	LDI  R19,LOW(32)
                 _0x204006F:
0019fc 940e 1f8b 	CALL SUBOPT_0xA5
0019fe 5041      	SUBI R20,LOW(1)
0019ff cfef      	RJMP _0x2040069
                 _0x204006B:
                 _0x2040068:
001a00 2f20      	MOV  R18,R16
001a01 ff11      	SBRS R17,1
001a02 c018      	RJMP _0x2040070
                 _0x2040071:
001a03 3020      	CPI  R18,0
001a04 f0a9      	BREQ _0x2040073
001a05 ff13      	SBRS R17,3
001a06 c007      	RJMP _0x2040074
001a07 01de      	MOVW R26,R28
001a08 9616      	ADIW R26,6
001a09 940e 1bce 	CALL SUBOPT_0x1F
                +
001a0b bf6b     +OUT RAMPZ , R22
001a0c 9136     +ELPM R19 , Z
                 	__GETBRPF 19
001a0d c005      	RJMP _0x2040075
                 _0x2040074:
001a0e 81ae      	LDD  R26,Y+6
001a0f 81bf      	LDD  R27,Y+6+1
001a10 913d      	LD   R19,X+
001a11 83ae      	STD  Y+6,R26
001a12 83bf      	STD  Y+6+1,R27
                 _0x2040075:
001a13 940e 1f8b 	CALL SUBOPT_0xA5
001a15 3040      	CPI  R20,0
001a16 f009      	BREQ _0x2040076
001a17 5041      	SUBI R20,LOW(1)
                 _0x2040076:
001a18 5021      	SUBI R18,LOW(1)
001a19 cfe9      	RJMP _0x2040071
                 _0x2040073:
001a1a c052      	RJMP _0x2040077
                 _0x2040070:
                 _0x2040079:
001a1b e330      	LDI  R19,LOW(48)
                +
001a1c 81ee     +LDD R30 , Y + 6
001a1d 81ff     +LDD R31 , Y + 6 + 1
001a1e 8568     +LDD R22 , Y + 6 + 2
001a1f 8579     +LDD R23 , Y + 6 + 3
                 	__GETD1S 6
001a20 940e 20c5 	CALL __GETW1PF
001a22 87ea      	STD  Y+10,R30
001a23 87fb      	STD  Y+10+1,R31
                +
001a24 81ee     +LDD R30 , Y + 6
001a25 81ff     +LDD R31 , Y + 6 + 1
001a26 8568     +LDD R22 , Y + 6 + 2
001a27 8579     +LDD R23 , Y + 6 + 3
                 	__GETD1S 6
                +
001a28 5fee     +SUBI R30 , LOW ( - 2 )
001a29 4fff     +SBCI R31 , HIGH ( - 2 )
001a2a 4f6f     +SBCI R22 , BYTE3 ( - 2 )
001a2b 4f7f     +SBCI R23 , BYTE4 ( - 2 )
                 	__ADDD1N 2
001a2c 940e 1f9e 	CALL SUBOPT_0xA8
                 _0x204007B:
001a2e 85ea      	LDD  R30,Y+10
001a2f 85fb      	LDD  R31,Y+10+1
001a30 85ac      	LDD  R26,Y+12
001a31 85bd      	LDD  R27,Y+12+1
001a32 17ae      	CP   R26,R30
001a33 07bf      	CPC  R27,R31
001a34 f050      	BRLO _0x204007D
001a35 5f3f      	SUBI R19,-LOW(1)
001a36 85aa      	LDD  R26,Y+10
001a37 85bb      	LDD  R27,Y+10+1
001a38 85ec      	LDD  R30,Y+12
001a39 85fd      	LDD  R31,Y+12+1
001a3a 1bea      	SUB  R30,R26
001a3b 0bfb      	SBC  R31,R27
001a3c 87ec      	STD  Y+12,R30
001a3d 87fd      	STD  Y+12+1,R31
001a3e cfef      	RJMP _0x204007B
                 _0x204007D:
001a3f 333a      	CPI  R19,58
001a40 f028      	BRLO _0x204007E
001a41 ff13      	SBRS R17,3
001a42 c002      	RJMP _0x204007F
001a43 5f39      	SUBI R19,-LOW(7)
001a44 c001      	RJMP _0x2040080
                 _0x204007F:
001a45 5d39      	SUBI R19,-LOW(39)
                 _0x2040080:
                 _0x204007E:
001a46 fd14      	SBRC R17,4
001a47 c01a      	RJMP _0x2040082
001a48 3331      	CPI  R19,49
001a49 f420      	BRSH _0x2040084
001a4a 85aa      	LDD  R26,Y+10
001a4b 85bb      	LDD  R27,Y+10+1
001a4c 9711      	SBIW R26,1
001a4d f409      	BRNE _0x2040083
                 _0x2040084:
001a4e c009      	RJMP _0x20400F6
                 _0x2040083:
001a4f 1742      	CP   R20,R18
001a50 f010      	BRLO _0x2040088
001a51 ff10      	SBRS R17,0
001a52 c001      	RJMP _0x2040089
                 _0x2040088:
001a53 c013      	RJMP _0x2040087
                 _0x2040089:
001a54 e230      	LDI  R19,LOW(32)
001a55 ff17      	SBRS R17,7
001a56 c00b      	RJMP _0x204008A
001a57 e330      	LDI  R19,LOW(48)
                 _0x20400F6:
001a58 6110      	ORI  R17,LOW(16)
001a59 ff12      	SBRS R17,2
001a5a c007      	RJMP _0x204008B
001a5b 7f1b      	ANDI R17,LOW(251)
001a5c 935a      	ST   -Y,R21
001a5d 940e 1f98 	CALL SUBOPT_0xA7
001a5f 3040      	CPI  R20,0
001a60 f009      	BREQ _0x204008C
001a61 5041      	SUBI R20,LOW(1)
                 _0x204008C:
                 _0x204008B:
                 _0x204008A:
                 _0x2040082:
001a62 940e 1f8b 	CALL SUBOPT_0xA5
001a64 3040      	CPI  R20,0
001a65 f009      	BREQ _0x204008D
001a66 5041      	SUBI R20,LOW(1)
                 _0x204008D:
                 _0x2040087:
001a67 5021      	SUBI R18,LOW(1)
001a68 85aa      	LDD  R26,Y+10
001a69 85bb      	LDD  R27,Y+10+1
001a6a 9712      	SBIW R26,2
001a6b f008      	BRLO _0x204007A
001a6c cfae      	RJMP _0x2040079
                 _0x204007A:
                 _0x2040077:
001a6d ff10      	SBRS R17,0
001a6e c008      	RJMP _0x204008E
                 _0x204008F:
001a6f 3040      	CPI  R20,0
001a70 f031      	BREQ _0x2040091
001a71 5041      	SUBI R20,LOW(1)
001a72 e2e0      	LDI  R30,LOW(32)
001a73 93ea      	ST   -Y,R30
001a74 940e 1f98 	CALL SUBOPT_0xA7
001a76 cff8      	RJMP _0x204008F
                 _0x2040091:
                 _0x204008E:
                 _0x2040092:
                 _0x2040051:
                 _0x20400F5:
001a77 e000      	LDI  R16,LOW(0)
                 _0x204003C:
001a78 cec7      	RJMP _0x2040037
                 _0x2040039:
001a79 85ae      	LDD  R26,Y+14
001a7a 85bf      	LDD  R27,Y+14+1
001a7b 940e 20ac 	CALL __GETW1P
001a7d 940e 2110 	CALL __LOADLOCR6
001a7f 9668      	ADIW R28,24
001a80 9508      	RET
                 ; .FEND
                 _sprintf:
                 ; .FSTART _sprintf
001a81 92ff      	PUSH R15
001a82 2ef8      	MOV  R15,R24
001a83 9726      	SBIW R28,6
001a84 940e 210b 	CALL __SAVELOCR4
001a86 01de      	MOVW R26,R28
001a87 961e      	ADIW R26,14
001a88 940e 1fb5 	CALL __ADDW2R15
001a8a 940e 20ac 	CALL __GETW1P
001a8c 9730      	SBIW R30,0
001a8d f419      	BRNE _0x2040093
001a8e efef      	LDI  R30,LOW(65535)
001a8f efff      	LDI  R31,HIGH(65535)
001a90 c025      	RJMP _0x20A0002
                 _0x2040093:
001a91 01de      	MOVW R26,R28
001a92 9616      	ADIW R26,6
001a93 940e 1fb5 	CALL __ADDW2R15
001a95 018d      	MOVW R16,R26
001a96 01de      	MOVW R26,R28
001a97 961e      	ADIW R26,14
001a98 940e 1fb5 	CALL __ADDW2R15
001a9a 940e 1dff 	CALL SUBOPT_0x6A
001a9c e0e0      	LDI  R30,LOW(0)
001a9d 87e8      	STD  Y+8,R30
001a9e 87e9      	STD  Y+8+1,R30
001a9f 01de      	MOVW R26,R28
001aa0 961a      	ADIW R26,10
001aa1 940e 1fb5 	CALL __ADDW2R15
001aa3 940e 20b0 	CALL __GETD1P
001aa5 940e 20de 	CALL __PUTPARD1
001aa7 931a      	ST   -Y,R17
001aa8 930a      	ST   -Y,R16
001aa9 efee      	LDI  R30,LOW(_put_buff_G102)
001aaa e1f8      	LDI  R31,HIGH(_put_buff_G102)
001aab 93fa      	ST   -Y,R31
001aac 93ea      	ST   -Y,R30
001aad 01de      	MOVW R26,R28
001aae 961c      	ADIW R26,12
001aaf de86      	RCALL __print_G102
001ab0 019f      	MOVW R18,R30
001ab1 81ae      	LDD  R26,Y+6
001ab2 81bf      	LDD  R27,Y+6+1
001ab3 e0e0      	LDI  R30,LOW(0)
001ab4 93ec      	ST   X,R30
001ab5 01f9      	MOVW R30,R18
                 _0x20A0002:
001ab6 940e 2112 	CALL __LOADLOCR4
001ab8 962a      	ADIW R28,10
001ab9 90ff      	POP  R15
001aba 9508      	RET
                 ; .FEND
                 
                 	.CSEG
                 _memcmp:
                 ; .FSTART _memcmp
001abb 93ba      	ST   -Y,R27
001abc 93aa      	ST   -Y,R26
001abd 2766          clr  r22
001abe 2777          clr  r23
001abf 9189          ld   r24,y+
001ac0 9199          ld   r25,y+
001ac1 91e9          ld   r30,y+
001ac2 91f9          ld   r31,y+
001ac3 91a9          ld   r26,y+
001ac4 91b9          ld   r27,y+
                 memcmp0:
001ac5 9600          adiw r24,0
001ac6 f029          breq memcmp1
001ac7 9701          sbiw r24,1
001ac8 916d          ld   r22,x+
001ac9 9171          ld   r23,z+
001aca 1767          cp   r22,r23
001acb f3c9          breq memcmp0
                 memcmp1:
001acc 1b67          sub  r22,r23
001acd f410          brcc memcmp2
001ace efef          ldi  r30,-1
001acf 9508          ret
                 memcmp2:
001ad0 e0e0          ldi  r30,0
001ad1 f009          breq memcmp3
001ad2 95e3          inc  r30
                 memcmp3:
001ad3 9508          ret
                 ; .FEND
                 _memcpy:
                 ; .FSTART _memcpy
001ad4 93ba      	ST   -Y,R27
001ad5 93aa      	ST   -Y,R26
001ad6 8199          ldd  r25,y+1
001ad7 8188          ld   r24,y
001ad8 9600          adiw r24,0
001ad9 f041          breq memcpy1
001ada 81bd          ldd  r27,y+5
001adb 81ac          ldd  r26,y+4
001adc 81fb          ldd  r31,y+3
001add 81ea          ldd  r30,y+2
                 memcpy0:
001ade 9161          ld   r22,z+
001adf 936d          st   x+,r22
001ae0 9701          sbiw r24,1
001ae1 f7e1          brne memcpy0
                 memcpy1:
001ae2 81fd          ldd  r31,y+5
001ae3 81ec          ldd  r30,y+4
001ae4 9626      	ADIW R28,6
001ae5 9508      	RET
                 ; .FEND
                 _memset:
                 ; .FSTART _memset
001ae6 93ba      	ST   -Y,R27
001ae7 93aa      	ST   -Y,R26
001ae8 81b9          ldd  r27,y+1
001ae9 81a8          ld   r26,y
001aea 9610          adiw r26,0
001aeb f031          breq memset1
001aec 81fc          ldd  r31,y+4
001aed 81eb          ldd  r30,y+3
001aee 816a          ldd  r22,y+2
                 memset0:
001aef 9361          st   z+,r22
001af0 9711          sbiw r26,1
001af1 f7e9          brne memset0
                 memset1:
001af2 81eb          ldd  r30,y+3
001af3 81fc          ldd  r31,y+4
                 _0x20A0001:
001af4 9625      	ADIW R28,5
001af5 9508      	RET
                 ; .FEND
                 _strlen:
                 ; .FSTART _strlen
001af6 93ba      	ST   -Y,R27
001af7 93aa      	ST   -Y,R26
001af8 91a9          ld   r26,y+
001af9 91b9          ld   r27,y+
001afa 27ee          clr  r30
001afb 27ff          clr  r31
                 strlen0:
001afc 916d          ld   r22,x+
001afd 2366          tst  r22
001afe f011          breq strlen1
001aff 9631          adiw r30,1
001b00 cffb          rjmp strlen0
                 strlen1:
001b01 9508          ret
                 ; .FEND
                 _strlenf:
                 ; .FSTART _strlenf
001b02 940e 20e3 	CALL __PUTPARD2
001b04 27aa          clr  r26
001b05 27bb          clr  r27
001b06 91e9          ld   r30,y+
001b07 91f9          ld   r31,y+
001b08 9169          ld   r22,y+
001b09 9179          ld   r23,y+
001b0a bf6b          out  rampz,r22
                 strlenf0:
001b0b 9007          elpm r0,z+
001b0c 2000          tst  r0
001b0d f011          breq strlenf1
001b0e 9611          adiw r26,1
001b0f cffb          rjmp strlenf0
                 strlenf1:
001b10 01fd          movw r30,r26
001b11 9508          ret
                 ; .FEND
                 
                 	.CSEG
                 
                 	.DSEG
                 _cursor:
00090b           	.BYTE 0x1
                 _prtc_get_time:
00090c           	.BYTE 0x2
                 _prtc_get_date:
00090e           	.BYTE 0x2
                 _freq:
000910           	.BYTE 0x2
                 _i:
000912           	.BYTE 0x2
                 _buffer:
000914           	.BYTE 0x100
                 _fileName:
000a14           	.BYTE 0xC
                 _br:
000a20           	.BYTE 0x2
                 _drive:
000a22           	.BYTE 0x232
                 _archivo:
000c54           	.BYTE 0x220
                 _j:
000e74           	.BYTE 0x2
                 _k:
000e76           	.BYTE 0x2
                 _temp:
000e78           	.BYTE 0x1
                 _encabezado:
000e79           	.BYTE 0x3E
                 _output:
000eb7           	.BYTE 0x40
                 _aNum:
000ef7           	.BYTE 0x9
                 _m:
000f00           	.BYTE 0x1
                 _d:
000f01           	.BYTE 0x1
                 _c:
000f02           	.BYTE 0x1
                 _u:
000f03           	.BYTE 0x1
                 _aP:
000f04           	.BYTE 0x1
                 _nP:
000f05           	.BYTE 0x1
                 _status_G100:
000f06           	.BYTE 0x1
                 _timer1_G100:
000f07           	.BYTE 0x1
                 _timer2_G100:
000f08           	.BYTE 0x1
                 _card_type_G100:
000f09           	.BYTE 0x1
                 _flags_S100000C000:
000f0a           	.BYTE 0x1
                 _FatFs_G101:
000f0b           	.BYTE 0x2
                 _Fsid_G101:
000f0d           	.BYTE 0x2
                 _Drive_G101:
000f0f           	.BYTE 0x1
                 
                 	.CSEG
                 ;OPTIMIZER ADDED SUBROUTINE, CALLED 5 TIMES, CODE SIZE REDUCTION:5 WORDS
                 SUBOPT_0x0:
001b12 e0a2      	LDI  R26,LOW(2)
001b13 e0b0      	LDI  R27,0
001b14 940c 1fab 	JMP  _delay_ms
                 
                 ;OPTIMIZER ADDED SUBROUTINE, CALLED 3 TIMES, CODE SIZE REDUCTION:1 WORDS
                 SUBOPT_0x1:
001b16 940e 0192 	CALL _SendDataBitsLCD
001b18 940c 018f 	JMP  _PulseEn
                 
                 ;OPTIMIZER ADDED SUBROUTINE, CALLED 2 TIMES, CODE SIZE REDUCTION:3 WORDS
                 SUBOPT_0x2:
001b1a 81e9      	LDD  R30,Y+1
001b1b 7fe0      	ANDI R30,LOW(0xF0)
001b1c 2f0e      	MOV  R16,R30
001b1d 9502      	SWAP R16
001b1e 700f      	ANDI R16,0xF
001b1f 2fa0      	MOV  R26,R16
001b20 cff5      	RJMP SUBOPT_0x1
                 
                 ;OPTIMIZER ADDED SUBROUTINE, CALLED 2 TIMES, CODE SIZE REDUCTION:3 WORDS
                 SUBOPT_0x3:
001b21 81e9      	LDD  R30,Y+1
001b22 70ef      	ANDI R30,LOW(0xF)
001b23 2f0e      	MOV  R16,R30
001b24 2fa0      	MOV  R26,R16
001b25 940e 0192 	CALL _SendDataBitsLCD
001b27 cfea      	RJMP SUBOPT_0x0
                 
                 ;OPTIMIZER ADDED SUBROUTINE, CALLED 2 TIMES, CODE SIZE REDUCTION:4 WORDS
                 SUBOPT_0x4:
                +
001b28 81a9     +LDD R26 , Y + 1
001b29 81ba     +LDD R27 , Y + 1 + 1
001b2a 818b     +LDD R24 , Y + 1 + 2
001b2b 819c     +LDD R25 , Y + 1 + 3
                 	__GETD2S 1
001b2c 27ff      	CLR  R31
001b2d 2766      	CLR  R22
001b2e 2777      	CLR  R23
001b2f 940e 1fb9 	CALL __ADDD12
001b31 9508      	RET
                 
                 ;OPTIMIZER ADDED SUBROUTINE, CALLED 3 TIMES, CODE SIZE REDUCTION:3 WORDS
                 SUBOPT_0x5:
001b32 e0e0      	LDI  R30,LOW(0)
001b33 93e0 0912 	STS  _i,R30
001b35 93e0 0913 	STS  _i+1,R30
001b37 9508      	RET
                 
                 ;OPTIMIZER ADDED SUBROUTINE, CALLED 14 TIMES, CODE SIZE REDUCTION:23 WORDS
                 SUBOPT_0x6:
001b38 91a0 0912 	LDS  R26,_i
001b3a 91b0 0913 	LDS  R27,_i+1
001b3c 9508      	RET
                 
                 ;OPTIMIZER ADDED SUBROUTINE, CALLED 5 TIMES, CODE SIZE REDUCTION:5 WORDS
                 SUBOPT_0x7:
001b3d e1a4      	LDI  R26,LOW(_buffer)
001b3e e0b9      	LDI  R27,HIGH(_buffer)
001b3f 0fee      	LSL  R30
001b40 1fff      	ROL  R31
001b41 9508      	RET
                 
                 ;OPTIMIZER ADDED SUBROUTINE, CALLED 3 TIMES, CODE SIZE REDUCTION:7 WORDS
                 SUBOPT_0x8:
001b42 e1a2      	LDI  R26,LOW(_i)
001b43 e0b9      	LDI  R27,HIGH(_i)
001b44 91ed      	LD   R30,X+
001b45 91fd      	LD   R31,X+
001b46 9631      	ADIW R30,1
001b47 93fe      	ST   -X,R31
001b48 93ee      	ST   -X,R30
001b49 9508      	RET
                 
                 ;OPTIMIZER ADDED SUBROUTINE, CALLED 4 TIMES, CODE SIZE REDUCTION:12 WORDS
                 SUBOPT_0x9:
001b4a 940e 01ef 	CALL _EraseLCD
001b4c e0e0      	LDI  R30,LOW(0)
001b4d 93ea      	ST   -Y,R30
001b4e e0a0      	LDI  R26,LOW(0)
001b4f 940c 01f2 	JMP  _MoveCursor
                 
                 ;OPTIMIZER ADDED SUBROUTINE, CALLED 2 TIMES, CODE SIZE REDUCTION:1 WORDS
                 SUBOPT_0xA:
001b51 940e 01c4 	CALL _StringLCD
001b53 eea8      	LDI  R26,LOW(1000)
001b54 e0b3      	LDI  R27,HIGH(1000)
001b55 940c 1fab 	JMP  _delay_ms
                 
                 ;OPTIMIZER ADDED SUBROUTINE, CALLED 13 TIMES, CODE SIZE REDUCTION:69 WORDS
                 SUBOPT_0xB:
001b57 2fa0      	MOV  R26,R16
001b58 e0b0      	LDI  R27,0
001b59 50a9      	SUBI R26,LOW(-_aNum)
001b5a 4fb1      	SBCI R27,HIGH(-_aNum)
001b5b 2fe0      	MOV  R30,R16
001b5c 27ff      	CLR  R31
001b5d 2766      	CLR  R22
001b5e 2777      	CLR  R23
001b5f 9508      	RET
                 
                 ;OPTIMIZER ADDED SUBROUTINE, CALLED 2 TIMES, CODE SIZE REDUCTION:1 WORDS
                 SUBOPT_0xC:
001b60 56e8      	SUBI R30,LOW(-_Letra0*2)
001b61 4fff      	SBCI R31,HIGH(-_Letra0*2)
001b62 4f6f      	SBCI R22,BYTE3(-_Letra0*2)
                +
001b63 bf6b     +OUT RAMPZ , R22
001b64 91e6     +ELPM R30 , Z
                 	__GETBRPF 30
001b65 93ec      	ST   X,R30
001b66 9508      	RET
                 
                 ;OPTIMIZER ADDED SUBROUTINE, CALLED 3 TIMES, CODE SIZE REDUCTION:1 WORDS
                 SUBOPT_0xD:
001b67 93ba      	ST   -Y,R27
001b68 93aa      	ST   -Y,R26
001b69 931a      	ST   -Y,R17
001b6a 930a      	ST   -Y,R16
001b6b 9508      	RET
                 
                 ;OPTIMIZER ADDED SUBROUTINE, CALLED 6 TIMES, CODE SIZE REDUCTION:7 WORDS
                 SUBOPT_0xE:
001b6c e5e4      	LDI  R30,LOW(_archivo)
001b6d e0fc      	LDI  R31,HIGH(_archivo)
001b6e 93fa      	ST   -Y,R31
001b6f 93ea      	ST   -Y,R30
001b70 9508      	RET
                 
                 ;OPTIMIZER ADDED SUBROUTINE, CALLED 2 TIMES, CODE SIZE REDUCTION:3 WORDS
                 SUBOPT_0xF:
001b71 93fa      	ST   -Y,R31
001b72 93ea      	ST   -Y,R30
001b73 e4e0      	LDI  R30,LOW(64)
001b74 e0f0      	LDI  R31,HIGH(64)
001b75 93fa      	ST   -Y,R31
001b76 93ea      	ST   -Y,R30
001b77 e2a0      	LDI  R26,LOW(_br)
001b78 e0ba      	LDI  R27,HIGH(_br)
001b79 9508      	RET
                 
                 ;OPTIMIZER ADDED SUBROUTINE, CALLED 4 TIMES, CODE SIZE REDUCTION:3 WORDS
                 SUBOPT_0x10:
001b7a e5a4      	LDI  R26,LOW(_archivo)
001b7b e0bc      	LDI  R27,HIGH(_archivo)
001b7c 940c 18ed 	JMP  _f_close
                 
                 ;OPTIMIZER ADDED SUBROUTINE, CALLED 3 TIMES, CODE SIZE REDUCTION:1 WORDS
                 SUBOPT_0x11:
001b7e e1e4      	LDI  R30,LOW(_fileName)
001b7f e0fa      	LDI  R31,HIGH(_fileName)
001b80 93fa      	ST   -Y,R31
001b81 93ea      	ST   -Y,R30
001b82 9508      	RET
                 
                 ;OPTIMIZER ADDED SUBROUTINE, CALLED 11 TIMES, CODE SIZE REDUCTION:17 WORDS
                 SUBOPT_0x12:
001b83 91a0 0e74 	LDS  R26,_j
001b85 91b0 0e75 	LDS  R27,_j+1
001b87 9508      	RET
                 
                 ;OPTIMIZER ADDED SUBROUTINE, CALLED 8 TIMES, CODE SIZE REDUCTION:11 WORDS
                 SUBOPT_0x13:
001b88 dffa      	RCALL SUBOPT_0x12
001b89 e0e4      	LDI  R30,LOW(4)
001b8a e0f0      	LDI  R31,HIGH(4)
001b8b 9508      	RET
                 
                 ;OPTIMIZER ADDED SUBROUTINE, CALLED 4 TIMES, CODE SIZE REDUCTION:3 WORDS
                 SUBOPT_0x14:
001b8c 940e 2066 	CALL __DIVW21
001b8e cfae      	RJMP SUBOPT_0x7
                 
                 ;OPTIMIZER ADDED SUBROUTINE, CALLED 2 TIMES, CODE SIZE REDUCTION:6 WORDS
                 SUBOPT_0x15:
001b8f 940e 2066 	CALL __DIVW21
001b91 01df      	MOVW R26,R30
001b92 0faa      	LSL  R26
001b93 1fbb      	ROL  R27
                +
001b94 5eaa     +SUBI R26 , LOW ( - _buffer - ( 2 ) )
001b95 4fb6     +SBCI R27 , HIGH ( - _buffer - ( 2 ) )
                 	__ADDW2MN _buffer,2
001b96 916d      	LD   R22,X+
001b97 917c      	LD   R23,X
001b98 cfef      	RJMP SUBOPT_0x13
                 
                 ;OPTIMIZER ADDED SUBROUTINE, CALLED 2 TIMES, CODE SIZE REDUCTION:3 WORDS
                 SUBOPT_0x16:
001b99 0fae      	ADD  R26,R30
001b9a 1fbf      	ADC  R27,R31
001b9b 940e 20ac 	CALL __GETW1P
001b9d 01df      	MOVW R26,R30
001b9e 01fb      	MOVW R30,R22
001b9f 1bea      	SUB  R30,R26
001ba0 0bfb      	SBC  R31,R27
001ba1 9508      	RET
                 
                 ;OPTIMIZER ADDED SUBROUTINE, CALLED 2 TIMES, CODE SIZE REDUCTION:2 WORDS
                 SUBOPT_0x17:
001ba2 940e 204e 	CALL __MULW12
001ba4 01df      	MOVW R26,R30
001ba5 e0e4      	LDI  R30,LOW(4)
001ba6 e0f0      	LDI  R31,HIGH(4)
001ba7 940e 2066 	CALL __DIVW21
001ba9 9508      	RET
                 
                 ;OPTIMIZER ADDED SUBROUTINE, CALLED 3 TIMES, CODE SIZE REDUCTION:1 WORDS
                 SUBOPT_0x18:
001baa e7a4      	LDI  R26,LOW(_j)
001bab e0be      	LDI  R27,HIGH(_j)
001bac 91ed      	LD   R30,X+
001bad 91fd      	LD   R31,X+
001bae 9508      	RET
                 
                 ;OPTIMIZER ADDED SUBROUTINE, CALLED 7 TIMES, CODE SIZE REDUCTION:9 WORDS
                 SUBOPT_0x19:
001baf df88      	RCALL SUBOPT_0x6
001bb0 e1e2      	LDI  R30,LOW(18)
001bb1 e0f0      	LDI  R31,HIGH(18)
001bb2 9508      	RET
                 
                 ;OPTIMIZER ADDED SUBROUTINE, CALLED 6 TIMES, CODE SIZE REDUCTION:12 WORDS
                 SUBOPT_0x1A:
001bb3 1bea      	SUB  R30,R26
001bb4 0bfb      	SBC  R31,R27
001bb5 50e9      	SUBI R30,LOW(-_aNum)
001bb6 4ff1      	SBCI R31,HIGH(-_aNum)
001bb7 81e0      	LD   R30,Z
001bb8 9508      	RET
                 
                 ;OPTIMIZER ADDED SUBROUTINE, CALLED 2 TIMES, CODE SIZE REDUCTION:1 WORDS
                 SUBOPT_0x1B:
001bb9 27bb      	CLR  R27
001bba 940e 02b8 	CALL _getNum
001bbc 91a0 0f00 	LDS  R26,_m
001bbe 30a0      	CPI  R26,LOW(0x0)
001bbf 9508      	RET
                 
                 ;OPTIMIZER ADDED SUBROUTINE, CALLED 3 TIMES, CODE SIZE REDUCTION:1 WORDS
                 SUBOPT_0x1C:
001bc0 940e 02b8 	CALL _getNum
001bc2 cfec      	RJMP SUBOPT_0x19
                 
                 ;OPTIMIZER ADDED SUBROUTINE, CALLED 3 TIMES, CODE SIZE REDUCTION:3 WORDS
                 SUBOPT_0x1D:
001bc3 e0f0      	LDI  R31,0
001bc4 940e 200f 	CALL __CWD1
001bc6 01df      	MOVW R26,R30
001bc7 01cb      	MOVW R24,R22
001bc8 9508      	RET
                 
                 ;OPTIMIZER ADDED SUBROUTINE, CALLED 5 TIMES, CODE SIZE REDUCTION:5 WORDS
                 SUBOPT_0x1E:
                +
001bc9 81ea     +LDD R30 , Y + 2
001bca 81fb     +LDD R31 , Y + 2 + 1
001bcb 816c     +LDD R22 , Y + 2 + 2
001bcc 817d     +LDD R23 , Y + 2 + 3
                 	__GETD1S 2
001bcd 9508      	RET
                 
                 ;OPTIMIZER ADDED SUBROUTINE, CALLED 3 TIMES, CODE SIZE REDUCTION:17 WORDS
                 SUBOPT_0x1F:
001bce 940e 20b6 	CALL __GETD1P_INC
                +
001bd0 5fef     +SUBI R30 , LOW ( - 1 )
001bd1 4fff     +SBCI R31 , HIGH ( - 1 )
001bd2 4f6f     +SBCI R22 , BYTE3 ( - 1 )
001bd3 4f7f     +SBCI R23 , BYTE4 ( - 1 )
                 	__ADDD1N 1
001bd4 940e 20c0 	CALL __PUTDP1_DEC
                +
001bd6 50e1     +SUBI R30 , LOW ( 1 )
001bd7 40f0     +SBCI R31 , HIGH ( 1 )
001bd8 4060     +SBCI R22 , BYTE3 ( 1 )
001bd9 4070     +SBCI R23 , BYTE4 ( 1 )
                 	__SUBD1N 1
001bda 9508      	RET
                 
                 ;OPTIMIZER ADDED SUBROUTINE, CALLED 3 TIMES, CODE SIZE REDUCTION:1 WORDS
                 SUBOPT_0x20:
                +
001bdb 83e9     +STD Y + 1 , R30
001bdc 83fa     +STD Y + 1 + 1 , R31
001bdd 836b     +STD Y + 1 + 2 , R22
001bde 837c     +STD Y + 1 + 3 , R23
                 	__PUTD1S 1
001bdf 9508      	RET
                 
                 ;OPTIMIZER ADDED SUBROUTINE, CALLED 3 TIMES, CODE SIZE REDUCTION:1 WORDS
                 SUBOPT_0x21:
                +
001be0 81ed     +LDD R30 , Y + 5
001be1 81fe     +LDD R31 , Y + 5 + 1
001be2 816f     +LDD R22 , Y + 5 + 2
001be3 8578     +LDD R23 , Y + 5 + 3
                 	__GETD1S 5
001be4 9508      	RET
                 
                 ;OPTIMIZER ADDED SUBROUTINE, CALLED 5 TIMES, CODE SIZE REDUCTION:5 WORDS
                 SUBOPT_0x22:
                +
001be5 81a9     +LDD R26 , Y + 1
001be6 81ba     +LDD R27 , Y + 1 + 1
001be7 818b     +LDD R24 , Y + 1 + 2
001be8 819c     +LDD R25 , Y + 1 + 3
                 	__GETD2S 1
001be9 9508      	RET
                 
                 ;OPTIMIZER ADDED SUBROUTINE, CALLED 2 TIMES, CODE SIZE REDUCTION:13 WORDS
                 SUBOPT_0x23:
001bea 85e9      	LDD  R30,Y+9
001beb 85fa      	LDD  R31,Y+9+1
001bec 81a1      	LDD  R26,Z+1
001bed 93aa      	ST   -Y,R26
001bee 85ea      	LDD  R30,Y+10
001bef 85fb      	LDD  R31,Y+10+1
001bf0 96f2      	ADIW R30,50
001bf1 93fa      	ST   -Y,R31
001bf2 93ea      	ST   -Y,R30
                +
001bf3 81ec     +LDD R30 , Y + 4
001bf4 81fd     +LDD R31 , Y + 4 + 1
001bf5 816e     +LDD R22 , Y + 4 + 2
001bf6 817f     +LDD R23 , Y + 4 + 3
                 	__GETD1S 4
001bf7 940e 20de 	CALL __PUTPARD1
001bf9 e0a1      	LDI  R26,LOW(1)
001bfa 940c 0854 	JMP  _disk_write
                 
                 ;OPTIMIZER ADDED SUBROUTINE, CALLED 3 TIMES, CODE SIZE REDUCTION:1 WORDS
                 SUBOPT_0x24:
                +
001bfc a1a2     +LDD R26 , Z + 34
001bfd a1b3     +LDD R27 , Z + 34 + 1
001bfe a184     +LDD R24 , Z + 34 + 2
001bff a195     +LDD R25 , Z + 34 + 3
                 	__GETD2Z 34
001c00 9508      	RET
                 
                 ;OPTIMIZER ADDED SUBROUTINE, CALLED 4 TIMES, CODE SIZE REDUCTION:3 WORDS
                 SUBOPT_0x25:
                +
001c01 85e8     +LDD R30 , Y + 8
001c02 85f9     +LDD R31 , Y + 8 + 1
001c03 856a     +LDD R22 , Y + 8 + 2
001c04 857b     +LDD R23 , Y + 8 + 3
                 	__GETD1S 8
001c05 9508      	RET
                 
                 ;OPTIMIZER ADDED SUBROUTINE, CALLED 4 TIMES, CODE SIZE REDUCTION:9 WORDS
                 SUBOPT_0x26:
001c06 940e 20de 	CALL __PUTPARD1
001c08 e0a1      	LDI  R26,LOW(1)
001c09 940e 07f0 	CALL _disk_read
001c0b 30e0      	CPI  R30,0
001c0c 9508      	RET
                 
                 ;OPTIMIZER ADDED SUBROUTINE, CALLED 3 TIMES, CODE SIZE REDUCTION:9 WORDS
                 SUBOPT_0x27:
001c0d 93fa      	ST   -Y,R31
001c0e 93ea      	ST   -Y,R30
                +
001c0f e0a0     +LDI R26 , LOW ( 0x0 )
001c10 e0b0     +LDI R27 , HIGH ( 0x0 )
001c11 e080     +LDI R24 , BYTE3 ( 0x0 )
001c12 e090     +LDI R25 , BYTE4 ( 0x0 )
                 	__GETD2N 0x0
001c13 940c 0b2e 	JMP  _move_window_G101
                 
                 ;OPTIMIZER ADDED SUBROUTINE, CALLED 2 TIMES, CODE SIZE REDUCTION:2 WORDS
                 SUBOPT_0x28:
001c15 969e      	ADIW R26,46
                +
001c16 e0e0     +LDI R30 , LOW ( 0x0 )
001c17 e0f0     +LDI R31 , HIGH ( 0x0 )
001c18 e060     +LDI R22 , BYTE3 ( 0x0 )
001c19 e070     +LDI R23 , BYTE4 ( 0x0 )
                 	__GETD1N 0x0
001c1a 940e 20bb 	CALL __PUTDP1
001c1c 9508      	RET
                 
                 ;OPTIMIZER ADDED SUBROUTINE, CALLED 2 TIMES, CODE SIZE REDUCTION:4 WORDS
                 SUBOPT_0x29:
001c1d 96f2      	ADIW R30,50
001c1e 93fa      	ST   -Y,R31
001c1f 93ea      	ST   -Y,R30
001c20 e0e0      	LDI  R30,LOW(0)
001c21 93ea      	ST   -Y,R30
001c22 e0a0      	LDI  R26,LOW(512)
001c23 e0b2      	LDI  R27,HIGH(512)
001c24 940c 1ae6 	JMP  _memset
                 
                 ;OPTIMIZER ADDED SUBROUTINE, CALLED 2 TIMES, CODE SIZE REDUCTION:2 WORDS
                 SUBOPT_0x2A:
001c26 940e 20d9 	CALL __PUTDZ20
001c28 81e9      	LDD  R30,Y+1
001c29 81fa      	LDD  R31,Y+1+1
001c2a 96f2      	ADIW R30,50
001c2b 9508      	RET
                 
                 ;OPTIMIZER ADDED SUBROUTINE, CALLED 2 TIMES, CODE SIZE REDUCTION:2 WORDS
                 SUBOPT_0x2B:
001c2c 940e 20b0 	CALL __GETD1P
001c2e 01d0      	MOVW R26,R0
001c2f 940e 20bb 	CALL __PUTDP1
001c31 81e9      	LDD  R30,Y+1
001c32 81fa      	LDD  R31,Y+1+1
001c33 9508      	RET
                 
                 ;OPTIMIZER ADDED SUBROUTINE, CALLED 2 TIMES, CODE SIZE REDUCTION:2 WORDS
                 SUBOPT_0x2C:
                +
001c34 89a2     +LDD R26 , Z + 18
001c35 89b3     +LDD R27 , Z + 18 + 1
001c36 8984     +LDD R24 , Z + 18 + 2
001c37 8995     +LDD R25 , Z + 18 + 3
                 	__GETD2Z 18
001c38 940e 20e3 	CALL __PUTPARD2
001c3a e0a1      	LDI  R26,LOW(1)
001c3b 9508      	RET
                 
                 ;OPTIMIZER ADDED SUBROUTINE, CALLED 5 TIMES, CODE SIZE REDUCTION:5 WORDS
                 SUBOPT_0x2D:
                +
001c3c 85a8     +LDD R26 , Y + 8
001c3d 85b9     +LDD R27 , Y + 8 + 1
001c3e 858a     +LDD R24 , Y + 8 + 2
001c3f 859b     +LDD R25 , Y + 8 + 3
                 	__GETD2S 8
001c40 9508      	RET
                 
                 ;OPTIMIZER ADDED SUBROUTINE, CALLED 7 TIMES, CODE SIZE REDUCTION:27 WORDS
                 SUBOPT_0x2E:
                +
001c41 30a2     +CPI R26 , LOW ( 0x2 )
001c42 e0e0     +LDI R30 , HIGH ( 0x2 )
001c43 07be     +CPC R27 , R30
001c44 e0e0     +LDI R30 , BYTE3 ( 0x2 )
001c45 078e     +CPC R24 , R30
001c46 e0e0     +LDI R30 , BYTE4 ( 0x2 )
001c47 079e     +CPC R25 , R30
                 	__CPD2N 0x2
001c48 9508      	RET
                 
                 ;OPTIMIZER ADDED SUBROUTINE, CALLED 3 TIMES, CODE SIZE REDUCTION:1 WORDS
                 SUBOPT_0x2F:
                +
001c49 e0e1     +LDI R30 , LOW ( 0x1 )
001c4a e0f0     +LDI R31 , HIGH ( 0x1 )
001c4b e060     +LDI R22 , BYTE3 ( 0x1 )
001c4c e070     +LDI R23 , BYTE4 ( 0x1 )
                 	__GETD1N 0x1
001c4d 9508      	RET
                 
                 ;OPTIMIZER ADDED SUBROUTINE, CALLED 3 TIMES, CODE SIZE REDUCTION:5 WORDS
                 SUBOPT_0x30:
001c4e 940e 20b0 	CALL __GETD1P
                +
001c50 83ec     +STD Y + 4 , R30
001c51 83fd     +STD Y + 4 + 1 , R31
001c52 836e     +STD Y + 4 + 2 , R22
001c53 837f     +STD Y + 4 + 3 , R23
                 	__PUTD1S 4
001c54 9508      	RET
                 
                 ;OPTIMIZER ADDED SUBROUTINE, CALLED 2 TIMES, CODE SIZE REDUCTION:15 WORDS
                 SUBOPT_0x31:
001c55 85ec      	LDD  R30,Y+12
001c56 85fd      	LDD  R31,Y+12+1
001c57 93fa      	ST   -Y,R31
001c58 93ea      	ST   -Y,R30
001c59 01d9      	MOVW R26,R18
001c5a e0e0      	LDI  R30,LOW(512)
001c5b e0f2      	LDI  R31,HIGH(512)
001c5c 940e 2053 	CALL __DIVW21U
                +
001c5e 81ae     +LDD R26 , Y + 6
001c5f 81bf     +LDD R27 , Y + 6 + 1
001c60 8588     +LDD R24 , Y + 6 + 2
001c61 8599     +LDD R25 , Y + 6 + 3
                 	__GETD2S 6
001c62 2766      	CLR  R22
001c63 2777      	CLR  R23
001c64 940e 1fbe 	CALL __ADDD21
001c66 940e 0b2e 	CALL _move_window_G101
001c68 30e0      	CPI  R30,0
001c69 9508      	RET
                 
                 ;OPTIMIZER ADDED SUBROUTINE, CALLED 2 TIMES, CODE SIZE REDUCTION:2 WORDS
                 SUBOPT_0x32:
001c6a 85ac      	LDD  R26,Y+12
001c6b 85bd      	LDD  R27,Y+12+1
001c6c 96d2      	ADIW R26,50
001c6d 01f9      	MOVW R30,R18
001c6e 70f1      	ANDI R31,HIGH(0x1FF)
001c6f 0fae      	ADD  R26,R30
001c70 1fbf      	ADC  R27,R31
001c71 9508      	RET
                 
                 ;OPTIMIZER ADDED SUBROUTINE, CALLED 2 TIMES, CODE SIZE REDUCTION:3 WORDS
                 SUBOPT_0x33:
001c72 85ec      	LDD  R30,Y+12
001c73 85fd      	LDD  R31,Y+12+1
001c74 93fa      	ST   -Y,R31
001c75 93ea      	ST   -Y,R30
                +
001c76 85aa     +LDD R26 , Y + 10
001c77 85bb     +LDD R27 , Y + 10 + 1
001c78 858c     +LDD R24 , Y + 10 + 2
001c79 859d     +LDD R25 , Y + 10 + 3
                 	__GETD2S 10
001c7a 9508      	RET
                 
                 ;OPTIMIZER ADDED SUBROUTINE, CALLED 2 TIMES, CODE SIZE REDUCTION:1 WORDS
                 SUBOPT_0x34:
                +
001c7b e0e0     +LDI R30 , LOW ( 0x100 )
001c7c e0f1     +LDI R31 , HIGH ( 0x100 )
001c7d e060     +LDI R22 , BYTE3 ( 0x100 )
001c7e e070     +LDI R23 , BYTE4 ( 0x100 )
                 	__GETD1N 0x100
001c7f 940e 206b 	CALL __DIVD21U
001c81 9508      	RET
                 
                 ;OPTIMIZER ADDED SUBROUTINE, CALLED 2 TIMES, CODE SIZE REDUCTION:4 WORDS
                 SUBOPT_0x35:
                +
001c82 81ae     +LDD R26 , Y + 6
001c83 81bf     +LDD R27 , Y + 6 + 1
001c84 8588     +LDD R24 , Y + 6 + 2
001c85 8599     +LDD R25 , Y + 6 + 3
                 	__GETD2S 6
001c86 940e 1fbe 	CALL __ADDD21
001c88 940e 0b2e 	CALL _move_window_G101
001c8a 30e0      	CPI  R30,0
001c8b 9508      	RET
                 
                 ;OPTIMIZER ADDED SUBROUTINE, CALLED 2 TIMES, CODE SIZE REDUCTION:3 WORDS
                 SUBOPT_0x36:
001c8c 940e 2048 	CALL __MULB1W2U
001c8e 70f1      	ANDI R31,HIGH(0x1FF)
001c8f 85ac      	LDD  R26,Y+12
001c90 85bd      	LDD  R27,Y+12+1
001c91 96d2      	ADIW R26,50
001c92 0fae      	ADD  R26,R30
001c93 1fbf      	ADC  R27,R31
001c94 9508      	RET
                 
                 ;OPTIMIZER ADDED SUBROUTINE, CALLED 6 TIMES, CODE SIZE REDUCTION:7 WORDS
                 SUBOPT_0x37:
001c95 940e 20ac 	CALL __GETW1P
001c97 2766      	CLR  R22
001c98 2777      	CLR  R23
001c99 9508      	RET
                 
                 ;OPTIMIZER ADDED SUBROUTINE, CALLED 2 TIMES, CODE SIZE REDUCTION:1 WORDS
                 SUBOPT_0x38:
                +
001c9a e8e0     +LDI R30 , LOW ( 0x80 )
001c9b e0f0     +LDI R31 , HIGH ( 0x80 )
001c9c e060     +LDI R22 , BYTE3 ( 0x80 )
001c9d e070     +LDI R23 , BYTE4 ( 0x80 )
                 	__GETD1N 0x80
001c9e 940e 206b 	CALL __DIVD21U
001ca0 9508      	RET
                 
                 ;OPTIMIZER ADDED SUBROUTINE, CALLED 4 TIMES, CODE SIZE REDUCTION:3 WORDS
                 SUBOPT_0x39:
                +
001ca1 efef     +LDI R30 , LOW ( 0xFFFFFFFF )
001ca2 efff     +LDI R31 , HIGH ( 0xFFFFFFFF )
001ca3 ef6f     +LDI R22 , BYTE3 ( 0xFFFFFFFF )
001ca4 ef7f     +LDI R23 , BYTE4 ( 0xFFFFFFFF )
                 	__GETD1N 0xFFFFFFFF
001ca5 9508      	RET
                 
                 ;OPTIMIZER ADDED SUBROUTINE, CALLED 3 TIMES, CODE SIZE REDUCTION:1 WORDS
                 SUBOPT_0x3A:
                +
001ca6 85ad     +LDD R26 , Y + 13
001ca7 85be     +LDD R27 , Y + 13 + 1
001ca8 858f     +LDD R24 , Y + 13 + 2
001ca9 8998     +LDD R25 , Y + 13 + 3
                 	__GETD2S 13
001caa 9508      	RET
                 
                 ;OPTIMIZER ADDED SUBROUTINE, CALLED 2 TIMES, CODE SIZE REDUCTION:16 WORDS
                 SUBOPT_0x3B:
001cab 89e9      	LDD  R30,Y+17
001cac 89fa      	LDD  R31,Y+17+1
001cad 93fa      	ST   -Y,R31
001cae 93ea      	ST   -Y,R30
001caf 01d8      	MOVW R26,R16
001cb0 e0e0      	LDI  R30,LOW(512)
001cb1 e0f2      	LDI  R31,HIGH(512)
001cb2 940e 2053 	CALL __DIVW21U
                +
001cb4 81af     +LDD R26 , Y + 7
001cb5 85b8     +LDD R27 , Y + 7 + 1
001cb6 8589     +LDD R24 , Y + 7 + 2
001cb7 859a     +LDD R25 , Y + 7 + 3
                 	__GETD2S 7
001cb8 2766      	CLR  R22
001cb9 2777      	CLR  R23
001cba 940e 1fbe 	CALL __ADDD21
001cbc 940e 0b2e 	CALL _move_window_G101
001cbe 2f4e      	MOV  R20,R30
001cbf 3040      	CPI  R20,0
001cc0 9508      	RET
                 
                 ;OPTIMIZER ADDED SUBROUTINE, CALLED 2 TIMES, CODE SIZE REDUCTION:5 WORDS
                 SUBOPT_0x3C:
001cc1 89a9      	LDD  R26,Y+17
001cc2 89ba      	LDD  R27,Y+17+1
001cc3 96d2      	ADIW R26,50
001cc4 01f8      	MOVW R30,R16
001cc5 70f1      	ANDI R31,HIGH(0x1FF)
001cc6 0fea      	ADD  R30,R26
001cc7 1ffb      	ADC  R31,R27
001cc8 019f      	MOVW R18,R30
001cc9 85ed      	LDD  R30,Y+13
001cca 70e1      	ANDI R30,LOW(0x1)
001ccb 9508      	RET
                 
                 ;OPTIMIZER ADDED SUBROUTINE, CALLED 5 TIMES, CODE SIZE REDUCTION:5 WORDS
                 SUBOPT_0x3D:
                +
001ccc 85a9     +LDD R26 , Y + 9
001ccd 85ba     +LDD R27 , Y + 9 + 1
001cce 858b     +LDD R24 , Y + 9 + 2
001ccf 859c     +LDD R25 , Y + 9 + 3
                 	__GETD2S 9
001cd0 9508      	RET
                 
                 ;OPTIMIZER ADDED SUBROUTINE, CALLED 2 TIMES, CODE SIZE REDUCTION:3 WORDS
                 SUBOPT_0x3E:
001cd1 89e9      	LDD  R30,Y+17
001cd2 89fa      	LDD  R31,Y+17+1
001cd3 93fa      	ST   -Y,R31
001cd4 93ea      	ST   -Y,R30
                +
001cd5 85af     +LDD R26 , Y + 15
001cd6 89b8     +LDD R27 , Y + 15 + 1
001cd7 8989     +LDD R24 , Y + 15 + 2
001cd8 899a     +LDD R25 , Y + 15 + 3
                 	__GETD2S 15
001cd9 9508      	RET
                 
                 ;OPTIMIZER ADDED SUBROUTINE, CALLED 2 TIMES, CODE SIZE REDUCTION:5 WORDS
                 SUBOPT_0x3F:
                +
001cda 81af     +LDD R26 , Y + 7
001cdb 85b8     +LDD R27 , Y + 7 + 1
001cdc 8589     +LDD R24 , Y + 7 + 2
001cdd 859a     +LDD R25 , Y + 7 + 3
                 	__GETD2S 7
001cde 940e 1fbe 	CALL __ADDD21
001ce0 940e 0b2e 	CALL _move_window_G101
001ce2 2f4e      	MOV  R20,R30
001ce3 3040      	CPI  R20,0
001ce4 9508      	RET
                 
                 ;OPTIMIZER ADDED SUBROUTINE, CALLED 2 TIMES, CODE SIZE REDUCTION:3 WORDS
                 SUBOPT_0x40:
001ce5 940e 2048 	CALL __MULB1W2U
001ce7 70f1      	ANDI R31,HIGH(0x1FF)
001ce8 89a9      	LDD  R26,Y+17
001ce9 89ba      	LDD  R27,Y+17+1
001cea 96d2      	ADIW R26,50
001ceb 0fea      	ADD  R30,R26
001cec 1ffb      	ADC  R31,R27
001ced 9508      	RET
                 
                 ;OPTIMIZER ADDED SUBROUTINE, CALLED 5 TIMES, CODE SIZE REDUCTION:5 WORDS
                 SUBOPT_0x41:
                +
001cee 81ad     +LDD R26 , Y + 5
001cef 81be     +LDD R27 , Y + 5 + 1
001cf0 818f     +LDD R24 , Y + 5 + 2
001cf1 8598     +LDD R25 , Y + 5 + 3
                 	__GETD2S 5
001cf2 9508      	RET
                 
                 ;OPTIMIZER ADDED SUBROUTINE, CALLED 2 TIMES, CODE SIZE REDUCTION:4 WORDS
                 SUBOPT_0x42:
001cf3 85a9      	LDD  R26,Y+9
001cf4 85ba      	LDD  R27,Y+9+1
001cf5 965e      	ADIW R26,30
001cf6 940e 20b0 	CALL __GETD1P
001cf8 dff5      	RCALL SUBOPT_0x41
001cf9 940e 2104 	CALL __CPD21
001cfb 9508      	RET
                 
                 ;OPTIMIZER ADDED SUBROUTINE, CALLED 5 TIMES, CODE SIZE REDUCTION:17 WORDS
                 SUBOPT_0x43:
                +
001cfc 30a1     +CPI R26 , LOW ( 0x1 )
001cfd e0e0     +LDI R30 , HIGH ( 0x1 )
001cfe 07be     +CPC R27 , R30
001cff e0e0     +LDI R30 , BYTE3 ( 0x1 )
001d00 078e     +CPC R24 , R30
001d01 e0e0     +LDI R30 , BYTE4 ( 0x1 )
001d02 079e     +CPC R25 , R30
                 	__CPD2N 0x1
001d03 9508      	RET
                 
                 ;OPTIMIZER ADDED SUBROUTINE, CALLED 9 TIMES, CODE SIZE REDUCTION:37 WORDS
                 SUBOPT_0x44:
                +
001d04 3faf     +CPI R26 , LOW ( 0xFFFFFFFF )
001d05 efef     +LDI R30 , HIGH ( 0xFFFFFFFF )
001d06 07be     +CPC R27 , R30
001d07 efef     +LDI R30 , BYTE3 ( 0xFFFFFFFF )
001d08 078e     +CPC R24 , R30
001d09 efef     +LDI R30 , BYTE4 ( 0xFFFFFFFF )
001d0a 079e     +CPC R25 , R30
                 	__CPD2N 0xFFFFFFFF
001d0b 9508      	RET
                 
                 ;OPTIMIZER ADDED SUBROUTINE, CALLED 6 TIMES, CODE SIZE REDUCTION:7 WORDS
                 SUBOPT_0x45:
                +
001d0c 81ef     +LDD R30 , Y + 7
001d0d 85f8     +LDD R31 , Y + 7 + 1
001d0e 8569     +LDD R22 , Y + 7 + 2
001d0f 857a     +LDD R23 , Y + 7 + 3
                 	__GETD1S 7
001d10 9508      	RET
                 
                 ;OPTIMIZER ADDED SUBROUTINE, CALLED 3 TIMES, CODE SIZE REDUCTION:1 WORDS
                 SUBOPT_0x46:
                +
001d11 e0a0     +LDI R26 , LOW ( 0x0 )
001d12 e0b0     +LDI R27 , HIGH ( 0x0 )
001d13 e080     +LDI R24 , BYTE3 ( 0x0 )
001d14 e090     +LDI R25 , BYTE4 ( 0x0 )
                 	__GETD2N 0x0
001d15 9508      	RET
                 
                 ;OPTIMIZER ADDED SUBROUTINE, CALLED 2 TIMES, CODE SIZE REDUCTION:1 WORDS
                 SUBOPT_0x47:
                +
001d16 85a6     +LDD R26 , Z + 14
001d17 85b7     +LDD R27 , Z + 14 + 1
001d18 8980     +LDD R24 , Z + 14 + 2
001d19 8991     +LDD R25 , Z + 14 + 3
                 	__GETD2Z 14
001d1a cfe9      	RJMP SUBOPT_0x44
                 
                 ;OPTIMIZER ADDED SUBROUTINE, CALLED 2 TIMES, CODE SIZE REDUCTION:4 WORDS
                 SUBOPT_0x48:
001d1b 961e      	ADIW R26,14
001d1c 940e 20b6 	CALL __GETD1P_INC
                +
001d1e 5fef     +SUBI R30 , LOW ( - 1 )
001d1f 4fff     +SBCI R31 , HIGH ( - 1 )
001d20 4f6f     +SBCI R22 , BYTE3 ( - 1 )
001d21 4f7f     +SBCI R23 , BYTE4 ( - 1 )
                 	__SUBD1N -1
001d22 940e 20c0 	CALL __PUTDP1_DEC
001d24 9508      	RET
                 
                 ;OPTIMIZER ADDED SUBROUTINE, CALLED 3 TIMES, CODE SIZE REDUCTION:1 WORDS
                 SUBOPT_0x49:
001d25 940e 20d4 	CALL __PUTD1S0
001d27 9508      	RET
                 
                 ;OPTIMIZER ADDED SUBROUTINE, CALLED 3 TIMES, CODE SIZE REDUCTION:1 WORDS
                 SUBOPT_0x4A:
                +
001d28 89e8     +LDD R30 , Y + 16
001d29 89f9     +LDD R31 , Y + 16 + 1
001d2a 896a     +LDD R22 , Y + 16 + 2
001d2b 897b     +LDD R23 , Y + 16 + 3
                 	__GETD1S 16
001d2c 9508      	RET
                 
                 ;OPTIMIZER ADDED SUBROUTINE, CALLED 4 TIMES, CODE SIZE REDUCTION:3 WORDS
                 SUBOPT_0x4B:
                +
001d2d 81ac     +LDD R26 , Y + 4
001d2e 81bd     +LDD R27 , Y + 4 + 1
001d2f 818e     +LDD R24 , Y + 4 + 2
001d30 819f     +LDD R25 , Y + 4 + 3
                 	__GETD2S 4
001d31 9508      	RET
                 
                 ;OPTIMIZER ADDED SUBROUTINE, CALLED 6 TIMES, CODE SIZE REDUCTION:7 WORDS
                 SUBOPT_0x4C:
001d32 940e 20ca 	CALL __GETD1S0
001d34 9508      	RET
                 
                 ;OPTIMIZER ADDED SUBROUTINE, CALLED 3 TIMES, CODE SIZE REDUCTION:1 WORDS
                 SUBOPT_0x4D:
                +
001d35 83ec     +STD Y + 4 , R30
001d36 83fd     +STD Y + 4 + 1 , R31
001d37 836e     +STD Y + 4 + 2 , R22
001d38 837f     +STD Y + 4 + 3 , R23
                 	__PUTD1S 4
001d39 9508      	RET
                 
                 ;OPTIMIZER ADDED SUBROUTINE, CALLED 4 TIMES, CODE SIZE REDUCTION:3 WORDS
                 SUBOPT_0x4E:
001d3a 89ec      	LDD  R30,Y+20
001d3b 89fd      	LDD  R31,Y+20+1
001d3c 93fa      	ST   -Y,R31
001d3d 93ea      	ST   -Y,R30
001d3e 9508      	RET
                 
                 ;OPTIMIZER ADDED SUBROUTINE, CALLED 2 TIMES, CODE SIZE REDUCTION:1 WORDS
                 SUBOPT_0x4F:
001d3f 940e 0bff 	CALL _get_fat
                +
001d41 87ec     +STD Y + 12 , R30
001d42 87fd     +STD Y + 12 + 1 , R31
001d43 876e     +STD Y + 12 + 2 , R22
001d44 877f     +STD Y + 12 + 3 , R23
                 	__PUTD1S 12
001d45 9508      	RET
                 
                 ;OPTIMIZER ADDED SUBROUTINE, CALLED 4 TIMES, CODE SIZE REDUCTION:3 WORDS
                 SUBOPT_0x50:
                +
001d46 85ac     +LDD R26 , Y + 12
001d47 85bd     +LDD R27 , Y + 12 + 1
001d48 858e     +LDD R24 , Y + 12 + 2
001d49 859f     +LDD R25 , Y + 12 + 3
                 	__GETD2S 12
001d4a 9508      	RET
                 
                 ;OPTIMIZER ADDED SUBROUTINE, CALLED 3 TIMES, CODE SIZE REDUCTION:1 WORDS
                 SUBOPT_0x51:
                +
001d4b 85ec     +LDD R30 , Y + 12
001d4c 85fd     +LDD R31 , Y + 12 + 1
001d4d 856e     +LDD R22 , Y + 12 + 2
001d4e 857f     +LDD R23 , Y + 12 + 3
                 	__GETD1S 12
001d4f 9508      	RET
                 
                 ;OPTIMIZER ADDED SUBROUTINE, CALLED 4 TIMES, CODE SIZE REDUCTION:3 WORDS
                 SUBOPT_0x52:
                +
001d50 81ec     +LDD R30 , Y + 4
001d51 81fd     +LDD R31 , Y + 4 + 1
001d52 816e     +LDD R22 , Y + 4 + 2
001d53 817f     +LDD R23 , Y + 4 + 3
                 	__GETD1S 4
001d54 9508      	RET
                 
                 ;OPTIMIZER ADDED SUBROUTINE, CALLED 3 TIMES, CODE SIZE REDUCTION:1 WORDS
                 SUBOPT_0x53:
                +
001d55 87e8     +STD Y + 8 , R30
001d56 87f9     +STD Y + 8 + 1 , R31
001d57 876a     +STD Y + 8 + 2 , R22
001d58 877b     +STD Y + 8 + 3 , R23
                 	__PUTD1S 8
001d59 9508      	RET
                 
                 ;OPTIMIZER ADDED SUBROUTINE, CALLED 2 TIMES, CODE SIZE REDUCTION:1 WORDS
                 SUBOPT_0x54:
001d5a dff5      	RCALL SUBOPT_0x52
001d5b dee0      	RCALL SUBOPT_0x2D
001d5c 940e 20ff 	CALL __CPD12
001d5e 9508      	RET
                 
                 ;OPTIMIZER ADDED SUBROUTINE, CALLED 8 TIMES, CODE SIZE REDUCTION:11 WORDS
                 SUBOPT_0x55:
                +
001d5f e0e0     +LDI R30 , LOW ( 0x0 )
001d60 e0f0     +LDI R31 , HIGH ( 0x0 )
001d61 e060     +LDI R22 , BYTE3 ( 0x0 )
001d62 e070     +LDI R23 , BYTE4 ( 0x0 )
                 	__GETD1N 0x0
001d63 9508      	RET
                 
                 ;OPTIMIZER ADDED SUBROUTINE, CALLED 2 TIMES, CODE SIZE REDUCTION:1 WORDS
                 SUBOPT_0x56:
                +
001d64 85ea     +LDD R30 , Y + 10
001d65 85fb     +LDD R31 , Y + 10 + 1
001d66 856c     +LDD R22 , Y + 10 + 2
001d67 857d     +LDD R23 , Y + 10 + 3
                 	__GETD1S 10
001d68 940e 20de 	CALL __PUTPARD1
001d6a 9508      	RET
                 
                 ;OPTIMIZER ADDED SUBROUTINE, CALLED 3 TIMES, CODE SIZE REDUCTION:1 WORDS
                 SUBOPT_0x57:
001d6b 940e 20e8 	CALL __SWAPD12
001d6d 940e 1fc3 	CALL __SUBD12
001d6f 9508      	RET
                 
                 ;OPTIMIZER ADDED SUBROUTINE, CALLED 2 TIMES, CODE SIZE REDUCTION:2 WORDS
                 SUBOPT_0x58:
                +
001d70 85a8     +LDD R26 , Y + 8
001d71 85b9     +LDD R27 , Y + 8 + 1
001d72 9614     +ADIW R26 , 4
001d73 93ed     +ST X + , R30
001d74 93fc     +ST X , R31
                 	__PUTW1SNS 8,4
001d75 85a8      	LDD  R26,Y+8
001d76 85b9      	LDD  R27,Y+8+1
001d77 9508      	RET
                 
                 ;OPTIMIZER ADDED SUBROUTINE, CALLED 2 TIMES, CODE SIZE REDUCTION:1 WORDS
                 SUBOPT_0x59:
001d78 940e 20b0 	CALL __GETD1P
                +
001d7a 83ea     +STD Y + 2 , R30
001d7b 83fb     +STD Y + 2 + 1 , R31
001d7c 836c     +STD Y + 2 + 2 , R22
001d7d 837d     +STD Y + 2 + 3 , R23
                 	__PUTD1S 2
001d7e 9508      	RET
                 
                 ;OPTIMIZER ADDED SUBROUTINE, CALLED 6 TIMES, CODE SIZE REDUCTION:7 WORDS
                 SUBOPT_0x5A:
                +
001d7f 81aa     +LDD R26 , Y + 2
001d80 81bb     +LDD R27 , Y + 2 + 1
001d81 818c     +LDD R24 , Y + 2 + 2
001d82 819d     +LDD R25 , Y + 2 + 3
                 	__GETD2S 2
001d83 9508      	RET
                 
                 ;OPTIMIZER ADDED SUBROUTINE, CALLED 24 TIMES, CODE SIZE REDUCTION:43 WORDS
                 SUBOPT_0x5B:
001d84 85a8      	LDD  R26,Y+8
001d85 85b9      	LDD  R27,Y+8+1
001d86 940e 20ac 	CALL __GETW1P
001d88 9508      	RET
                 
                 ;OPTIMIZER ADDED SUBROUTINE, CALLED 2 TIMES, CODE SIZE REDUCTION:3 WORDS
                 SUBOPT_0x5C:
001d89 967e      	ADIW R30,30
001d8a 01df      	MOVW R26,R30
001d8b 940e 20b0 	CALL __GETD1P
001d8d dff1      	RCALL SUBOPT_0x5A
001d8e 940e 2104 	CALL __CPD21
001d90 9508      	RET
                 
                 ;OPTIMIZER ADDED SUBROUTINE, CALLED 2 TIMES, CODE SIZE REDUCTION:5 WORDS
                 SUBOPT_0x5D:
001d91 de37      	RCALL SUBOPT_0x1E
                +
001d92 85a8     +LDD R26 , Y + 8
001d93 85b9     +LDD R27 , Y + 8 + 1
001d94 961a     +ADIW R26 , 10
001d95 940e 20bb+CALL __PUTDP1
                 	__PUTD1SNS 8,10
001d97 cfec      	RJMP SUBOPT_0x5B
                 
                 ;OPTIMIZER ADDED SUBROUTINE, CALLED 7 TIMES, CODE SIZE REDUCTION:9 WORDS
                 SUBOPT_0x5E:
001d98 2766      	CLR  R22
001d99 2777      	CLR  R23
001d9a 940e 1fb9 	CALL __ADDD12
001d9c 9508      	RET
                 
                 ;OPTIMIZER ADDED SUBROUTINE, CALLED 2 TIMES, CODE SIZE REDUCTION:1 WORDS
                 SUBOPT_0x5F:
                +
001d9d 85a8     +LDD R26 , Y + 8
001d9e 85b9     +LDD R27 , Y + 8 + 1
001d9f 961e     +ADIW R26 , 14
001da0 940e 20bb+CALL __PUTDP1
                 	__PUTD1SNS 8,14
001da2 9508      	RET
                 
                 ;OPTIMIZER ADDED SUBROUTINE, CALLED 2 TIMES, CODE SIZE REDUCTION:8 WORDS
                 SUBOPT_0x60:
001da3 70ef      	ANDI R30,LOW(0xF)
001da4 70f0      	ANDI R31,HIGH(0xF)
001da5 0fee      	LSL  R30
001da6 940e 1fee 	CALL __LSLW4
001da8 0fea      	ADD  R30,R26
001da9 1ffb      	ADC  R31,R27
                +
001daa 85a8     +LDD R26 , Y + 8
001dab 85b9     +LDD R27 , Y + 8 + 1
001dac 9652     +ADIW R26 , 18
001dad 93ed     +ST X + , R30
001dae 93fc     +ST X , R31
                 	__PUTW1SNS 8,18
001daf e0e0      	LDI  R30,LOW(0)
001db0 9508      	RET
                 
                 ;OPTIMIZER ADDED SUBROUTINE, CALLED 3 TIMES, CODE SIZE REDUCTION:1 WORDS
                 SUBOPT_0x61:
001db1 940e 20b0 	CALL __GETD1P
001db3 940e 20f5 	CALL __CPD10
001db5 9508      	RET
                 
                 ;OPTIMIZER ADDED SUBROUTINE, CALLED 2 TIMES, CODE SIZE REDUCTION:3 WORDS
                 SUBOPT_0x62:
001db6 93fa      	ST   -Y,R31
001db7 93ea      	ST   -Y,R30
001db8 85ea      	LDD  R30,Y+10
001db9 85fb      	LDD  R31,Y+10+1
                +
001dba 85a2     +LDD R26 , Z + 10
001dbb 85b3     +LDD R27 , Z + 10 + 1
001dbc 8584     +LDD R24 , Z + 10 + 2
001dbd 8595     +LDD R25 , Z + 10 + 3
                 	__GETD2Z 10
001dbe 9508      	RET
                 
                 ;OPTIMIZER ADDED SUBROUTINE, CALLED 3 TIMES, CODE SIZE REDUCTION:1 WORDS
                 SUBOPT_0x63:
                +
001dbf 83eb     +STD Y + 3 , R30
001dc0 83fc     +STD Y + 3 + 1 , R31
001dc1 836d     +STD Y + 3 + 2 , R22
001dc2 837e     +STD Y + 3 + 3 , R23
                 	__PUTD1S 3
001dc3 9508      	RET
                 
                 ;OPTIMIZER ADDED SUBROUTINE, CALLED 5 TIMES, CODE SIZE REDUCTION:5 WORDS
                 SUBOPT_0x64:
                +
001dc4 81ab     +LDD R26 , Y + 3
001dc5 81bc     +LDD R27 , Y + 3 + 1
001dc6 818d     +LDD R24 , Y + 3 + 2
001dc7 819e     +LDD R25 , Y + 3 + 3
                 	__GETD2S 3
001dc8 9508      	RET
                 
                 ;OPTIMIZER ADDED SUBROUTINE, CALLED 2 TIMES, CODE SIZE REDUCTION:1 WORDS
                 SUBOPT_0x65:
001dc9 dff5      	RCALL SUBOPT_0x63
                +
001dca 81eb     +LDD R30 , Y + 3
001dcb 81fc     +LDD R31 , Y + 3 + 1
001dcc 816d     +LDD R22 , Y + 3 + 2
001dcd 817e     +LDD R23 , Y + 3 + 3
                 	__GETD1S 3
001dce 9508      	RET
                 
                 ;OPTIMIZER ADDED SUBROUTINE, CALLED 2 TIMES, CODE SIZE REDUCTION:1 WORDS
                 SUBOPT_0x66:
001dcf 93fa      	ST   -Y,R31
001dd0 93ea      	ST   -Y,R30
001dd1 df1c      	RCALL SUBOPT_0x41
001dd2 940c 0e3d 	JMP  _clust2sect
                 
                 ;OPTIMIZER ADDED SUBROUTINE, CALLED 2 TIMES, CODE SIZE REDUCTION:9 WORDS
                 SUBOPT_0x67:
001dd4 93ba      	ST   -Y,R27
001dd5 93aa      	ST   -Y,R26
001dd6 940e 210b 	CALL __SAVELOCR4
001dd8 81ec      	LDD  R30,Y+4
001dd9 81fd      	LDD  R31,Y+4+1
001dda 93fa      	ST   -Y,R31
001ddb 93ea      	ST   -Y,R30
001ddc e0a0      	LDI  R26,LOW(0)
001ddd e0b0      	LDI  R27,0
001dde 940e 0e75 	CALL _dir_seek_G101
001de0 2f0e      	MOV  R16,R30
001de1 3000      	CPI  R16,0
001de2 9508      	RET
                 
                 ;OPTIMIZER ADDED SUBROUTINE, CALLED 3 TIMES, CODE SIZE REDUCTION:25 WORDS
                 SUBOPT_0x68:
001de3 81ac      	LDD  R26,Y+4
001de4 81bd      	LDD  R27,Y+4+1
001de5 940e 20ac 	CALL __GETW1P
001de7 93fa      	ST   -Y,R31
001de8 93ea      	ST   -Y,R30
001de9 81ee      	LDD  R30,Y+6
001dea 81ff      	LDD  R31,Y+6+1
                +
001deb 85a6     +LDD R26 , Z + 14
001dec 85b7     +LDD R27 , Z + 14 + 1
001ded 8980     +LDD R24 , Z + 14 + 2
001dee 8991     +LDD R25 , Z + 14 + 3
                 	__GETD2Z 14
001def 940e 0b2e 	CALL _move_window_G101
001df1 2f0e      	MOV  R16,R30
001df2 3000      	CPI  R16,0
001df3 9508      	RET
                 
                 ;OPTIMIZER ADDED SUBROUTINE, CALLED 2 TIMES, CODE SIZE REDUCTION:5 WORDS
                 SUBOPT_0x69:
001df4 933a      	ST   -Y,R19
001df5 932a      	ST   -Y,R18
001df6 81ee      	LDD  R30,Y+6
001df7 81ff      	LDD  R31,Y+6+1
001df8 89a4      	LDD  R26,Z+20
001df9 89b5      	LDD  R27,Z+21
001dfa 93ba      	ST   -Y,R27
001dfb 93aa      	ST   -Y,R26
001dfc e0ab      	LDI  R26,LOW(11)
001dfd e0b0      	LDI  R27,0
001dfe 9508      	RET
                 
                 ;OPTIMIZER ADDED SUBROUTINE, CALLED 3 TIMES, CODE SIZE REDUCTION:1 WORDS
                 SUBOPT_0x6A:
001dff 940e 20ac 	CALL __GETW1P
001e01 83ee      	STD  Y+6,R30
001e02 83ff      	STD  Y+6+1,R31
001e03 9508      	RET
                 
                 ;OPTIMIZER ADDED SUBROUTINE, CALLED 3 TIMES, CODE SIZE REDUCTION:1 WORDS
                 SUBOPT_0x6B:
001e04 85e8      	LDD  R30,Y+8
001e05 85f9      	LDD  R31,Y+8+1
001e06 81ae      	LDD  R26,Y+6
001e07 81bf      	LDD  R27,Y+6+1
001e08 9508      	RET
                 
                 ;OPTIMIZER ADDED SUBROUTINE, CALLED 2 TIMES, CODE SIZE REDUCTION:6 WORDS
                 SUBOPT_0x6C:
001e09 85e8      	LDD  R30,Y+8
001e0a 85f9      	LDD  R31,Y+8+1
001e0b 9631      	ADIW R30,1
001e0c 87e8      	STD  Y+8,R30
001e0d 87f9      	STD  Y+8+1,R31
001e0e 9731      	SBIW R30,1
001e0f 81ae      	LDD  R26,Y+6
001e10 81bf      	LDD  R27,Y+6+1
001e11 0fae      	ADD  R26,R30
001e12 1fbf      	ADC  R27,R31
001e13 911c      	LD   R17,X
001e14 9508      	RET
                 
                 ;OPTIMIZER ADDED SUBROUTINE, CALLED 3 TIMES, CODE SIZE REDUCTION:5 WORDS
                 SUBOPT_0x6D:
001e15 2fe5      	MOV  R30,R21
001e16 5f5f      	SUBI R21,-1
001e17 e0f0      	LDI  R31,0
001e18 0fe3      	ADD  R30,R19
001e19 1ff4      	ADC  R31,R20
001e1a 8310      	ST   Z,R17
001e1b 9508      	RET
                 
                 ;OPTIMIZER ADDED SUBROUTINE, CALLED 2 TIMES, CODE SIZE REDUCTION:2 WORDS
                 SUBOPT_0x6E:
001e1c 0fea      	ADD  R30,R26
001e1d 1ffb      	ADC  R31,R27
001e1e 85ab      	LDD  R26,Y+11
001e1f 85bc      	LDD  R27,Y+11+1
001e20 93ed      	ST   X+,R30
001e21 93fc      	ST   X,R31
001e22 3211      	CPI  R17,33
001e23 9508      	RET
                 
                 ;OPTIMIZER ADDED SUBROUTINE, CALLED 4 TIMES, CODE SIZE REDUCTION:3 WORDS
                 SUBOPT_0x6F:
001e24 df3a      	RCALL SUBOPT_0x55
001e25 940e 20bb 	CALL __PUTDP1
001e27 9508      	RET
                 
                 ;OPTIMIZER ADDED SUBROUTINE, CALLED 2 TIMES, CODE SIZE REDUCTION:1 WORDS
                 SUBOPT_0x70:
                +
001e28 81ae     +LDD R26 , Y + 6
001e29 81bf     +LDD R27 , Y + 6 + 1
001e2a 9616     +ADIW R26 , 6
001e2b 940e 20bb+CALL __PUTDP1
                 	__PUTD1SNS 6,6
001e2d 9508      	RET
                 
                 ;OPTIMIZER ADDED SUBROUTINE, CALLED 4 TIMES, CODE SIZE REDUCTION:3 WORDS
                 SUBOPT_0x71:
001e2e 81ee      	LDD  R30,Y+6
001e2f 81ff      	LDD  R31,Y+6+1
001e30 93fa      	ST   -Y,R31
001e31 93ea      	ST   -Y,R30
001e32 9508      	RET
                 
                 ;OPTIMIZER ADDED SUBROUTINE, CALLED 6 TIMES, CODE SIZE REDUCTION:7 WORDS
                 SUBOPT_0x72:
001e33 e0e0      	LDI  R30,LOW(0)
001e34 e0f0      	LDI  R31,HIGH(0)
001e35 93ed      	ST   X+,R30
001e36 93fc      	ST   X,R31
001e37 9508      	RET
                 
                 ;OPTIMIZER ADDED SUBROUTINE, CALLED 3 TIMES, CODE SIZE REDUCTION:3 WORDS
                 SUBOPT_0x73:
                +
001e38 2fa1     +MOV R26 , R17
001e39 2fb2     +MOV R27 , R18
                 	__GETW2R 17,18
001e3a 9654      	ADIW R26,20
001e3b ce59      	RJMP SUBOPT_0x37
                 
                 ;OPTIMIZER ADDED SUBROUTINE, CALLED 3 TIMES, CODE SIZE REDUCTION:3 WORDS
                 SUBOPT_0x74:
                +
001e3c 2fa1     +MOV R26 , R17
001e3d 2fb2     +MOV R27 , R18
                 	__GETW2R 17,18
001e3e 965a      	ADIW R26,26
001e3f 940e 20ac 	CALL __GETW1P
001e41 9508      	RET
                 
                 ;OPTIMIZER ADDED SUBROUTINE, CALLED 3 TIMES, CODE SIZE REDUCTION:1 WORDS
                 SUBOPT_0x75:
001e42 2766      	CLR  R22
001e43 2777      	CLR  R23
001e44 940e 1fcd 	CALL __ORD12
001e46 9508      	RET
                 
                 ;OPTIMIZER ADDED SUBROUTINE, CALLED 2 TIMES, CODE SIZE REDUCTION:4 WORDS
                 SUBOPT_0x76:
001e47 96f2      	ADIW R30,50
001e48 50e2      	SUBI R30,LOW(-510)
001e49 4ffe      	SBCI R31,HIGH(-510)
001e4a 01df      	MOVW R26,R30
001e4b 940e 20ac 	CALL __GETW1P
001e4d 35e5      	CPI  R30,LOW(0xAA55)
001e4e eaaa      	LDI  R26,HIGH(0xAA55)
001e4f 07fa      	CPC  R31,R26
001e50 9508      	RET
                 
                 ;OPTIMIZER ADDED SUBROUTINE, CALLED 2 TIMES, CODE SIZE REDUCTION:8 WORDS
                 SUBOPT_0x77:
001e51 940e 20b0 	CALL __GETD1P
                +
001e53 7fef     +ANDI R30 , LOW ( 0xFFFFFF )
001e54 7fff     +ANDI R31 , HIGH ( 0xFFFFFF )
001e55 7f6f     +ANDI R22 , BYTE3 ( 0xFFFFFF )
001e56 7070     +ANDI R23 , BYTE4 ( 0xFFFFFF )
                 	__ANDD1N 0xFFFFFF
                +
001e57 34e6     +CPI R30 , LOW ( 0x544146 )
001e58 e4a1     +LDI R26 , HIGH ( 0x544146 )
001e59 07fa     +CPC R31 , R26
001e5a e5a4     +LDI R26 , BYTE3 ( 0x544146 )
001e5b 076a     +CPC R22 , R26
001e5c e0a0     +LDI R26 , BYTE4 ( 0x544146 )
001e5d 077a     +CPC R23 , R26
                 	__CPD1N 0x544146
001e5e 9508      	RET
                 
                 ;OPTIMIZER ADDED SUBROUTINE, CALLED 2 TIMES, CODE SIZE REDUCTION:2 WORDS
                 SUBOPT_0x78:
001e5f e0ab      	LDI  R26,LOW(_FatFs_G101)
001e60 e0bf      	LDI  R27,HIGH(_FatFs_G101)
001e61 e0f0      	LDI  R31,0
001e62 0fee      	LSL  R30
001e63 1fff      	ROL  R31
001e64 0fae      	ADD  R26,R30
001e65 1fbf      	ADC  R27,R31
001e66 9508      	RET
                 
                 ;OPTIMIZER ADDED SUBROUTINE, CALLED 3 TIMES, CODE SIZE REDUCTION:1 WORDS
                 SUBOPT_0x79:
001e67 81ed      	LDD  R30,Y+5
001e68 81fe      	LDD  R31,Y+5+1
001e69 93fa      	ST   -Y,R31
001e6a 93ea      	ST   -Y,R30
001e6b 9508      	RET
                 
                 ;OPTIMIZER ADDED SUBROUTINE, CALLED 3 TIMES, CODE SIZE REDUCTION:1 WORDS
                 SUBOPT_0x7A:
                +
001e6c 8be9     +STD Y + 17 , R30
001e6d 8bfa     +STD Y + 17 + 1 , R31
001e6e 8b6b     +STD Y + 17 + 2 , R22
001e6f 8b7c     +STD Y + 17 + 3 , R23
                 	__PUTD1S 17
001e70 9508      	RET
                 
                 ;OPTIMIZER ADDED SUBROUTINE, CALLED 4 TIMES, CODE SIZE REDUCTION:3 WORDS
                 SUBOPT_0x7B:
                +
001e71 89e9     +LDD R30 , Y + 17
001e72 89fa     +LDD R31 , Y + 17 + 1
001e73 896b     +LDD R22 , Y + 17 + 2
001e74 897c     +LDD R23 , Y + 17 + 3
                 	__GETD1S 17
001e75 9508      	RET
                 
                 ;OPTIMIZER ADDED SUBROUTINE, CALLED 2 TIMES, CODE SIZE REDUCTION:1 WORDS
                 SUBOPT_0x7C:
001e76 81ad      	LDD  R26,Y+5
001e77 81be      	LDD  R27,Y+5+1
001e78 5ca0      	SUBI R26,LOW(-64)
001e79 4fbf      	SBCI R27,HIGH(-64)
001e7a 940e 20ac 	CALL __GETW1P
001e7c 9508      	RET
                 
                 ;OPTIMIZER ADDED SUBROUTINE, CALLED 2 TIMES, CODE SIZE REDUCTION:1 WORDS
                 SUBOPT_0x7D:
                +
001e7d 89ad     +LDD R26 , Y + 21
001e7e 89be     +LDD R27 , Y + 21 + 1
001e7f 898f     +LDD R24 , Y + 21 + 2
001e80 8d98     +LDD R25 , Y + 21 + 3
                 	__GETD2S 21
001e81 cf16      	RJMP SUBOPT_0x5E
                 
                 ;OPTIMIZER ADDED SUBROUTINE, CALLED 2 TIMES, CODE SIZE REDUCTION:2 WORDS
                 SUBOPT_0x7E:
001e82 81ed      	LDD  R30,Y+5
001e83 81fe      	LDD  R31,Y+5+1
001e84 85a0      	LDD  R26,Z+8
001e85 85b1      	LDD  R27,Z+9
001e86 01fd      	MOVW R30,R26
001e87 940e 1ff7 	CALL __LSRW4
001e89 9508      	RET
                 
                 ;OPTIMIZER ADDED SUBROUTINE, CALLED 2 TIMES, CODE SIZE REDUCTION:3 WORDS
                 SUBOPT_0x7F:
001e8a 81ed      	LDD  R30,Y+5
001e8b 81fe      	LDD  R31,Y+5+1
001e8c dd6f      	RCALL SUBOPT_0x24
001e8d dfe3      	RCALL SUBOPT_0x7B
001e8e 940e 1fb9 	CALL __ADDD12
001e90 9508      	RET
                 
                 ;OPTIMIZER ADDED SUBROUTINE, CALLED 3 TIMES, CODE SIZE REDUCTION:3 WORDS
                 SUBOPT_0x80:
001e91 91ed      	LD   R30,X+
001e92 91fd      	LD   R31,X+
001e93 9631      	ADIW R30,1
001e94 93fe      	ST   -X,R31
001e95 93ee      	ST   -X,R30
001e96 9508      	RET
                 
                 ;OPTIMIZER ADDED SUBROUTINE, CALLED 2 TIMES, CODE SIZE REDUCTION:1 WORDS
                 SUBOPT_0x81:
001e97 e0a0      	LDI  R26,LOW(0)
001e98 e0b0      	LDI  R27,HIGH(0)
001e99 83a0      	STD  Z+0,R26
001e9a 83b1      	STD  Z+1,R27
                +
001e9b 2fe1     +MOV R30 , R17
001e9c 2ff2     +MOV R31 , R18
                 	__GETW1R 17,18
001e9d 9508      	RET
                 
                 ;OPTIMIZER ADDED SUBROUTINE, CALLED 9 TIMES, CODE SIZE REDUCTION:13 WORDS
                 SUBOPT_0x82:
001e9e 8da9      	LDD  R26,Y+25
001e9f 8dba      	LDD  R27,Y+25+1
001ea0 940e 20ac 	CALL __GETW1P
001ea2 9508      	RET
                 
                 ;OPTIMIZER ADDED SUBROUTINE, CALLED 4 TIMES, CODE SIZE REDUCTION:3 WORDS
                 SUBOPT_0x83:
001ea3 93fa      	ST   -Y,R31
001ea4 93ea      	ST   -Y,R30
001ea5 8deb      	LDD  R30,Y+27
001ea6 8dfc      	LDD  R31,Y+27+1
001ea7 9508      	RET
                 
                 ;OPTIMIZER ADDED SUBROUTINE, CALLED 3 TIMES, CODE SIZE REDUCTION:5 WORDS
                 SUBOPT_0x84:
001ea8 81a2      	LDD  R26,Z+2
001ea9 81b3      	LDD  R27,Z+3
001eaa 940e 13c5 	CALL _validate_G101
001eac 2f0e      	MOV  R16,R30
001ead 3000      	CPI  R16,0
001eae 9508      	RET
                 
                 ;OPTIMIZER ADDED SUBROUTINE, CALLED 3 TIMES, CODE SIZE REDUCTION:5 WORDS
                 SUBOPT_0x85:
001eaf 8de9      	LDD  R30,Y+25
001eb0 8dfa      	LDD  R31,Y+25+1
                +
001eb1 81a6     +LDD R26 , Z + 6
001eb2 81b7     +LDD R27 , Z + 6 + 1
001eb3 8580     +LDD R24 , Z + 6 + 2
001eb4 8591     +LDD R25 , Z + 6 + 3
                 	__GETD2Z 6
001eb5 9508      	RET
                 
                 ;OPTIMIZER ADDED SUBROUTINE, CALLED 2 TIMES, CODE SIZE REDUCTION:1 WORDS
                 SUBOPT_0x86:
                +
001eb6 83ef     +STD Y + 7 , R30
001eb7 87f8     +STD Y + 7 + 1 , R31
001eb8 8769     +STD Y + 7 + 2 , R22
001eb9 877a     +STD Y + 7 + 3 , R23
                 	__PUTD1S 7
001eba ce51      	RJMP SUBOPT_0x45
                 
                 ;OPTIMIZER ADDED SUBROUTINE, CALLED 4 TIMES, CODE SIZE REDUCTION:3 WORDS
                 SUBOPT_0x87:
                +
001ebb 89a2     +LDD R26 , Z + 18
001ebc 89b3     +LDD R27 , Z + 18 + 1
001ebd 8984     +LDD R24 , Z + 18 + 2
001ebe 8995     +LDD R25 , Z + 18 + 3
                 	__GETD2Z 18
001ebf 9508      	RET
                 
                 ;OPTIMIZER ADDED SUBROUTINE, CALLED 6 TIMES, CODE SIZE REDUCTION:17 WORDS
                 SUBOPT_0x88:
001ec0 8da9      	LDD  R26,Y+25
001ec1 8dba      	LDD  R27,Y+25+1
001ec2 9614      	ADIW R26,4
001ec3 91ec      	LD   R30,X
001ec4 68e0      	ORI  R30,0x80
001ec5 93ec      	ST   X,R30
001ec6 9508      	RET
                 
                 ;OPTIMIZER ADDED SUBROUTINE, CALLED 5 TIMES, CODE SIZE REDUCTION:5 WORDS
                 SUBOPT_0x89:
                +
001ec7 87eb     +STD Y + 11 , R30
001ec8 87fc     +STD Y + 11 + 1 , R31
001ec9 876d     +STD Y + 11 + 2 , R22
001eca 877e     +STD Y + 11 + 3 , R23
                 	__PUTD1S 11
001ecb 9508      	RET
                 
                 ;OPTIMIZER ADDED SUBROUTINE, CALLED 8 TIMES, CODE SIZE REDUCTION:11 WORDS
                 SUBOPT_0x8A:
                +
001ecc 85eb     +LDD R30 , Y + 11
001ecd 85fc     +LDD R31 , Y + 11 + 1
001ece 856d     +LDD R22 , Y + 11 + 2
001ecf 857e     +LDD R23 , Y + 11 + 3
                 	__GETD1S 11
001ed0 9508      	RET
                 
                 ;OPTIMIZER ADDED SUBROUTINE, CALLED 3 TIMES, CODE SIZE REDUCTION:1 WORDS
                 SUBOPT_0x8B:
001ed1 8de9      	LDD  R30,Y+25
001ed2 8dfa      	LDD  R31,Y+25+1
001ed3 81e5      	LDD  R30,Z+5
001ed4 e0f0      	LDI  R31,0
001ed5 9508      	RET
                 
                 ;OPTIMIZER ADDED SUBROUTINE, CALLED 3 TIMES, CODE SIZE REDUCTION:1 WORDS
                 SUBOPT_0x8C:
                +
001ed6 85ab     +LDD R26 , Y + 11
001ed7 85bc     +LDD R27 , Y + 11 + 1
001ed8 858d     +LDD R24 , Y + 11 + 2
001ed9 859e     +LDD R25 , Y + 11 + 3
                 	__GETD2S 11
001eda 9508      	RET
                 
                 ;OPTIMIZER ADDED SUBROUTINE, CALLED 2 TIMES, CODE SIZE REDUCTION:3 WORDS
                 SUBOPT_0x8D:
001edb e0e0      	LDI  R30,LOW(512)
001edc e0f2      	LDI  R31,HIGH(512)
001edd 940e 2053 	CALL __DIVW21U
                +
001edf 2f3e     +MOV R19 , R30
001ee0 2f4f     +MOV R20 , R31
                 	__PUTW1R 19,20
001ee1 2e03      	MOV  R0,R19
001ee2 2a04      	OR   R0,R20
001ee3 9508      	RET
                 
                 ;OPTIMIZER ADDED SUBROUTINE, CALLED 3 TIMES, CODE SIZE REDUCTION:9 WORDS
                 SUBOPT_0x8E:
001ee4 8de9      	LDD  R30,Y+25
001ee5 8dfa      	LDD  R31,Y+25+1
                +
001ee6 89a6     +LDD R26 , Z + 22
001ee7 89b7     +LDD R27 , Z + 22 + 1
001ee8 8d80     +LDD R24 , Z + 22 + 2
001ee9 8d91     +LDD R25 , Z + 22 + 3
                 	__GETD2Z 22
001eea cfe1      	RJMP SUBOPT_0x8A
                 
                 ;OPTIMIZER ADDED SUBROUTINE, CALLED 2 TIMES, CODE SIZE REDUCTION:3 WORDS
                 SUBOPT_0x8F:
001eeb 940e 1fc8 	CALL __SUBD21
                +
001eed 2fe3     +MOV R30 , R19
001eee 2ff4     +MOV R31 , R20
                 	__GETW1R 19,20
001eef 2766      	CLR  R22
001ef0 2777      	CLR  R23
001ef1 940e 2104 	CALL __CPD21
001ef3 9508      	RET
                 
                 ;OPTIMIZER ADDED SUBROUTINE, CALLED 2 TIMES, CODE SIZE REDUCTION:3 WORDS
                 SUBOPT_0x90:
001ef4 940e 1fc8 	CALL __SUBD21
                +
001ef6 e0e0     +LDI R30 , LOW ( 0x200 )
001ef7 e0f2     +LDI R31 , HIGH ( 0x200 )
001ef8 e060     +LDI R22 , BYTE3 ( 0x200 )
001ef9 e070     +LDI R23 , BYTE4 ( 0x200 )
                 	__GETD1N 0x200
001efa 940e 2028 	CALL __MULD12U
001efc 9508      	RET
                 
                 ;OPTIMIZER ADDED SUBROUTINE, CALLED 2 TIMES, CODE SIZE REDUCTION:1 WORDS
                 SUBOPT_0x91:
001efd 93fa      	ST   -Y,R31
001efe 93ea      	ST   -Y,R30
001eff e0a0      	LDI  R26,LOW(512)
001f00 e0b2      	LDI  R27,HIGH(512)
001f01 940c 1ad4 	JMP  _memcpy
                 
                 ;OPTIMIZER ADDED SUBROUTINE, CALLED 2 TIMES, CODE SIZE REDUCTION:7 WORDS
                 SUBOPT_0x92:
001f03 9615      	ADIW R26,5
001f04 91ec      	LD   R30,X
001f05 0fe3      	ADD  R30,R19
001f06 93ec      	ST   X,R30
                +
001f07 2fe3     +MOV R30 , R19
001f08 2ff4     +MOV R31 , R20
                 	__GETW1R 19,20
001f09 0fee      	LSL  R30
001f0a 1fff      	ROL  R31
001f0b 2ffe      	MOV  R31,R30
001f0c e0e0      	LDI  R30,0
                +
001f0d 2f1e     +MOV R17 , R30
001f0e 2f2f     +MOV R18 , R31
                 	__PUTW1R 17,18
001f0f 9508      	RET
                 
                 ;OPTIMIZER ADDED SUBROUTINE, CALLED 2 TIMES, CODE SIZE REDUCTION:2 WORDS
                 SUBOPT_0x93:
001f10 81e1      	LDD  R30,Z+1
001f11 93ea      	ST   -Y,R30
001f12 8dea      	LDD  R30,Y+26
001f13 8dfb      	LDD  R31,Y+26+1
001f14 96b0      	ADIW R30,32
001f15 93fa      	ST   -Y,R31
001f16 93ea      	ST   -Y,R30
001f17 9508      	RET
                 
                 ;OPTIMIZER ADDED SUBROUTINE, CALLED 3 TIMES, CODE SIZE REDUCTION:13 WORDS
                 SUBOPT_0x94:
                +
001f18 89a6     +LDD R26 , Z + 22
001f19 89b7     +LDD R27 , Z + 22 + 1
001f1a 8d80     +LDD R24 , Z + 22 + 2
001f1b 8d91     +LDD R25 , Z + 22 + 3
                 	__GETD2Z 22
001f1c 940e 20e3 	CALL __PUTPARD2
001f1e e0a1      	LDI  R26,LOW(1)
001f1f 940e 0854 	CALL _disk_write
001f21 30e0      	CPI  R30,0
001f22 9508      	RET
                 
                 ;OPTIMIZER ADDED SUBROUTINE, CALLED 4 TIMES, CODE SIZE REDUCTION:3 WORDS
                 SUBOPT_0x95:
001f23 9614      	ADIW R26,4
001f24 91ec      	LD   R30,X
001f25 7bef      	ANDI R30,0xBF
001f26 93ec      	ST   X,R30
001f27 9508      	RET
                 
                 ;OPTIMIZER ADDED SUBROUTINE, CALLED 4 TIMES, CODE SIZE REDUCTION:3 WORDS
                 SUBOPT_0x96:
001f28 9616      	ADIW R26,6
001f29 940e 20ac 	CALL __GETW1P
001f2b 70f1      	ANDI R31,HIGH(0x1FF)
001f2c 9508      	RET
                 
                 ;OPTIMIZER ADDED SUBROUTINE, CALLED 2 TIMES, CODE SIZE REDUCTION:1 WORDS
                 SUBOPT_0x97:
001f2d e0a0      	LDI  R26,LOW(512)
001f2e e0b2      	LDI  R27,HIGH(512)
001f2f 1bae      	SUB  R26,R30
001f30 0bbf      	SBC  R27,R31
                +
001f31 2f1a     +MOV R17 , R26
001f32 2f2b     +MOV R18 , R27
                 	__PUTW2R 17,18
001f33 9508      	RET
                 
                 ;OPTIMIZER ADDED SUBROUTINE, CALLED 2 TIMES, CODE SIZE REDUCTION:1 WORDS
                 SUBOPT_0x98:
001f34 93fa      	ST   -Y,R31
001f35 93ea      	ST   -Y,R30
                +
001f36 2fa1     +MOV R26 , R17
001f37 2fb2     +MOV R27 , R18
                 	__GETW2R 17,18
001f38 940c 1ad4 	JMP  _memcpy
                 
                 ;OPTIMIZER ADDED SUBROUTINE, CALLED 2 TIMES, CODE SIZE REDUCTION:3 WORDS
                 SUBOPT_0x99:
                +
001f3a 2fe1     +MOV R30 , R17
001f3b 2ff2     +MOV R31 , R18
                 	__GETW1R 17,18
001f3c 81ad      	LDD  R26,Y+5
001f3d 81be      	LDD  R27,Y+5+1
001f3e 0fea      	ADD  R30,R26
001f3f 1ffb      	ADC  R31,R27
001f40 83ed      	STD  Y+5,R30
001f41 83fe      	STD  Y+5+1,R31
001f42 9508      	RET
                 
                 ;OPTIMIZER ADDED SUBROUTINE, CALLED 2 TIMES, CODE SIZE REDUCTION:6 WORDS
                 SUBOPT_0x9A:
001f43 9636      	ADIW R30,6
001f44 010f      	MOVW R0,R30
001f45 01df      	MOVW R26,R30
001f46 940e 20b0 	CALL __GETD1P
001f48 01df      	MOVW R26,R30
001f49 01cb      	MOVW R24,R22
                +
001f4a 2fe1     +MOV R30 , R17
001f4b 2ff2     +MOV R31 , R18
                 	__GETW1R 17,18
001f4c ce4b      	RJMP SUBOPT_0x5E
                 
                 ;OPTIMIZER ADDED SUBROUTINE, CALLED 2 TIMES, CODE SIZE REDUCTION:1 WORDS
                 SUBOPT_0x9B:
001f4d 91ed      	LD   R30,X+
001f4e 91fd      	LD   R31,X+
001f4f 0fe1      	ADD  R30,R17
001f50 1ff2      	ADC  R31,R18
001f51 93fe      	ST   -X,R31
001f52 93ee      	ST   -X,R30
001f53 9508      	RET
                 
                 ;OPTIMIZER ADDED SUBROUTINE, CALLED 10 TIMES, CODE SIZE REDUCTION:15 WORDS
                 SUBOPT_0x9C:
001f54 89ad      	LDD  R26,Y+21
001f55 89be      	LDD  R27,Y+21+1
001f56 940e 20ac 	CALL __GETW1P
001f58 9508      	RET
                 
                 ;OPTIMIZER ADDED SUBROUTINE, CALLED 4 TIMES, CODE SIZE REDUCTION:3 WORDS
                 SUBOPT_0x9D:
001f59 93fa      	ST   -Y,R31
001f5a 93ea      	ST   -Y,R30
001f5b 89ef      	LDD  R30,Y+23
001f5c 8df8      	LDD  R31,Y+23+1
001f5d 9508      	RET
                 
                 ;OPTIMIZER ADDED SUBROUTINE, CALLED 3 TIMES, CODE SIZE REDUCTION:3 WORDS
                 SUBOPT_0x9E:
001f5e 89ad      	LDD  R26,Y+21
001f5f 89be      	LDD  R27,Y+21+1
001f60 961a      	ADIW R26,10
001f61 940e 20b0 	CALL __GETD1P
001f63 9508      	RET
                 
                 ;OPTIMIZER ADDED SUBROUTINE, CALLED 3 TIMES, CODE SIZE REDUCTION:5 WORDS
                 SUBOPT_0x9F:
001f64 89ed      	LDD  R30,Y+21
001f65 89fe      	LDD  R31,Y+21+1
                +
001f66 81a6     +LDD R26 , Z + 6
001f67 81b7     +LDD R27 , Z + 6 + 1
001f68 8580     +LDD R24 , Z + 6 + 2
001f69 8591     +LDD R25 , Z + 6 + 3
                 	__GETD2Z 6
001f6a 9508      	RET
                 
                 ;OPTIMIZER ADDED SUBROUTINE, CALLED 6 TIMES, CODE SIZE REDUCTION:17 WORDS
                 SUBOPT_0xA0:
001f6b 89ad      	LDD  R26,Y+21
001f6c 89be      	LDD  R27,Y+21+1
001f6d 9614      	ADIW R26,4
001f6e 91ec      	LD   R30,X
001f6f 68e0      	ORI  R30,0x80
001f70 93ec      	ST   X,R30
001f71 9508      	RET
                 
                 ;OPTIMIZER ADDED SUBROUTINE, CALLED 2 TIMES, CODE SIZE REDUCTION:2 WORDS
                 SUBOPT_0xA1:
001f72 81e1      	LDD  R30,Z+1
001f73 93ea      	ST   -Y,R30
001f74 89ee      	LDD  R30,Y+22
001f75 89ff      	LDD  R31,Y+22+1
001f76 96b0      	ADIW R30,32
001f77 93fa      	ST   -Y,R31
001f78 93ea      	ST   -Y,R30
001f79 9508      	RET
                 
                 ;OPTIMIZER ADDED SUBROUTINE, CALLED 3 TIMES, CODE SIZE REDUCTION:1 WORDS
                 SUBOPT_0xA2:
001f7a 89ed      	LDD  R30,Y+21
001f7b 89fe      	LDD  R31,Y+21+1
001f7c 81e5      	LDD  R30,Z+5
001f7d e0f0      	LDI  R31,0
001f7e 9508      	RET
                 
                 ;OPTIMIZER ADDED SUBROUTINE, CALLED 2 TIMES, CODE SIZE REDUCTION:3 WORDS
                 SUBOPT_0xA3:
001f7f 89ed      	LDD  R30,Y+21
001f80 89fe      	LDD  R31,Y+21+1
                +
001f81 89a6     +LDD R26 , Z + 22
001f82 89b7     +LDD R27 , Z + 22 + 1
001f83 8d80     +LDD R24 , Z + 22 + 2
001f84 8d91     +LDD R25 , Z + 22 + 3
                 	__GETD2Z 22
001f85 cd86      	RJMP SUBOPT_0x45
                 
                 ;OPTIMIZER ADDED SUBROUTINE, CALLED 5 TIMES, CODE SIZE REDUCTION:5 WORDS
                 SUBOPT_0xA4:
001f86 81af      	LDD  R26,Y+7
001f87 85b8      	LDD  R27,Y+7+1
001f88 940e 20ac 	CALL __GETW1P
001f8a 9508      	RET
                 
                 ;OPTIMIZER ADDED SUBROUTINE, CALLED 5 TIMES, CODE SIZE REDUCTION:13 WORDS
                 SUBOPT_0xA5:
001f8b 933a      	ST   -Y,R19
001f8c 85af      	LDD  R26,Y+15
001f8d 89b8      	LDD  R27,Y+15+1
001f8e 89e9      	LDD  R30,Y+17
001f8f 89fa      	LDD  R31,Y+17+1
001f90 9509      	ICALL
001f91 9508      	RET
                 
                 ;OPTIMIZER ADDED SUBROUTINE, CALLED 5 TIMES, CODE SIZE REDUCTION:9 WORDS
                 SUBOPT_0xA6:
001f92 89ea      	LDD  R30,Y+18
001f93 89fb      	LDD  R31,Y+18+1
001f94 9734      	SBIW R30,4
001f95 8bea      	STD  Y+18,R30
001f96 8bfb      	STD  Y+18+1,R31
001f97 9508      	RET
                 
                 ;OPTIMIZER ADDED SUBROUTINE, CALLED 3 TIMES, CODE SIZE REDUCTION:3 WORDS
                 SUBOPT_0xA7:
001f98 85af      	LDD  R26,Y+15
001f99 89b8      	LDD  R27,Y+15+1
001f9a 89e9      	LDD  R30,Y+17
001f9b 89fa      	LDD  R31,Y+17+1
001f9c 9509      	ICALL
001f9d 9508      	RET
                 
                 ;OPTIMIZER ADDED SUBROUTINE, CALLED 4 TIMES, CODE SIZE REDUCTION:3 WORDS
                 SUBOPT_0xA8:
                +
001f9e 83ee     +STD Y + 6 , R30
001f9f 83ff     +STD Y + 6 + 1 , R31
001fa0 8768     +STD Y + 6 + 2 , R22
001fa1 8779     +STD Y + 6 + 3 , R23
                 	__PUTD1S 6
001fa2 9508      	RET
                 
                 ;OPTIMIZER ADDED SUBROUTINE, CALLED 2 TIMES, CODE SIZE REDUCTION:2 WORDS
                 SUBOPT_0xA9:
001fa3 89aa      	LDD  R26,Y+18
001fa4 89bb      	LDD  R27,Y+18+1
001fa5 9614      	ADIW R26,4
001fa6 940e 20ac 	CALL __GETW1P
001fa8 87ec      	STD  Y+12,R30
001fa9 87fd      	STD  Y+12+1,R31
001faa 9508      	RET
                 
                 
                 	.CSEG
                 _delay_ms:
001fab 9610      	adiw r26,0
001fac f039      	breq __delay_ms1
                 __delay_ms0:
                +
001fad ea80     +LDI R24 , LOW ( 0xFA0 )
001fae e09f     +LDI R25 , HIGH ( 0xFA0 )
                +__DELAY_USW_LOOP :
001faf 9701     +SBIW R24 , 1
001fb0 f7f1     +BRNE __DELAY_USW_LOOP
                 	__DELAY_USW 0xFA0
001fb1 95a8      	wdr
001fb2 9711      	sbiw r26,1
001fb3 f7c9      	brne __delay_ms0
                 __delay_ms1:
001fb4 9508      	ret
                 
                 __ADDW2R15:
001fb5 2400      	CLR  R0
001fb6 0daf      	ADD  R26,R15
001fb7 1db0      	ADC  R27,R0
001fb8 9508      	RET
                 
                 __ADDD12:
001fb9 0fea      	ADD  R30,R26
001fba 1ffb      	ADC  R31,R27
001fbb 1f68      	ADC  R22,R24
001fbc 1f79      	ADC  R23,R25
001fbd 9508      	RET
                 
                 __ADDD21:
001fbe 0fae      	ADD  R26,R30
001fbf 1fbf      	ADC  R27,R31
001fc0 1f86      	ADC  R24,R22
001fc1 1f97      	ADC  R25,R23
001fc2 9508      	RET
                 
                 __SUBD12:
001fc3 1bea      	SUB  R30,R26
001fc4 0bfb      	SBC  R31,R27
001fc5 0b68      	SBC  R22,R24
001fc6 0b79      	SBC  R23,R25
001fc7 9508      	RET
                 
                 __SUBD21:
001fc8 1bae      	SUB  R26,R30
001fc9 0bbf      	SBC  R27,R31
001fca 0b86      	SBC  R24,R22
001fcb 0b97      	SBC  R25,R23
001fcc 9508      	RET
                 
                 __ORD12:
001fcd 2bea      	OR   R30,R26
001fce 2bfb      	OR   R31,R27
001fcf 2b68      	OR   R22,R24
001fd0 2b79      	OR   R23,R25
001fd1 9508      	RET
                 
                 __ANEGW1:
001fd2 95f1      	NEG  R31
001fd3 95e1      	NEG  R30
001fd4 40f0      	SBCI R31,0
001fd5 9508      	RET
                 
                 __LSLD12:
001fd6 23ee      	TST  R30
001fd7 2e0e      	MOV  R0,R30
001fd8 01fd      	MOVW R30,R26
001fd9 01bc      	MOVW R22,R24
001fda f031      	BREQ __LSLD12R
                 __LSLD12L:
001fdb 0fee      	LSL  R30
001fdc 1fff      	ROL  R31
001fdd 1f66      	ROL  R22
001fde 1f77      	ROL  R23
001fdf 940a      	DEC  R0
001fe0 f7d1      	BRNE __LSLD12L
                 __LSLD12R:
001fe1 9508      	RET
                 
                 __LSRD12:
001fe2 23ee      	TST  R30
001fe3 2e0e      	MOV  R0,R30
001fe4 01fd      	MOVW R30,R26
001fe5 01bc      	MOVW R22,R24
001fe6 f031      	BREQ __LSRD12R
                 __LSRD12L:
001fe7 9576      	LSR  R23
001fe8 9567      	ROR  R22
001fe9 95f7      	ROR  R31
001fea 95e7      	ROR  R30
001feb 940a      	DEC  R0
001fec f7d1      	BRNE __LSRD12L
                 __LSRD12R:
001fed 9508      	RET
                 
                 __LSLW4:
001fee 0fee      	LSL  R30
001fef 1fff      	ROL  R31
                 __LSLW3:
001ff0 0fee      	LSL  R30
001ff1 1fff      	ROL  R31
                 __LSLW2:
001ff2 0fee      	LSL  R30
001ff3 1fff      	ROL  R31
001ff4 0fee      	LSL  R30
001ff5 1fff      	ROL  R31
001ff6 9508      	RET
                 
                 __LSRW4:
001ff7 95f6      	LSR  R31
001ff8 95e7      	ROR  R30
                 __LSRW3:
001ff9 95f6      	LSR  R31
001ffa 95e7      	ROR  R30
                 __LSRW2:
001ffb 95f6      	LSR  R31
001ffc 95e7      	ROR  R30
001ffd 95f6      	LSR  R31
001ffe 95e7      	ROR  R30
001fff 9508      	RET
                 
                 __LSLD1:
002000 0fee      	LSL  R30
002001 1fff      	ROL  R31
002002 1f66      	ROL  R22
002003 1f77      	ROL  R23
002004 9508      	RET
                 
                 __LSRD16:
002005 2fe6      	MOV  R30,R22
002006 2ff7      	MOV  R31,R23
002007 e060      	LDI  R22,0
002008 e070      	LDI  R23,0
002009 9508      	RET
                 
                 __LSLD16:
00200a 2f6e      	MOV  R22,R30
00200b 2f7f      	MOV  R23,R31
00200c e0e0      	LDI  R30,0
00200d e0f0      	LDI  R31,0
00200e 9508      	RET
                 
                 __CWD1:
00200f 2f6f      	MOV  R22,R31
002010 0f66      	ADD  R22,R22
002011 0b66      	SBC  R22,R22
002012 2f76      	MOV  R23,R22
002013 9508      	RET
                 
                 __LEW12:
002014 17ea      	CP   R30,R26
002015 07fb      	CPC  R31,R27
002016 e0e1      	LDI  R30,1
002017 f40c      	BRGE __LEW12T
002018 27ee      	CLR  R30
                 __LEW12T:
002019 9508      	RET
                 
                 __GEW12:
00201a 17ae      	CP   R26,R30
00201b 07bf      	CPC  R27,R31
00201c e0e1      	LDI  R30,1
00201d f40c      	BRGE __GEW12T
00201e 27ee      	CLR  R30
                 __GEW12T:
00201f 9508      	RET
                 
                 __MULW12U:
002020 9ffa      	MUL  R31,R26
002021 2df0      	MOV  R31,R0
002022 9feb      	MUL  R30,R27
002023 0df0      	ADD  R31,R0
002024 9fea      	MUL  R30,R26
002025 2de0      	MOV  R30,R0
002026 0df1      	ADD  R31,R1
002027 9508      	RET
                 
                 __MULD12U:
002028 9f7a      	MUL  R23,R26
002029 2d70      	MOV  R23,R0
00202a 9f6b      	MUL  R22,R27
00202b 0d70      	ADD  R23,R0
00202c 9ff8      	MUL  R31,R24
00202d 0d70      	ADD  R23,R0
00202e 9fe9      	MUL  R30,R25
00202f 0d70      	ADD  R23,R0
002030 9f6a      	MUL  R22,R26
002031 2d60      	MOV  R22,R0
002032 0d71      	ADD  R23,R1
002033 9ffb      	MUL  R31,R27
002034 0d60      	ADD  R22,R0
002035 1d71      	ADC  R23,R1
002036 9fe8      	MUL  R30,R24
002037 0d60      	ADD  R22,R0
002038 1d71      	ADC  R23,R1
002039 2788      	CLR  R24
00203a 9ffa      	MUL  R31,R26
00203b 2df0      	MOV  R31,R0
00203c 0d61      	ADD  R22,R1
00203d 1f78      	ADC  R23,R24
00203e 9feb      	MUL  R30,R27
00203f 0df0      	ADD  R31,R0
002040 1d61      	ADC  R22,R1
002041 1f78      	ADC  R23,R24
002042 9fea      	MUL  R30,R26
002043 2de0      	MOV  R30,R0
002044 0df1      	ADD  R31,R1
002045 1f68      	ADC  R22,R24
002046 1f78      	ADC  R23,R24
002047 9508      	RET
                 
                 __MULB1W2U:
002048 2f6e      	MOV  R22,R30
002049 9f6a      	MUL  R22,R26
00204a 01f0      	MOVW R30,R0
00204b 9f6b      	MUL  R22,R27
00204c 0df0      	ADD  R31,R0
00204d 9508      	RET
                 
                 __MULW12:
00204e d04f      	RCALL __CHKSIGNW
00204f dfd0      	RCALL __MULW12U
002050 f40e      	BRTC __MULW121
002051 df80      	RCALL __ANEGW1
                 __MULW121:
002052 9508      	RET
                 
                 __DIVW21U:
002053 2400      	CLR  R0
002054 2411      	CLR  R1
002055 e190      	LDI  R25,16
                 __DIVW21U1:
002056 0faa      	LSL  R26
002057 1fbb      	ROL  R27
002058 1c00      	ROL  R0
002059 1c11      	ROL  R1
00205a 1a0e      	SUB  R0,R30
00205b 0a1f      	SBC  R1,R31
00205c f418      	BRCC __DIVW21U2
00205d 0e0e      	ADD  R0,R30
00205e 1e1f      	ADC  R1,R31
00205f c001      	RJMP __DIVW21U3
                 __DIVW21U2:
002060 60a1      	SBR  R26,1
                 __DIVW21U3:
002061 959a      	DEC  R25
002062 f799      	BRNE __DIVW21U1
002063 01fd      	MOVW R30,R26
002064 01d0      	MOVW R26,R0
002065 9508      	RET
                 
                 __DIVW21:
002066 d037      	RCALL __CHKSIGNW
002067 dfeb      	RCALL __DIVW21U
002068 f40e      	BRTC __DIVW211
002069 df68      	RCALL __ANEGW1
                 __DIVW211:
00206a 9508      	RET
                 
                 __DIVD21U:
00206b 933f      	PUSH R19
00206c 934f      	PUSH R20
00206d 935f      	PUSH R21
00206e 2400      	CLR  R0
00206f 2411      	CLR  R1
002070 2744      	CLR  R20
002071 2755      	CLR  R21
002072 e230      	LDI  R19,32
                 __DIVD21U1:
002073 0faa      	LSL  R26
002074 1fbb      	ROL  R27
002075 1f88      	ROL  R24
002076 1f99      	ROL  R25
002077 1c00      	ROL  R0
002078 1c11      	ROL  R1
002079 1f44      	ROL  R20
00207a 1f55      	ROL  R21
00207b 1a0e      	SUB  R0,R30
00207c 0a1f      	SBC  R1,R31
00207d 0b46      	SBC  R20,R22
00207e 0b57      	SBC  R21,R23
00207f f428      	BRCC __DIVD21U2
002080 0e0e      	ADD  R0,R30
002081 1e1f      	ADC  R1,R31
002082 1f46      	ADC  R20,R22
002083 1f57      	ADC  R21,R23
002084 c001      	RJMP __DIVD21U3
                 __DIVD21U2:
002085 60a1      	SBR  R26,1
                 __DIVD21U3:
002086 953a      	DEC  R19
002087 f759      	BRNE __DIVD21U1
002088 01fd      	MOVW R30,R26
002089 01bc      	MOVW R22,R24
00208a 01d0      	MOVW R26,R0
00208b 01ca      	MOVW R24,R20
00208c 915f      	POP  R21
00208d 914f      	POP  R20
00208e 913f      	POP  R19
00208f 9508      	RET
                 
                 __MODW21:
002090 94e8      	CLT
002091 ffb7      	SBRS R27,7
002092 c004      	RJMP __MODW211
002093 95a0      	COM  R26
002094 95b0      	COM  R27
002095 9611      	ADIW R26,1
002096 9468      	SET
                 __MODW211:
002097 fdf7      	SBRC R31,7
002098 df39      	RCALL __ANEGW1
002099 dfb9      	RCALL __DIVW21U
00209a 01fd      	MOVW R30,R26
00209b f40e      	BRTC __MODW212
00209c df35      	RCALL __ANEGW1
                 __MODW212:
00209d 9508      	RET
                 
                 __CHKSIGNW:
00209e 94e8      	CLT
00209f fff7      	SBRS R31,7
0020a0 c002      	RJMP __CHKSW1
0020a1 df30      	RCALL __ANEGW1
0020a2 9468      	SET
                 __CHKSW1:
0020a3 ffb7      	SBRS R27,7
0020a4 c006      	RJMP __CHKSW2
0020a5 95a0      	COM  R26
0020a6 95b0      	COM  R27
0020a7 9611      	ADIW R26,1
0020a8 f800      	BLD  R0,0
0020a9 9403      	INC  R0
0020aa fa00      	BST  R0,0
                 __CHKSW2:
0020ab 9508      	RET
                 
                 __GETW1P:
0020ac 91ed      	LD   R30,X+
0020ad 91fc      	LD   R31,X
0020ae 9711      	SBIW R26,1
0020af 9508      	RET
                 
                 __GETD1P:
0020b0 91ed      	LD   R30,X+
0020b1 91fd      	LD   R31,X+
0020b2 916d      	LD   R22,X+
0020b3 917c      	LD   R23,X
0020b4 9713      	SBIW R26,3
0020b5 9508      	RET
                 
                 __GETD1P_INC:
0020b6 91ed      	LD   R30,X+
0020b7 91fd      	LD   R31,X+
0020b8 916d      	LD   R22,X+
0020b9 917d      	LD   R23,X+
0020ba 9508      	RET
                 
                 __PUTDP1:
0020bb 93ed      	ST   X+,R30
0020bc 93fd      	ST   X+,R31
0020bd 936d      	ST   X+,R22
0020be 937c      	ST   X,R23
0020bf 9508      	RET
                 
                 __PUTDP1_DEC:
0020c0 937e      	ST   -X,R23
0020c1 936e      	ST   -X,R22
0020c2 93fe      	ST   -X,R31
0020c3 93ee      	ST   -X,R30
0020c4 9508      	RET
                 
                 __GETW1PF:
0020c5 bf6b      	OUT  RAMPZ,R22
0020c6 9007      	ELPM R0,Z+
0020c7 91f6      	ELPM R31,Z
0020c8 2de0      	MOV  R30,R0
0020c9 9508      	RET
                 
                 __GETD1S0:
0020ca 81e8      	LD   R30,Y
0020cb 81f9      	LDD  R31,Y+1
0020cc 816a      	LDD  R22,Y+2
0020cd 817b      	LDD  R23,Y+3
0020ce 9508      	RET
                 
                 __GETD2S0:
0020cf 81a8      	LD   R26,Y
0020d0 81b9      	LDD  R27,Y+1
0020d1 818a      	LDD  R24,Y+2
0020d2 819b      	LDD  R25,Y+3
0020d3 9508      	RET
                 
                 __PUTD1S0:
0020d4 83e8      	ST   Y,R30
0020d5 83f9      	STD  Y+1,R31
0020d6 836a      	STD  Y+2,R22
0020d7 837b      	STD  Y+3,R23
0020d8 9508      	RET
                 
                 __PUTDZ20:
0020d9 83a0      	ST   Z,R26
0020da 83b1      	STD  Z+1,R27
0020db 8382      	STD  Z+2,R24
0020dc 8393      	STD  Z+3,R25
0020dd 9508      	RET
                 
                 __PUTPARD1:
0020de 937a      	ST   -Y,R23
0020df 936a      	ST   -Y,R22
0020e0 93fa      	ST   -Y,R31
0020e1 93ea      	ST   -Y,R30
0020e2 9508      	RET
                 
                 __PUTPARD2:
0020e3 939a      	ST   -Y,R25
0020e4 938a      	ST   -Y,R24
0020e5 93ba      	ST   -Y,R27
0020e6 93aa      	ST   -Y,R26
0020e7 9508      	RET
                 
                 __SWAPD12:
0020e8 2e18      	MOV  R1,R24
0020e9 2f86      	MOV  R24,R22
0020ea 2d61      	MOV  R22,R1
0020eb 2e19      	MOV  R1,R25
0020ec 2f97      	MOV  R25,R23
0020ed 2d71      	MOV  R23,R1
                 
                 __SWAPW12:
0020ee 2e1b      	MOV  R1,R27
0020ef 2fbf      	MOV  R27,R31
0020f0 2df1      	MOV  R31,R1
                 
                 __SWAPB12:
0020f1 2e1a      	MOV  R1,R26
0020f2 2fae      	MOV  R26,R30
0020f3 2de1      	MOV  R30,R1
0020f4 9508      	RET
                 
                 __CPD10:
0020f5 9730      	SBIW R30,0
0020f6 4060      	SBCI R22,0
0020f7 4070      	SBCI R23,0
0020f8 9508      	RET
                 
                 __CPD02:
0020f9 2400      	CLR  R0
0020fa 160a      	CP   R0,R26
0020fb 060b      	CPC  R0,R27
0020fc 0608      	CPC  R0,R24
0020fd 0609      	CPC  R0,R25
0020fe 9508      	RET
                 
                 __CPD12:
0020ff 17ea      	CP   R30,R26
002100 07fb      	CPC  R31,R27
002101 0768      	CPC  R22,R24
002102 0779      	CPC  R23,R25
002103 9508      	RET
                 
                 __CPD21:
002104 17ae      	CP   R26,R30
002105 07bf      	CPC  R27,R31
002106 0786      	CPC  R24,R22
002107 0797      	CPC  R25,R23
002108 9508      	RET
                 
                 __SAVELOCR6:
002109 935a      	ST   -Y,R21
                 __SAVELOCR5:
00210a 934a      	ST   -Y,R20
                 __SAVELOCR4:
00210b 933a      	ST   -Y,R19
                 __SAVELOCR3:
00210c 932a      	ST   -Y,R18
                 __SAVELOCR2:
00210d 931a      	ST   -Y,R17
00210e 930a      	ST   -Y,R16
00210f 9508      	RET
                 
                 __LOADLOCR6:
002110 815d      	LDD  R21,Y+5
                 __LOADLOCR5:
002111 814c      	LDD  R20,Y+4
                 __LOADLOCR4:
002112 813b      	LDD  R19,Y+3
                 __LOADLOCR3:
002113 812a      	LDD  R18,Y+2
                 __LOADLOCR2:
002114 8119      	LDD  R17,Y+1
002115 8108      	LD   R16,Y
002116 9508      	RET
                 
                 __INITLOCB:
                 __INITLOCW:
002117 0fac      	ADD  R26,R28
002118 1fbd      	ADC  R27,R29
002119 bf6b      	OUT  RAMPZ,R22
                 __INITLOC0:
00211a 9007      	ELPM R0,Z+
00211b 920d      	ST   X+,R0
00211c 958a      	DEC  R24
00211d f7e1      	BRNE __INITLOC0
00211e 9508      	RET
                 
                 ;END OF CODE MARKER
                 __END_OF_CODE:


RESOURCE USE INFORMATION
------------------------

Notice:
The register and instruction counts are symbol table hit counts,
and hence implicitly used resources are not counted, eg, the
'lpm' instruction without operands implicitly uses r0 and z,
none of which are counted.

x,y,z are separate entities in the symbol table and are
counted separately from r26..r31 here.

.dseg memory usage only counts static data declared with .byte

AT90USB1286 register use summary:
r0 :  89 r1 :  29 r2 :   0 r3 :   0 r4 :   0 r5 :   0 r6 :   0 r7 :   0 
r8 :   0 r9 :   0 r10:   0 r11:   0 r12:   0 r13:   0 r14:   0 r15:   6 
r16: 282 r17: 149 r18: 100 r19:  81 r20:  52 r21:  21 r22: 223 r23: 158 
r24: 171 r25: 131 r26:1008 r27: 521 r28:  89 r29:   6 r30:1792 r31: 639 
x  : 187 y  :1578 z  : 187 
Registers used: 22 out of 35 (62.9%)

AT90USB1286 instruction use summary:
.lds  :   0 .lds.l:   0 .sts  :   0 .sts.l:   0 adc   :  51 add   :  57 
adiw  : 256 and   :   3 andi  : 101 asr   :   2 bclr  :   0 bld   :   1 
brbc  :   0 brbs  :   0 brcc  :   3 brcs  :   0 break :   0 breq  : 179 
brge  :   6 brhc  :   0 brhs  :   0 brid  :   0 brie  :   0 brlo  :  38 
brlt  :   5 brmi  :   1 brne  : 194 brpl  :   1 brsh  :  40 brtc  :   3 
brts  :   0 brvc  :   0 brvs  :   0 bset  :   0 bst   :   1 call  : 920 
cbi   :  13 cbr   :   0 clc   :   0 clh   :   0 cli   :   2 cln   :   0 
clr   :  85 cls   :   0 clt   :   2 clv   :   0 clz   :   0 com   :   4 
cp    :  28 cpc   :  75 cpi   : 253 cpse  :   0 dec   :   7 des   :   0 
elpm  :  30 eor   :   2 fmul  :   0 fmuls :   0 fmulsu:   0 icall :   4 
ijmp  :   0 in    :  45 inc   :   2 jmp   :  51 ld    : 126 ldd   :1212 
ldi   : 754 lds   :  80 lpm   :   0 lsl   :  22 lsr   :  16 mov   : 200 
movw  : 153 mul   :  19 muls  :   0 mulsu :   0 neg   :   2 nop   :  12 
or    :  13 ori   :  27 out   :  68 pop   :  76 push  :  76 rcall : 111 
ret   : 237 reti  :   1 rjmp  : 395 rol   :  27 ror   :  11 sbc   :  23 
sbci  : 100 sbi   :  17 sbic  :   2 sbis  :   1 sbiw  :  62 sbr   :   2 
sbrc  :   6 sbrs  :  44 sec   :   0 seh   :   0 sei   :   2 sen   :   0 
ser   :   0 ses   :   0 set   :   2 sev   :   0 sez   :   0 sleep :   0 
spm   :   0 st    : 407 std   : 177 sts   :  55 sub   :  18 subi  : 114 
swap  :   6 tst   :   6 wdr   :   1 
Instructions used: 75 out of 117 (64.1%)

AT90USB1286 memory use summary [bytes]:
Segment   Begin    End      Code   Data   Used    Size   Use%
---------------------------------------------------------------
[.cseg] 0x000000 0x00423e  16508    450  16958  131072  12.9%
[.dseg] 0x000100 0x000f10      0   1552   1552    8192  18.9%
[.eseg] 0x000000 0x000000      0      0      0    4096   0.0%

Assembly complete, 0 errors, 18 warnings
