
AVRASM ver. 2.1.30  C:\Users\980006738\Documents\Semestre 8\Lab de Micros\LabMicrocontroladores\CodeVision\P02_Logger\Debug\List\logger.asm Tue Feb 25 18:37:03 2020

                 
                 
                 ;CodeVisionAVR C Compiler V3.12 Advanced
                 ;(C) Copyright 1998-2014 Pavel Haiduc, HP InfoTech s.r.l.
                 ;http://www.hpinfotech.com
                 
                 ;Build configuration    : Debug
                 ;Chip type              : AT90USB1286
                 ;Program type           : Application
                 ;Clock frequency        : 2.000000 MHz
                 ;Memory model           : Small
                 ;Optimize for           : Size
                 ;(s)printf features     : int, width
                 ;(s)scanf features      : int, width
                 ;External RAM size      : 0
                 ;Data Stack size        : 2048 byte(s)
                 ;Heap size              : 0 byte(s)
                 ;Promote 'char' to 'int': Yes
                 ;'char' is unsigned     : Yes
                 ;8 bit enums            : Yes
                 ;Global 'const' stored in FLASH: No
                 ;Enhanced function parameter passing: Yes
                 ;Enhanced core instructions: On
                 ;Automatic register allocation for global variables: Off
                 ;Smart register allocation: Off
                 
                 	#define _MODEL_SMALL_
                 
                 	#pragma AVRPART ADMIN PART_NAME AT90USB1286
                 	#pragma AVRPART MEMORY PROG_FLASH 131072
                 	#pragma AVRPART MEMORY EEPROM 4096
                 	#pragma AVRPART MEMORY INT_SRAM SIZE 8192
                 	#pragma AVRPART MEMORY INT_SRAM START_ADDR 0x100
                 
                 	#define CALL_SUPPORTED 1
                 
                 	.LISTMAC
                 	.EQU EERE=0x0
                 	.EQU EEWE=0x1
                 	.EQU EEMWE=0x2
                 	.EQU UDRE=0x5
                 	.EQU RXC=0x7
                 	.EQU EECR=0x1F
                 	.EQU EEDR=0x20
                 	.EQU EEARL=0x21
                 	.EQU EEARH=0x22
                 	.EQU SPSR=0x2D
                 	.EQU SPDR=0x2E
                 	.EQU SMCR=0x33
                 	.EQU MCUSR=0x34
                 	.EQU MCUCR=0x35
                 	.EQU RAMPZ=0x3B
                 	.EQU WDTCSR=0x60
                 	.EQU UCSR1A=0xC8
                 	.EQU UDR1=0xCE
                 	.EQU SPL=0x3D
                 	.EQU SPH=0x3E
                 	.EQU SREG=0x3F
                 	.EQU GPIOR0=0x1E
                 
                 	.DEF R0X0=R0
                 	.DEF R0X1=R1
                 	.DEF R0X2=R2
                 	.DEF R0X3=R3
                 	.DEF R0X4=R4
                 	.DEF R0X5=R5
                 	.DEF R0X6=R6
                 	.DEF R0X7=R7
                 	.DEF R0X8=R8
                 	.DEF R0X9=R9
                 	.DEF R0XA=R10
                 	.DEF R0XB=R11
                 	.DEF R0XC=R12
                 	.DEF R0XD=R13
                 	.DEF R0XE=R14
                 	.DEF R0XF=R15
                 	.DEF R0X10=R16
                 	.DEF R0X11=R17
                 	.DEF R0X12=R18
                 	.DEF R0X13=R19
                 	.DEF R0X14=R20
                 	.DEF R0X15=R21
                 	.DEF R0X16=R22
                 	.DEF R0X17=R23
                 	.DEF R0X18=R24
                 	.DEF R0X19=R25
                 	.DEF R0X1A=R26
                 	.DEF R0X1B=R27
                 	.DEF R0X1C=R28
                 	.DEF R0X1D=R29
                 	.DEF R0X1E=R30
                 	.DEF R0X1F=R31
                 
                 	.EQU __SRAM_START=0x0100
                 	.EQU __SRAM_END=0x20FF
                 	.EQU __DSTACK_SIZE=0x0800
                 	.EQU __HEAP_SIZE=0x0000
                 	.EQU __CLEAR_SRAM_SIZE=__SRAM_END-__SRAM_START+1
                 
                 	.MACRO __CPD1N
                 	CPI  R30,LOW(@0)
                 	LDI  R26,HIGH(@0)
                 	CPC  R31,R26
                 	LDI  R26,BYTE3(@0)
                 	CPC  R22,R26
                 	LDI  R26,BYTE4(@0)
                 	CPC  R23,R26
                 	.ENDM
                 
                 	.MACRO __CPD2N
                 	CPI  R26,LOW(@0)
                 	LDI  R30,HIGH(@0)
                 	CPC  R27,R30
                 	LDI  R30,BYTE3(@0)
                 	CPC  R24,R30
                 	LDI  R30,BYTE4(@0)
                 	CPC  R25,R30
                 	.ENDM
                 
                 	.MACRO __CPWRR
                 	CP   R@0,R@2
                 	CPC  R@1,R@3
                 	.ENDM
                 
                 	.MACRO __CPWRN
                 	CPI  R@0,LOW(@2)
                 	LDI  R30,HIGH(@2)
                 	CPC  R@1,R30
                 	.ENDM
                 
                 	.MACRO __ADDB1MN
                 	SUBI R30,LOW(-@0-(@1))
                 	.ENDM
                 
                 	.MACRO __ADDB2MN
                 	SUBI R26,LOW(-@0-(@1))
                 	.ENDM
                 
                 	.MACRO __ADDW1MN
                 	SUBI R30,LOW(-@0-(@1))
                 	SBCI R31,HIGH(-@0-(@1))
                 	.ENDM
                 
                 	.MACRO __ADDW2MN
                 	SUBI R26,LOW(-@0-(@1))
                 	SBCI R27,HIGH(-@0-(@1))
                 	.ENDM
                 
                 	.MACRO __ADDW1FN
                 	SUBI R30,LOW(-2*@0-(@1))
                 	SBCI R31,HIGH(-2*@0-(@1))
                 	.ENDM
                 
                 	.MACRO __ADDD1FN
                 	SUBI R30,LOW(-2*@0-(@1))
                 	SBCI R31,HIGH(-2*@0-(@1))
                 	SBCI R22,BYTE3(-2*@0-(@1))
                 	.ENDM
                 
                 	.MACRO __ADDD1N
                 	SUBI R30,LOW(-@0)
                 	SBCI R31,HIGH(-@0)
                 	SBCI R22,BYTE3(-@0)
                 	SBCI R23,BYTE4(-@0)
                 	.ENDM
                 
                 	.MACRO __ADDD2N
                 	SUBI R26,LOW(-@0)
                 	SBCI R27,HIGH(-@0)
                 	SBCI R24,BYTE3(-@0)
                 	SBCI R25,BYTE4(-@0)
                 	.ENDM
                 
                 	.MACRO __SUBD1N
                 	SUBI R30,LOW(@0)
                 	SBCI R31,HIGH(@0)
                 	SBCI R22,BYTE3(@0)
                 	SBCI R23,BYTE4(@0)
                 	.ENDM
                 
                 	.MACRO __SUBD2N
                 	SUBI R26,LOW(@0)
                 	SBCI R27,HIGH(@0)
                 	SBCI R24,BYTE3(@0)
                 	SBCI R25,BYTE4(@0)
                 	.ENDM
                 
                 	.MACRO __ANDBMNN
                 	LDS  R30,@0+(@1)
                 	ANDI R30,LOW(@2)
                 	STS  @0+(@1),R30
                 	.ENDM
                 
                 	.MACRO __ANDWMNN
                 	LDS  R30,@0+(@1)
                 	ANDI R30,LOW(@2)
                 	STS  @0+(@1),R30
                 	LDS  R30,@0+(@1)+1
                 	ANDI R30,HIGH(@2)
                 	STS  @0+(@1)+1,R30
                 	.ENDM
                 
                 	.MACRO __ANDD1N
                 	ANDI R30,LOW(@0)
                 	ANDI R31,HIGH(@0)
                 	ANDI R22,BYTE3(@0)
                 	ANDI R23,BYTE4(@0)
                 	.ENDM
                 
                 	.MACRO __ANDD2N
                 	ANDI R26,LOW(@0)
                 	ANDI R27,HIGH(@0)
                 	ANDI R24,BYTE3(@0)
                 	ANDI R25,BYTE4(@0)
                 	.ENDM
                 
                 	.MACRO __ORBMNN
                 	LDS  R30,@0+(@1)
                 	ORI  R30,LOW(@2)
                 	STS  @0+(@1),R30
                 	.ENDM
                 
                 	.MACRO __ORWMNN
                 	LDS  R30,@0+(@1)
                 	ORI  R30,LOW(@2)
                 	STS  @0+(@1),R30
                 	LDS  R30,@0+(@1)+1
                 	ORI  R30,HIGH(@2)
                 	STS  @0+(@1)+1,R30
                 	.ENDM
                 
                 	.MACRO __ORD1N
                 	ORI  R30,LOW(@0)
                 	ORI  R31,HIGH(@0)
                 	ORI  R22,BYTE3(@0)
                 	ORI  R23,BYTE4(@0)
                 	.ENDM
                 
                 	.MACRO __ORD2N
                 	ORI  R26,LOW(@0)
                 	ORI  R27,HIGH(@0)
                 	ORI  R24,BYTE3(@0)
                 	ORI  R25,BYTE4(@0)
                 	.ENDM
                 
                 	.MACRO __DELAY_USB
                 	LDI  R24,LOW(@0)
                 __DELAY_USB_LOOP:
                 	DEC  R24
                 	BRNE __DELAY_USB_LOOP
                 	.ENDM
                 
                 	.MACRO __DELAY_USW
                 	LDI  R24,LOW(@0)
                 	LDI  R25,HIGH(@0)
                 __DELAY_USW_LOOP:
                 	SBIW R24,1
                 	BRNE __DELAY_USW_LOOP
                 	.ENDM
                 
                 	.MACRO __GETD1S
                 	LDD  R30,Y+@0
                 	LDD  R31,Y+@0+1
                 	LDD  R22,Y+@0+2
                 	LDD  R23,Y+@0+3
                 	.ENDM
                 
                 	.MACRO __GETD2S
                 	LDD  R26,Y+@0
                 	LDD  R27,Y+@0+1
                 	LDD  R24,Y+@0+2
                 	LDD  R25,Y+@0+3
                 	.ENDM
                 
                 	.MACRO __PUTD1S
                 	STD  Y+@0,R30
                 	STD  Y+@0+1,R31
                 	STD  Y+@0+2,R22
                 	STD  Y+@0+3,R23
                 	.ENDM
                 
                 	.MACRO __PUTD2S
                 	STD  Y+@0,R26
                 	STD  Y+@0+1,R27
                 	STD  Y+@0+2,R24
                 	STD  Y+@0+3,R25
                 	.ENDM
                 
                 	.MACRO __PUTDZ2
                 	STD  Z+@0,R26
                 	STD  Z+@0+1,R27
                 	STD  Z+@0+2,R24
                 	STD  Z+@0+3,R25
                 	.ENDM
                 
                 	.MACRO __CLRD1S
                 	STD  Y+@0,R30
                 	STD  Y+@0+1,R30
                 	STD  Y+@0+2,R30
                 	STD  Y+@0+3,R30
                 	.ENDM
                 
                 	.MACRO __POINTB1MN
                 	LDI  R30,LOW(@0+(@1))
                 	.ENDM
                 
                 	.MACRO __POINTW1MN
                 	LDI  R30,LOW(@0+(@1))
                 	LDI  R31,HIGH(@0+(@1))
                 	.ENDM
                 
                 	.MACRO __POINTD1M
                 	LDI  R30,LOW(@0)
                 	LDI  R31,HIGH(@0)
                 	LDI  R22,BYTE3(@0)
                 	LDI  R23,BYTE4(@0)
                 	.ENDM
                 
                 	.MACRO __POINTW1FN
                 	LDI  R30,LOW(2*@0+(@1))
                 	LDI  R31,HIGH(2*@0+(@1))
                 	.ENDM
                 
                 	.MACRO __POINTD1FN
                 	LDI  R30,LOW(2*@0+(@1))
                 	LDI  R31,HIGH(2*@0+(@1))
                 	LDI  R22,BYTE3(2*@0+(@1))
                 	LDI  R23,BYTE4(2*@0+(@1))
                 	.ENDM
                 
                 	.MACRO __POINTB2MN
                 	LDI  R26,LOW(@0+(@1))
                 	.ENDM
                 
                 	.MACRO __POINTW2MN
                 	LDI  R26,LOW(@0+(@1))
                 	LDI  R27,HIGH(@0+(@1))
                 	.ENDM
                 
                 	.MACRO __POINTW2FN
                 	LDI  R26,LOW(2*@0+(@1))
                 	LDI  R27,HIGH(2*@0+(@1))
                 	.ENDM
                 
                 	.MACRO __POINTD2FN
                 	LDI  R26,LOW(2*@0+(@1))
                 	LDI  R27,HIGH(2*@0+(@1))
                 	LDI  R24,BYTE3(2*@0+(@1))
                 	LDI  R25,BYTE4(2*@0+(@1))
                 	.ENDM
                 
                 	.MACRO __POINTBRM
                 	LDI  R@0,LOW(@1)
                 	.ENDM
                 
                 	.MACRO __POINTWRM
                 	LDI  R@0,LOW(@2)
                 	LDI  R@1,HIGH(@2)
                 	.ENDM
                 
                 	.MACRO __POINTBRMN
                 	LDI  R@0,LOW(@1+(@2))
                 	.ENDM
                 
                 	.MACRO __POINTWRMN
                 	LDI  R@0,LOW(@2+(@3))
                 	LDI  R@1,HIGH(@2+(@3))
                 	.ENDM
                 
                 	.MACRO __POINTWRFN
                 	LDI  R@0,LOW(@2*2+(@3))
                 	LDI  R@1,HIGH(@2*2+(@3))
                 	.ENDM
                 
                 	.MACRO __GETD1N
                 	LDI  R30,LOW(@0)
                 	LDI  R31,HIGH(@0)
                 	LDI  R22,BYTE3(@0)
                 	LDI  R23,BYTE4(@0)
                 	.ENDM
                 
                 	.MACRO __GETD2N
                 	LDI  R26,LOW(@0)
                 	LDI  R27,HIGH(@0)
                 	LDI  R24,BYTE3(@0)
                 	LDI  R25,BYTE4(@0)
                 	.ENDM
                 
                 	.MACRO __GETB1MN
                 	LDS  R30,@0+(@1)
                 	.ENDM
                 
                 	.MACRO __GETB1HMN
                 	LDS  R31,@0+(@1)
                 	.ENDM
                 
                 	.MACRO __GETW1MN
                 	LDS  R30,@0+(@1)
                 	LDS  R31,@0+(@1)+1
                 	.ENDM
                 
                 	.MACRO __GETD1MN
                 	LDS  R30,@0+(@1)
                 	LDS  R31,@0+(@1)+1
                 	LDS  R22,@0+(@1)+2
                 	LDS  R23,@0+(@1)+3
                 	.ENDM
                 
                 	.MACRO __GETBRMN
                 	LDS  R@0,@1+(@2)
                 	.ENDM
                 
                 	.MACRO __GETWRMN
                 	LDS  R@0,@2+(@3)
                 	LDS  R@1,@2+(@3)+1
                 	.ENDM
                 
                 	.MACRO __GETWRZ
                 	LDD  R@0,Z+@2
                 	LDD  R@1,Z+@2+1
                 	.ENDM
                 
                 	.MACRO __GETD2Z
                 	LDD  R26,Z+@0
                 	LDD  R27,Z+@0+1
                 	LDD  R24,Z+@0+2
                 	LDD  R25,Z+@0+3
                 	.ENDM
                 
                 	.MACRO __GETB2MN
                 	LDS  R26,@0+(@1)
                 	.ENDM
                 
                 	.MACRO __GETW2MN
                 	LDS  R26,@0+(@1)
                 	LDS  R27,@0+(@1)+1
                 	.ENDM
                 
                 	.MACRO __GETD2MN
                 	LDS  R26,@0+(@1)
                 	LDS  R27,@0+(@1)+1
                 	LDS  R24,@0+(@1)+2
                 	LDS  R25,@0+(@1)+3
                 	.ENDM
                 
                 	.MACRO __PUTB1MN
                 	STS  @0+(@1),R30
                 	.ENDM
                 
                 	.MACRO __PUTW1MN
                 	STS  @0+(@1),R30
                 	STS  @0+(@1)+1,R31
                 	.ENDM
                 
                 	.MACRO __PUTD1MN
                 	STS  @0+(@1),R30
                 	STS  @0+(@1)+1,R31
                 	STS  @0+(@1)+2,R22
                 	STS  @0+(@1)+3,R23
                 	.ENDM
                 
                 	.MACRO __PUTB1EN
                 	LDI  R26,LOW(@0+(@1))
                 	LDI  R27,HIGH(@0+(@1))
                 	CALL __EEPROMWRB
                 	.ENDM
                 
                 	.MACRO __PUTW1EN
                 	LDI  R26,LOW(@0+(@1))
                 	LDI  R27,HIGH(@0+(@1))
                 	CALL __EEPROMWRW
                 	.ENDM
                 
                 	.MACRO __PUTD1EN
                 	LDI  R26,LOW(@0+(@1))
                 	LDI  R27,HIGH(@0+(@1))
                 	CALL __EEPROMWRD
                 	.ENDM
                 
                 	.MACRO __PUTBR0MN
                 	STS  @0+(@1),R0
                 	.ENDM
                 
                 	.MACRO __PUTBMRN
                 	STS  @0+(@1),R@2
                 	.ENDM
                 
                 	.MACRO __PUTWMRN
                 	STS  @0+(@1),R@2
                 	STS  @0+(@1)+1,R@3
                 	.ENDM
                 
                 	.MACRO __PUTBZR
                 	STD  Z+@1,R@0
                 	.ENDM
                 
                 	.MACRO __PUTWZR
                 	STD  Z+@2,R@0
                 	STD  Z+@2+1,R@1
                 	.ENDM
                 
                 	.MACRO __GETW1R
                 	MOV  R30,R@0
                 	MOV  R31,R@1
                 	.ENDM
                 
                 	.MACRO __GETW2R
                 	MOV  R26,R@0
                 	MOV  R27,R@1
                 	.ENDM
                 
                 	.MACRO __GETWRN
                 	LDI  R@0,LOW(@2)
                 	LDI  R@1,HIGH(@2)
                 	.ENDM
                 
                 	.MACRO __PUTW1R
                 	MOV  R@0,R30
                 	MOV  R@1,R31
                 	.ENDM
                 
                 	.MACRO __PUTW2R
                 	MOV  R@0,R26
                 	MOV  R@1,R27
                 	.ENDM
                 
                 	.MACRO __ADDWRN
                 	SUBI R@0,LOW(-@2)
                 	SBCI R@1,HIGH(-@2)
                 	.ENDM
                 
                 	.MACRO __ADDWRR
                 	ADD  R@0,R@2
                 	ADC  R@1,R@3
                 	.ENDM
                 
                 	.MACRO __SUBWRN
                 	SUBI R@0,LOW(@2)
                 	SBCI R@1,HIGH(@2)
                 	.ENDM
                 
                 	.MACRO __SUBWRR
                 	SUB  R@0,R@2
                 	SBC  R@1,R@3
                 	.ENDM
                 
                 	.MACRO __ANDWRN
                 	ANDI R@0,LOW(@2)
                 	ANDI R@1,HIGH(@2)
                 	.ENDM
                 
                 	.MACRO __ANDWRR
                 	AND  R@0,R@2
                 	AND  R@1,R@3
                 	.ENDM
                 
                 	.MACRO __ORWRN
                 	ORI  R@0,LOW(@2)
                 	ORI  R@1,HIGH(@2)
                 	.ENDM
                 
                 	.MACRO __ORWRR
                 	OR   R@0,R@2
                 	OR   R@1,R@3
                 	.ENDM
                 
                 	.MACRO __EORWRR
                 	EOR  R@0,R@2
                 	EOR  R@1,R@3
                 	.ENDM
                 
                 	.MACRO __GETWRS
                 	LDD  R@0,Y+@2
                 	LDD  R@1,Y+@2+1
                 	.ENDM
                 
                 	.MACRO __PUTBSR
                 	STD  Y+@1,R@0
                 	.ENDM
                 
                 	.MACRO __PUTWSR
                 	STD  Y+@2,R@0
                 	STD  Y+@2+1,R@1
                 	.ENDM
                 
                 	.MACRO __MOVEWRR
                 	MOV  R@0,R@2
                 	MOV  R@1,R@3
                 	.ENDM
                 
                 	.MACRO __INWR
                 	IN   R@0,@2
                 	IN   R@1,@2+1
                 	.ENDM
                 
                 	.MACRO __OUTWR
                 	OUT  @2+1,R@1
                 	OUT  @2,R@0
                 	.ENDM
                 
                 	.MACRO __CALL1MN
                 	LDS  R30,@0+(@1)
                 	LDS  R31,@0+(@1)+1
                 	ICALL
                 	.ENDM
                 
                 	.MACRO __CALL1FN
                 	LDI  R30,LOW(2*@0+(@1))
                 	LDI  R31,HIGH(2*@0+(@1))
                 	CALL __GETW1PF
                 	ICALL
                 	.ENDM
                 
                 	.MACRO __CALL2EN
                 	PUSH R26
                 	PUSH R27
                 	LDI  R26,LOW(@0+(@1))
                 	LDI  R27,HIGH(@0+(@1))
                 	CALL __EEPROMRDW
                 	POP  R27
                 	POP  R26
                 	ICALL
                 	.ENDM
                 
                 	.MACRO __CALL2EX
                 	SUBI R26,LOW(-@0)
                 	SBCI R27,HIGH(-@0)
                 	CALL __EEPROMRDD
                 	ICALL
                 	.ENDM
                 
                 	.MACRO __GETW1STACK
                 	IN   R30,SPL
                 	IN   R31,SPH
                 	ADIW R30,@0+1
                 	LD   R0,Z+
                 	LD   R31,Z
                 	MOV  R30,R0
                 	.ENDM
                 
                 	.MACRO __GETD1STACK
                 	IN   R30,SPL
                 	IN   R31,SPH
                 	ADIW R30,@0+1
                 	LD   R0,Z+
                 	LD   R1,Z+
                 	LD   R22,Z
                 	MOVW R30,R0
                 	.ENDM
                 
                 	.MACRO __NBST
                 	BST  R@0,@1
                 	IN   R30,SREG
                 	LDI  R31,0x40
                 	EOR  R30,R31
                 	OUT  SREG,R30
                 	.ENDM
                 
                 
                 	.MACRO __PUTB1SN
                 	LDD  R26,Y+@0
                 	LDD  R27,Y+@0+1
                 	SUBI R26,LOW(-@1)
                 	SBCI R27,HIGH(-@1)
                 	ST   X,R30
                 	.ENDM
                 
                 	.MACRO __PUTW1SN
                 	LDD  R26,Y+@0
                 	LDD  R27,Y+@0+1
                 	SUBI R26,LOW(-@1)
                 	SBCI R27,HIGH(-@1)
                 	ST   X+,R30
                 	ST   X,R31
                 	.ENDM
                 
                 	.MACRO __PUTD1SN
                 	LDD  R26,Y+@0
                 	LDD  R27,Y+@0+1
                 	SUBI R26,LOW(-@1)
                 	SBCI R27,HIGH(-@1)
                 	CALL __PUTDP1
                 	.ENDM
                 
                 	.MACRO __PUTB1SNS
                 	LDD  R26,Y+@0
                 	LDD  R27,Y+@0+1
                 	ADIW R26,@1
                 	ST   X,R30
                 	.ENDM
                 
                 	.MACRO __PUTW1SNS
                 	LDD  R26,Y+@0
                 	LDD  R27,Y+@0+1
                 	ADIW R26,@1
                 	ST   X+,R30
                 	ST   X,R31
                 	.ENDM
                 
                 	.MACRO __PUTD1SNS
                 	LDD  R26,Y+@0
                 	LDD  R27,Y+@0+1
                 	ADIW R26,@1
                 	CALL __PUTDP1
                 	.ENDM
                 
                 	.MACRO __PUTB1PMN
                 	LDS  R26,@0
                 	LDS  R27,@0+1
                 	SUBI R26,LOW(-@1)
                 	SBCI R27,HIGH(-@1)
                 	ST   X,R30
                 	.ENDM
                 
                 	.MACRO __PUTW1PMN
                 	LDS  R26,@0
                 	LDS  R27,@0+1
                 	SUBI R26,LOW(-@1)
                 	SBCI R27,HIGH(-@1)
                 	ST   X+,R30
                 	ST   X,R31
                 	.ENDM
                 
                 	.MACRO __PUTD1PMN
                 	LDS  R26,@0
                 	LDS  R27,@0+1
                 	SUBI R26,LOW(-@1)
                 	SBCI R27,HIGH(-@1)
                 	CALL __PUTDP1
                 	.ENDM
                 
                 	.MACRO __PUTB1PMNS
                 	LDS  R26,@0
                 	LDS  R27,@0+1
                 	ADIW R26,@1
                 	ST   X,R30
                 	.ENDM
                 
                 	.MACRO __PUTW1PMNS
                 	LDS  R26,@0
                 	LDS  R27,@0+1
                 	ADIW R26,@1
                 	ST   X+,R30
                 	ST   X,R31
                 	.ENDM
                 
                 	.MACRO __PUTD1PMNS
                 	LDS  R26,@0
                 	LDS  R27,@0+1
                 	ADIW R26,@1
                 	CALL __PUTDP1
                 	.ENDM
                 
                 	.MACRO __PUTB1RN
                 	MOVW R26,R@0
                 	SUBI R26,LOW(-@1)
                 	SBCI R27,HIGH(-@1)
                 	ST   X,R30
                 	.ENDM
                 
                 	.MACRO __PUTW1RN
                 	MOVW R26,R@0
                 	SUBI R26,LOW(-@1)
                 	SBCI R27,HIGH(-@1)
                 	ST   X+,R30
                 	ST   X,R31
                 	.ENDM
                 
                 	.MACRO __PUTD1RN
                 	MOVW R26,R@0
                 	SUBI R26,LOW(-@1)
                 	SBCI R27,HIGH(-@1)
                 	CALL __PUTDP1
                 	.ENDM
                 
                 	.MACRO __PUTB1RNS
                 	MOVW R26,R@0
                 	ADIW R26,@1
                 	ST   X,R30
                 	.ENDM
                 
                 	.MACRO __PUTW1RNS
                 	MOVW R26,R@0
                 	ADIW R26,@1
                 	ST   X+,R30
                 	ST   X,R31
                 	.ENDM
                 
                 	.MACRO __PUTD1RNS
                 	MOVW R26,R@0
                 	ADIW R26,@1
                 	CALL __PUTDP1
                 	.ENDM
                 
                 	.MACRO __PUTB1RON
                 	MOV  R26,R@0
                 	MOV  R27,R@1
                 	SUBI R26,LOW(-@2)
                 	SBCI R27,HIGH(-@2)
                 	ST   X,R30
                 	.ENDM
                 
                 	.MACRO __PUTW1RON
                 	MOV  R26,R@0
                 	MOV  R27,R@1
                 	SUBI R26,LOW(-@2)
                 	SBCI R27,HIGH(-@2)
                 	ST   X+,R30
                 	ST   X,R31
                 	.ENDM
                 
                 	.MACRO __PUTD1RON
                 	MOV  R26,R@0
                 	MOV  R27,R@1
                 	SUBI R26,LOW(-@2)
                 	SBCI R27,HIGH(-@2)
                 	CALL __PUTDP1
                 	.ENDM
                 
                 	.MACRO __PUTB1RONS
                 	MOV  R26,R@0
                 	MOV  R27,R@1
                 	ADIW R26,@2
                 	ST   X,R30
                 	.ENDM
                 
                 	.MACRO __PUTW1RONS
                 	MOV  R26,R@0
                 	MOV  R27,R@1
                 	ADIW R26,@2
                 	ST   X+,R30
                 	ST   X,R31
                 	.ENDM
                 
                 	.MACRO __PUTD1RONS
                 	MOV  R26,R@0
                 	MOV  R27,R@1
                 	ADIW R26,@2
                 	CALL __PUTDP1
                 	.ENDM
                 
                 
                 	.MACRO __GETB1SX
                 	MOVW R30,R28
                 	SUBI R30,LOW(-@0)
                 	SBCI R31,HIGH(-@0)
                 	LD   R30,Z
                 	.ENDM
                 
                 	.MACRO __GETB1HSX
                 	MOVW R30,R28
                 	SUBI R30,LOW(-@0)
                 	SBCI R31,HIGH(-@0)
                 	LD   R31,Z
                 	.ENDM
                 
                 	.MACRO __GETW1SX
                 	MOVW R30,R28
                 	SUBI R30,LOW(-@0)
                 	SBCI R31,HIGH(-@0)
                 	LD   R0,Z+
                 	LD   R31,Z
                 	MOV  R30,R0
                 	.ENDM
                 
                 	.MACRO __GETD1SX
                 	MOVW R30,R28
                 	SUBI R30,LOW(-@0)
                 	SBCI R31,HIGH(-@0)
                 	LD   R0,Z+
                 	LD   R1,Z+
                 	LD   R22,Z+
                 	LD   R23,Z
                 	MOVW R30,R0
                 	.ENDM
                 
                 	.MACRO __GETB2SX
                 	MOVW R26,R28
                 	SUBI R26,LOW(-@0)
                 	SBCI R27,HIGH(-@0)
                 	LD   R26,X
                 	.ENDM
                 
                 	.MACRO __GETW2SX
                 	MOVW R26,R28
                 	SUBI R26,LOW(-@0)
                 	SBCI R27,HIGH(-@0)
                 	LD   R0,X+
                 	LD   R27,X
                 	MOV  R26,R0
                 	.ENDM
                 
                 	.MACRO __GETD2SX
                 	MOVW R26,R28
                 	SUBI R26,LOW(-@0)
                 	SBCI R27,HIGH(-@0)
                 	LD   R0,X+
                 	LD   R1,X+
                 	LD   R24,X+
                 	LD   R25,X
                 	MOVW R26,R0
                 	.ENDM
                 
                 	.MACRO __GETBRSX
                 	MOVW R30,R28
                 	SUBI R30,LOW(-@1)
                 	SBCI R31,HIGH(-@1)
                 	LD   R@0,Z
                 	.ENDM
                 
                 	.MACRO __GETWRSX
                 	MOVW R30,R28
                 	SUBI R30,LOW(-@2)
                 	SBCI R31,HIGH(-@2)
                 	LD   R@0,Z+
                 	LD   R@1,Z
                 	.ENDM
                 
                 	.MACRO __GETBRSX2
                 	MOVW R26,R28
                 	SUBI R26,LOW(-@1)
                 	SBCI R27,HIGH(-@1)
                 	LD   R@0,X
                 	.ENDM
                 
                 	.MACRO __GETWRSX2
                 	MOVW R26,R28
                 	SUBI R26,LOW(-@2)
                 	SBCI R27,HIGH(-@2)
                 	LD   R@0,X+
                 	LD   R@1,X
                 	.ENDM
                 
                 	.MACRO __LSLW8SX
                 	MOVW R30,R28
                 	SUBI R30,LOW(-@0)
                 	SBCI R31,HIGH(-@0)
                 	LD   R31,Z
                 	CLR  R30
                 	.ENDM
                 
                 	.MACRO __PUTB1SX
                 	MOVW R26,R28
                 	SUBI R26,LOW(-@0)
                 	SBCI R27,HIGH(-@0)
                 	ST   X,R30
                 	.ENDM
                 
                 	.MACRO __PUTW1SX
                 	MOVW R26,R28
                 	SUBI R26,LOW(-@0)
                 	SBCI R27,HIGH(-@0)
                 	ST   X+,R30
                 	ST   X,R31
                 	.ENDM
                 
                 	.MACRO __PUTD1SX
                 	MOVW R26,R28
                 	SUBI R26,LOW(-@0)
                 	SBCI R27,HIGH(-@0)
                 	ST   X+,R30
                 	ST   X+,R31
                 	ST   X+,R22
                 	ST   X,R23
                 	.ENDM
                 
                 	.MACRO __CLRW1SX
                 	MOVW R26,R28
                 	SUBI R26,LOW(-@0)
                 	SBCI R27,HIGH(-@0)
                 	ST   X+,R30
                 	ST   X,R30
                 	.ENDM
                 
                 	.MACRO __CLRD1SX
                 	MOVW R26,R28
                 	SUBI R26,LOW(-@0)
                 	SBCI R27,HIGH(-@0)
                 	ST   X+,R30
                 	ST   X+,R30
                 	ST   X+,R30
                 	ST   X,R30
                 	.ENDM
                 
                 	.MACRO __PUTB2SX
                 	MOVW R30,R28
                 	SUBI R30,LOW(-@0)
                 	SBCI R31,HIGH(-@0)
                 	ST   Z,R26
                 	.ENDM
                 
                 	.MACRO __PUTW2SX
                 	MOVW R30,R28
                 	SUBI R30,LOW(-@0)
                 	SBCI R31,HIGH(-@0)
                 	ST   Z+,R26
                 	ST   Z,R27
                 	.ENDM
                 
                 	.MACRO __PUTD2SX
                 	MOVW R30,R28
                 	SUBI R30,LOW(-@0)
                 	SBCI R31,HIGH(-@0)
                 	ST   Z+,R26
                 	ST   Z+,R27
                 	ST   Z+,R24
                 	ST   Z,R25
                 	.ENDM
                 
                 	.MACRO __PUTBSRX
                 	MOVW R30,R28
                 	SUBI R30,LOW(-@1)
                 	SBCI R31,HIGH(-@1)
                 	ST   Z,R@0
                 	.ENDM
                 
                 	.MACRO __PUTWSRX
                 	MOVW R30,R28
                 	SUBI R30,LOW(-@2)
                 	SBCI R31,HIGH(-@2)
                 	ST   Z+,R@0
                 	ST   Z,R@1
                 	.ENDM
                 
                 	.MACRO __PUTB1SNX
                 	MOVW R26,R28
                 	SUBI R26,LOW(-@0)
                 	SBCI R27,HIGH(-@0)
                 	LD   R0,X+
                 	LD   R27,X
                 	MOV  R26,R0
                 	SUBI R26,LOW(-@1)
                 	SBCI R27,HIGH(-@1)
                 	ST   X,R30
                 	.ENDM
                 
                 	.MACRO __PUTW1SNX
                 	MOVW R26,R28
                 	SUBI R26,LOW(-@0)
                 	SBCI R27,HIGH(-@0)
                 	LD   R0,X+
                 	LD   R27,X
                 	MOV  R26,R0
                 	SUBI R26,LOW(-@1)
                 	SBCI R27,HIGH(-@1)
                 	ST   X+,R30
                 	ST   X,R31
                 	.ENDM
                 
                 	.MACRO __PUTD1SNX
                 	MOVW R26,R28
                 	SUBI R26,LOW(-@0)
                 	SBCI R27,HIGH(-@0)
                 	LD   R0,X+
                 	LD   R27,X
                 	MOV  R26,R0
                 	SUBI R26,LOW(-@1)
                 	SBCI R27,HIGH(-@1)
                 	ST   X+,R30
                 	ST   X+,R31
                 	ST   X+,R22
                 	ST   X,R23
                 	.ENDM
                 
                 	.MACRO __MULBRR
                 	MULS R@0,R@1
                 	MOVW R30,R0
                 	.ENDM
                 
                 	.MACRO __MULBRRU
                 	MUL  R@0,R@1
                 	MOVW R30,R0
                 	.ENDM
                 
                 	.MACRO __MULBRR0
                 	MULS R@0,R@1
                 	.ENDM
                 
                 	.MACRO __MULBRRU0
                 	MUL  R@0,R@1
                 	.ENDM
                 
                 	.MACRO __MULBNWRU
                 	LDI  R26,@2
                 	MUL  R26,R@0
                 	MOVW R30,R0
                 	MUL  R26,R@1
                 	ADD  R31,R0
                 	.ENDM
                 
                 ;GPIOR0 INITIALIZATION VALUE
                 	.EQU __GPIOR0_INIT=0x00
                 
                 	.CSEG
                 	.ORG 0x00
                 
                 ;START OF CODE MARKER
                 __START_OF_CODE:
                 
                 ;INTERRUPT VECTORS
000000 940c 00d0 	JMP  __RESET
000002 940c 0000 	JMP  0x00
000004 940c 0000 	JMP  0x00
000006 940c 0000 	JMP  0x00
000008 940c 0000 	JMP  0x00
00000a 940c 0000 	JMP  0x00
00000c 940c 0000 	JMP  0x00
00000e 940c 0000 	JMP  0x00
000010 940c 0000 	JMP  0x00
000012 940c 0000 	JMP  0x00
000014 940c 0000 	JMP  0x00
000016 940c 0000 	JMP  0x00
000018 940c 0000 	JMP  0x00
00001a 940c 0000 	JMP  0x00
00001c 940c 0000 	JMP  0x00
00001e 940c 0000 	JMP  0x00
000020 940c 0000 	JMP  0x00
000022 940c 020d 	JMP  _timer1_compa_isr
000024 940c 0000 	JMP  0x00
000026 940c 0000 	JMP  0x00
000028 940c 0000 	JMP  0x00
00002a 940c 0000 	JMP  0x00
00002c 940c 0000 	JMP  0x00
00002e 940c 0000 	JMP  0x00
000030 940c 0000 	JMP  0x00
000032 940c 0000 	JMP  0x00
000034 940c 0000 	JMP  0x00
000036 940c 0000 	JMP  0x00
000038 940c 0000 	JMP  0x00
00003a 940c 0000 	JMP  0x00
00003c 940c 0000 	JMP  0x00
00003e 940c 0000 	JMP  0x00
000040 940c 0000 	JMP  0x00
000042 940c 0000 	JMP  0x00
000044 940c 0000 	JMP  0x00
000046 940c 0000 	JMP  0x00
000048 940c 0000 	JMP  0x00
00004a 940c 0000 	JMP  0x00
                 
                 _k1:
00004c 2220
00004d 2b2a
00004e 5b2c
00004f 5d3d      	.DB  0x20,0x22,0x2A,0x2B,0x2C,0x5B,0x3D,0x5D
000050 7f7c
C:\Users\980006738\Documents\Semestre 8\Lab de Micros\LabMicrocontroladores\CodeVision\P02_Logger\Debug\List\logger.asm(1141): warning: .cseg .db misalignment - padding zero byte
000051 0000      	.DB  0x7C,0x7F,0x0
                 _vst_G102:
000052 0400
000053 0200
000054 0100
000055 0080      	.DB  0x0,0x4,0x0,0x2,0x0,0x1,0x80,0x0
000056 0040
000057 0020
000058 0010
000059 0008      	.DB  0x40,0x0,0x20,0x0,0x10,0x0,0x8,0x0
00005a 0004
00005b 0002
00005c 0000      	.DB  0x4,0x0,0x2,0x0,0x0,0x0
                 _cst_G102:
00005d 8000
00005e 4000
00005f 2000
000060 1000      	.DB  0x0,0x80,0x0,0x40,0x0,0x20,0x0,0x10
000061 0800
000062 4000
000063 2000
000064 1000      	.DB  0x0,0x8,0x0,0x40,0x0,0x20,0x0,0x10
000065 0800
000066 0400
000067 0200      	.DB  0x0,0x8,0x0,0x4,0x0,0x2
                 _tbl10_G103:
000068 2710
000069 03e8
00006a 0064
00006b 000a      	.DB  0x10,0x27,0xE8,0x3,0x64,0x0,0xA,0x0
00006c 0001      	.DB  0x1,0x0
                 _tbl16_G103:
00006d 1000
00006e 0100
00006f 0010
000070 0001      	.DB  0x0,0x10,0x0,0x1,0x10,0x0,0x1,0x0
                 
                 _0x3:
000071 0303
000072 0203
000073 0c02
000074 0800      	.DB  0x3,0x3,0x3,0x2,0x2,0xC,0x0,0x8
000075 0100
000076 0600      	.DB  0x0,0x1,0x0,0x6
                 _0x25:
000077 3a30
000078 756d
000079 7365
00007a 7274      	.DB  0x30,0x3A,0x6D,0x75,0x65,0x73,0x74,0x72
00007b 2e61
00007c 7874
C:\Users\980006738\Documents\Semestre 8\Lab de Micros\LabMicrocontroladores\CodeVision\P02_Logger\Debug\List\logger.asm(1161): warning: .cseg .db misalignment - padding zero byte
00007d 0074      	.DB  0x61,0x2E,0x74,0x78,0x74
                 _0x26:
C:\Users\980006738\Documents\Semestre 8\Lab de Micros\LabMicrocontroladores\CodeVision\P02_Logger\Debug\List\logger.asm(1163): warning: .cseg .db misalignment - padding zero byte
00007e 0005      	.DB  0x5
                 _0x0:
00007f 7241
000080 6863
000081 7669
000082 206f      	.DB  0x41,0x72,0x63,0x68,0x69,0x76,0x6F,0x20
000083 4f4e
000084 4520
000085 636e
000086 6e6f      	.DB  0x4E,0x4F,0x20,0x45,0x6E,0x63,0x6F,0x6E
000087 7274
000088 6461
000089 006f
00008a 7244      	.DB  0x74,0x72,0x61,0x64,0x6F,0x0,0x44,0x72
00008b 7669
00008c 2065
00008d 4f4e
00008e 4420      	.DB  0x69,0x76,0x65,0x20,0x4E,0x4F,0x20,0x44
00008f 7465
000090 6365
000091 6174
000092 6f64      	.DB  0x65,0x74,0x65,0x63,0x74,0x61,0x64,0x6F
000093 2500
000094 3230
000095 3a69
000096 3025      	.DB  0x0,0x25,0x30,0x32,0x69,0x3A,0x25,0x30
000097 6932
000098 253a
000099 3230
00009a 2069      	.DB  0x32,0x69,0x3A,0x25,0x30,0x32,0x69,0x20
00009b 3156
00009c 203a
00009d 6925
00009e 252e      	.DB  0x56,0x31,0x3A,0x20,0x25,0x69,0x2E,0x25
00009f 0069
0000a0 3025
0000a1 6932
0000a2 253a      	.DB  0x69,0x0,0x25,0x30,0x32,0x69,0x3A,0x25
0000a3 3230
0000a4 3a69
0000a5 3025
0000a6 6932      	.DB  0x30,0x32,0x69,0x3A,0x25,0x30,0x32,0x69
0000a7 5620
0000a8 3a32
0000a9 2520
0000aa 2e69      	.DB  0x20,0x56,0x32,0x3A,0x20,0x25,0x69,0x2E
0000ab 6925
C:\Users\980006738\Documents\Semestre 8\Lab de Micros\LabMicrocontroladores\CodeVision\P02_Logger\Debug\List\logger.asm(1176): warning: .cseg .db misalignment - padding zero byte
0000ac 0000      	.DB  0x25,0x69,0x0
                 _0x2020003:
C:\Users\980006738\Documents\Semestre 8\Lab de Micros\LabMicrocontroladores\CodeVision\P02_Logger\Debug\List\logger.asm(1178): warning: .cseg .db misalignment - padding zero byte
0000ad 0001      	.DB  0x1
                 _0x20200FE:
C:\Users\980006738\Documents\Semestre 8\Lab de Micros\LabMicrocontroladores\CodeVision\P02_Logger\Debug\List\logger.asm(1180): warning: .cseg .db misalignment - padding zero byte
0000ae 0004      	.DB  0x4
                 _0x2040000:
0000af feeb
0000b0 4d90
0000b1 4453
0000b2 534f      	.DB  0xEB,0xFE,0x90,0x4D,0x53,0x44,0x4F,0x53
0000b3 2e35
0000b4 0030
0000b5 4f4e
0000b6 4e20      	.DB  0x35,0x2E,0x30,0x0,0x4E,0x4F,0x20,0x4E
0000b7 4d41
0000b8 2045
0000b9 2020
0000ba 4620      	.DB  0x41,0x4D,0x45,0x20,0x20,0x20,0x20,0x46
0000bb 5441
0000bc 3233
0000bd 2020
0000be 0020      	.DB  0x41,0x54,0x33,0x32,0x20,0x20,0x20,0x0
0000bf 4f4e
0000c0 4e20
0000c1 4d41
0000c2 2045      	.DB  0x4E,0x4F,0x20,0x4E,0x41,0x4D,0x45,0x20
0000c3 2020
0000c4 4620
0000c5 5441
0000c6 2020      	.DB  0x20,0x20,0x20,0x46,0x41,0x54,0x20,0x20
0000c7 2020
0000c8 0020      	.DB  0x20,0x20,0x20,0x0
                 
                 __GLOBAL_INI_TBL:
0000c9 0001      	.DW  0x01
0000ca 092b      	.DW  _status_G101
0000cb 015a      	.DW  _0x2020003*2
                 
0000cc 0001      	.DW  0x01
0000cd 092f      	.DW  _flags_S101000C000
0000ce 015c      	.DW  _0x20200FE*2
                 
                 _0xFFFFFFFF:
0000cf 0000      	.DW  0
                 
                 #define __GLOBAL_INI_TBL_PRESENT 1
                 
                 __RESET:
0000d0 94f8      	CLI
0000d1 27ee      	CLR  R30
0000d2 bbef      	OUT  EECR,R30
                 
                 ;INTERRUPT VECTORS ARE PLACED
                 ;AT THE START OF FLASH
0000d3 e0f1      	LDI  R31,1
0000d4 bff5      	OUT  MCUCR,R31
0000d5 bfe5      	OUT  MCUCR,R30
                 
                 ;CLEAR R2-R14
0000d6 e08d      	LDI  R24,(14-2)+1
0000d7 e0a2      	LDI  R26,2
0000d8 27bb      	CLR  R27
                 __CLEAR_REG:
0000d9 93ed      	ST   X+,R30
0000da 958a      	DEC  R24
0000db f7e9      	BRNE __CLEAR_REG
                 
                 ;CLEAR SRAM
0000dc e080      	LDI  R24,LOW(__CLEAR_SRAM_SIZE)
0000dd e290      	LDI  R25,HIGH(__CLEAR_SRAM_SIZE)
0000de e0a0      	LDI  R26,LOW(__SRAM_START)
0000df e0b1      	LDI  R27,HIGH(__SRAM_START)
                 __CLEAR_SRAM:
0000e0 93ed      	ST   X+,R30
0000e1 9701      	SBIW R24,1
0000e2 f7e9      	BRNE __CLEAR_SRAM
                 
                 ;GLOBAL VARIABLES INITIALIZATION
0000e3 e9e2      	LDI  R30,LOW(__GLOBAL_INI_TBL*2)
0000e4 e0f1      	LDI  R31,HIGH(__GLOBAL_INI_TBL*2)
                 __GLOBAL_INI_NEXT:
0000e5 9185      	LPM  R24,Z+
0000e6 9195      	LPM  R25,Z+
0000e7 9700      	SBIW R24,0
0000e8 f061      	BREQ __GLOBAL_INI_END
0000e9 91a5      	LPM  R26,Z+
0000ea 91b5      	LPM  R27,Z+
0000eb 9005      	LPM  R0,Z+
0000ec 9015      	LPM  R1,Z+
0000ed 01bf      	MOVW R22,R30
0000ee 01f0      	MOVW R30,R0
                 __GLOBAL_INI_LOOP:
0000ef 9005      	LPM  R0,Z+
0000f0 920d      	ST   X+,R0
0000f1 9701      	SBIW R24,1
0000f2 f7e1      	BRNE __GLOBAL_INI_LOOP
0000f3 01fb      	MOVW R30,R22
0000f4 cff0      	RJMP __GLOBAL_INI_NEXT
                 __GLOBAL_INI_END:
                 
0000f5 bf8b      	OUT  RAMPZ,R24
                 
                 ;GPIOR0 INITIALIZATION
0000f6 e0e0      	LDI  R30,__GPIOR0_INIT
0000f7 bbee      	OUT  GPIOR0,R30
                 
                 ;HARDWARE STACK POINTER INITIALIZATION
0000f8 efef      	LDI  R30,LOW(__SRAM_END-__HEAP_SIZE)
0000f9 bfed      	OUT  SPL,R30
0000fa e2e0      	LDI  R30,HIGH(__SRAM_END-__HEAP_SIZE)
0000fb bfee      	OUT  SPH,R30
                 
                 ;DATA STACK POINTER INITIALIZATION
0000fc e0c0      	LDI  R28,LOW(__SRAM_START+__DSTACK_SIZE)
0000fd e0d9      	LDI  R29,HIGH(__SRAM_START+__DSTACK_SIZE)
                 
0000fe 940c 028e 	JMP  _main
                 
                 	.ESEG
                 	.ORG 0
                 
                 	.DSEG
                 	.ORG 0x900
                 
                 	.CSEG
                 ;/*
                 ; * logger.c
                 ; *
                 ; * Created: 25-Feb-20 4:46:27 PM
                 ; * Author: javie
                 ; */
                 ;
                 ;// LCD config
                 ;#asm
                     .equ __lcd_port=0x11
                     .equ __lcd_EN=4
                     .equ __lcd_RS=5
                     .equ __lcd_D4=0
                     .equ __lcd_D5=1
                     .equ __lcd_D6=2
                     .equ __lcd_D7=3
                 ; 0000 0011 #endasm
                 ;
                 ;// DS1302 config
                 ;#asm
                 	.equ __ds1302_port=0x0B
                 	.equ __ds1302_io=2
                 	.equ __ds1302_sclk=1
                 	.equ __ds1302_rst=0
                 ; 0000 0019 #endasm
                 ;
                 ;#include <90usb1286.h>
                 	#ifndef __SLEEP_DEFINED__
                 	#define __SLEEP_DEFINED__
                 	.EQU __se_bit=0x01
                 	.EQU __sm_mask=0x0E
                 	.EQU __sm_powerdown=0x04
                 	.EQU __sm_powersave=0x06
                 	.EQU __sm_standby=0x0C
                 	.EQU __sm_ext_standby=0x0E
                 	.EQU __sm_adc_noise_red=0x02
                 	.SET power_ctrl_reg=smcr
                 	#endif
                 ;#include <ds1302.h>
                 ;#include <display.h>
                 
                 	.CSEG
                 _SetupLCD:
                 ; .FSTART _SetupLCD
000100 972c      	SBIW R28,12
000101 e08c      	LDI  R24,12
000102 e0a0      	LDI  R26,LOW(0)
000103 e0b0      	LDI  R27,HIGH(0)
000104 eee2      	LDI  R30,LOW(_0x3*2)
000105 e0f0      	LDI  R31,HIGH(_0x3*2)
000106 940e 09e2 	CALL __INITLOCB
000108 930a      	ST   -Y,R16
                 ;	TableSetup -> Y+1
                 ;	i -> R16
                 ; 0000 001D     SBI __lcd_port-1,__lcd_EN
000109 9a84          SBI __lcd_port-1,__lcd_EN
00010a 9a85          SBI __lcd_port-1,__lcd_RS
00010b 9a80          SBI __lcd_port-1,__lcd_D4
00010c 9a81          SBI __lcd_port-1,__lcd_D5
00010d 9a82          SBI __lcd_port-1,__lcd_D6
00010e 9a83          SBI __lcd_port-1,__lcd_D7
00010f e3a2      	LDI  R26,LOW(50)
000110 e0b0      	LDI  R27,0
000111 940e 0818 	CALL _delay_ms
000113 e000      	LDI  R16,LOW(0)
                 _0x5:
000114 300c      	CPI  R16,12
000115 f468      	BRSH _0x6
000116 940e 0732 	CALL SUBOPT_0x0
000118 2fe0      	MOV  R30,R16
000119 e0f0      	LDI  R31,0
00011a 01de      	MOVW R26,R28
00011b 9611      	ADIW R26,1
00011c 0fae      	ADD  R26,R30
00011d 1fbf      	ADC  R27,R31
00011e 91ac      	LD   R26,X
00011f 940e 0736 	CALL SUBOPT_0x1
000121 5f0f      	SUBI R16,-1
000122 cff1      	RJMP _0x5
                 _0x6:
000123 e0ec      	LDI  R30,LOW(12)
000124 93e0 0900 	STS  _cursor,R30
000126 91a0 0900 	LDS  R26,_cursor
000128 d021      	RCALL _WriteComandLCD
000129 8108      	LDD  R16,Y+0
00012a 962d      	ADIW R28,13
00012b 9508      	RET
                 ; .FEND
                 _PulseEn:
                 ; .FSTART _PulseEn
00012c 9a8c          SBI __lcd_port,__lcd_EN  // EN=1;
00012d 988c          CBI __lcd_port,__lcd_EN // EN=0;
00012e 9508      	RET
                 ; .FEND
                 _SendDataBitsLCD:
                 ; .FSTART _SendDataBitsLCD
00012f 93aa      	ST   -Y,R26
                 ;	dato -> Y+0
000130 81e8      	LD   R30,Y
000131 70e8      	ANDI R30,LOW(0x8)
000132 f011      	BREQ _0x7
000133 9a8b      	SBI __lcd_port,__lcd_D7
000134 c001      	RJMP _0x8
                 _0x7:
000135 988b      	CBI __lcd_port,__lcd_D7
                 _0x8:
000136 81e8      	LD   R30,Y
000137 70e4      	ANDI R30,LOW(0x4)
000138 f011      	BREQ _0x9
000139 9a8a      	SBI __lcd_port,__lcd_D6
00013a c001      	RJMP _0xA
                 _0x9:
00013b 988a      	CBI __lcd_port,__lcd_D6
                 _0xA:
00013c 81e8      	LD   R30,Y
00013d 70e2      	ANDI R30,LOW(0x2)
00013e f011      	BREQ _0xB
00013f 9a89      	SBI __lcd_port,__lcd_D5
000140 c001      	RJMP _0xC
                 _0xB:
000141 9889      	CBI __lcd_port,__lcd_D5
                 _0xC:
000142 81e8      	LD   R30,Y
000143 70e1      	ANDI R30,LOW(0x1)
000144 f011      	BREQ _0xD
000145 9a88      	SBI __lcd_port,__lcd_D4
000146 c001      	RJMP _0xE
                 _0xD:
000147 9888      	CBI __lcd_port,__lcd_D4
                 _0xE:
000148 940c 034e 	JMP  _0x20E000B
                 ; .FEND
                 _WriteComandLCD:
                 ; .FSTART _WriteComandLCD
00014a 93aa      	ST   -Y,R26
00014b 930a      	ST   -Y,R16
                 ;	Comando -> Y+1
                 ;	tempComando -> R16
00014c 988d      	CBI __lcd_port,__lcd_RS
00014d 940e 0732 	CALL SUBOPT_0x0
00014f 940e 073a 	CALL SUBOPT_0x2
000151 940e 0741 	CALL SUBOPT_0x3
000153 dfd8      	RCALL _PulseEn
000154 8108      	LDD  R16,Y+0
000155 940c 035b 	JMP  _0x20E000A
                 ; .FEND
                 _CharLCD:
                 ; .FSTART _CharLCD
000157 93aa      	ST   -Y,R26
000158 930a      	ST   -Y,R16
                 ;	dato -> Y+1
                 ;	tempdato -> R16
000159 9a8d      	SBI __lcd_port,__lcd_RS
00015a 940e 0732 	CALL SUBOPT_0x0
00015c 940e 073a 	CALL SUBOPT_0x2
00015e 940e 0741 	CALL SUBOPT_0x3
000160 dfcb      	RCALL _PulseEn
000161 8108      	LDD  R16,Y+0
000162 940c 035b 	JMP  _0x20E000A
                 ; .FEND
                 ;	i -> R16
                 ;	tiempo -> Y+1
                 ;	i -> R16
                 _StringLCDVar:
                 ; .FSTART _StringLCDVar
000164 93ba      	ST   -Y,R27
000165 93aa      	ST   -Y,R26
000166 930a      	ST   -Y,R16
                 ;	Mensaje -> Y+1
                 ;	i -> R16
000167 e000      	LDI  R16,LOW(0)
                 _0x16:
000168 2fe0      	MOV  R30,R16
000169 5f0f      	SUBI R16,-1
00016a 81a9      	LDD  R26,Y+1
00016b 81ba      	LDD  R27,Y+1+1
00016c e0f0      	LDI  R31,0
00016d 0fae      	ADD  R26,R30
00016e 1fbf      	ADC  R27,R31
00016f 91ac      	LD   R26,X
000170 dfe6      	RCALL _CharLCD
000171 81a9      	LDD  R26,Y+1
000172 81ba      	LDD  R27,Y+1+1
000173 27ee      	CLR  R30
000174 0fa0      	ADD  R26,R16
000175 1fbe      	ADC  R27,R30
000176 91ec      	LD   R30,X
000177 30e0      	CPI  R30,0
000178 f779      	BRNE _0x16
000179 940c 0452 	JMP  _0x20E0006
                 ; .FEND
                 _MoveCursor:
                 ; .FSTART _MoveCursor
00017b 93aa      	ST   -Y,R26
                 ;	x -> Y+1
                 ;	y -> Y+0
00017c 81e8      	LD   R30,Y
00017d e0f0      	LDI  R31,0
00017e 9730      	SBIW R30,0
00017f f419      	BRNE _0x1B
000180 81a9      	LDD  R26,Y+1
000181 58a0      	SUBI R26,-LOW(128)
000182 c014      	RJMP _0x3B
                 _0x1B:
000183 30e1      	CPI  R30,LOW(0x1)
000184 e0a0      	LDI  R26,HIGH(0x1)
000185 07fa      	CPC  R31,R26
000186 f419      	BRNE _0x1C
000187 81a9      	LDD  R26,Y+1
000188 54a0      	SUBI R26,-LOW(192)
000189 c00d      	RJMP _0x3B
                 _0x1C:
00018a 30e2      	CPI  R30,LOW(0x2)
00018b e0a0      	LDI  R26,HIGH(0x2)
00018c 07fa      	CPC  R31,R26
00018d f419      	BRNE _0x1D
00018e 81a9      	LDD  R26,Y+1
00018f 56ac      	SUBI R26,-LOW(148)
000190 c006      	RJMP _0x3B
                 _0x1D:
000191 30e3      	CPI  R30,LOW(0x3)
000192 e0a0      	LDI  R26,HIGH(0x3)
000193 07fa      	CPC  R31,R26
000194 f419      	BRNE _0x1A
000195 81a9      	LDD  R26,Y+1
000196 52ac      	SUBI R26,-LOW(212)
                 _0x3B:
000197 dfb2      	RCALL _WriteComandLCD
                 _0x1A:
000198 940c 035b 	JMP  _0x20E000A
                 ; .FEND
                 ;	NoCaracter -> Y+3
                 ;	datos -> Y+1
                 ;	i -> R16
                 ;#include <delay.h>
                 ;#include <stdio.h>
                 ;#include <ff.h>
                 ;
                 ;// ADC
                 ;
                 ;// ADC variables
                 ;
                 ;
                 ;// Voltage Reference: Int., cap. on AREF
                 ;#define ADC_VREF_TYPE ((1<<REFS1) | (1<<REFS0) | (0<<ADLAR))
                 ;
                 ;// Read the AD conversion result
                 ;unsigned int read_adc(unsigned char adc_input)
                 ; 0000 002C {
                 _read_adc:
                 ; .FSTART _read_adc
                 ; 0000 002D ADMUX=adc_input | ADC_VREF_TYPE;
00019a 93aa      	ST   -Y,R26
                 ;	adc_input -> Y+0
00019b 81e8      	LD   R30,Y
00019c 6ce0      	ORI  R30,LOW(0xC0)
00019d 93e0 007c 	STS  124,R30
                 ; 0000 002E // Delay needed for the stabilization of the ADC input voltage
                 ; 0000 002F delay_us(10);
                +
00019f e087     +LDI R24 , LOW ( 7 )
                +__DELAY_USB_LOOP :
0001a0 958a     +DEC R24
0001a1 f7f1     +BRNE __DELAY_USB_LOOP
                 	__DELAY_USB 7
                 ; 0000 0030 // Start the AD conversion
                 ; 0000 0031 ADCSRA|=(1<<ADSC);
0001a2 91e0 007a 	LDS  R30,122
0001a4 64e0      	ORI  R30,0x40
0001a5 93e0 007a 	STS  122,R30
                 ; 0000 0032 // Wait for the AD conversion to complete
                 ; 0000 0033 while ((ADCSRA & (1<<ADIF))==0);
                 _0x22:
0001a7 91e0 007a 	LDS  R30,122
0001a9 71e0      	ANDI R30,LOW(0x10)
0001aa f3e1      	BREQ _0x22
                 ; 0000 0034 ADCSRA|=(1<<ADIF);
0001ab 91e0 007a 	LDS  R30,122
0001ad 61e0      	ORI  R30,0x10
0001ae 93e0 007a 	STS  122,R30
                 ; 0000 0035 return ADCW;
0001b0 91e0 0078 	LDS  R30,120
0001b2 91f0 0079 	LDS  R31,120+1
0001b4 940c 034e 	JMP  _0x20E000B
                 ; 0000 0036 }
                 ; .FEND
                 ;
                 ;float v1, v2;
                 ;int v1I, v1D, v2I, v2D;
                 ;
                 ;void updateADC(){
                 ; 0000 003B void updateADC(){
                 _updateADC:
                 ; .FSTART _updateADC
                 ; 0000 003C 
                 ; 0000 003D     v1 = (read_adc(6)*5.0)/1024.0;
0001b6 e0a6      	LDI  R26,LOW(6)
0001b7 940e 0748 	CALL SUBOPT_0x4
0001b9 93e0 0905 	STS  _v1,R30
0001bb 93f0 0906 	STS  _v1+1,R31
0001bd 9360 0907 	STS  _v1+2,R22
0001bf 9370 0908 	STS  _v1+3,R23
                 ; 0000 003E     v2 = (read_adc(7)*5.0)/1024.0;
0001c1 e0a7      	LDI  R26,LOW(7)
0001c2 940e 0748 	CALL SUBOPT_0x4
0001c4 93e0 0909 	STS  _v2,R30
0001c6 93f0 090a 	STS  _v2+1,R31
0001c8 9360 090b 	STS  _v2+2,R22
0001ca 9370 090c 	STS  _v2+3,R23
                 ; 0000 003F     v1I = (int)v1;
0001cc 91e0 0905 	LDS  R30,_v1
0001ce 91f0 0906 	LDS  R31,_v1+1
0001d0 9160 0907 	LDS  R22,_v1+2
0001d2 9170 0908 	LDS  R23,_v1+3
0001d4 940e 0851 	CALL __CFD1
0001d6 93e0 090d 	STS  _v1I,R30
0001d8 93f0 090e 	STS  _v1I+1,R31
                 ; 0000 0040     v1D = (int)((v1 - (float)v1I)*100.0);
0001da 940e 09b0 	CALL __CWD1
0001dc 940e 0888 	CALL __CDF1
0001de 91a0 0905 	LDS  R26,_v1
0001e0 91b0 0906 	LDS  R27,_v1+1
0001e2 9180 0907 	LDS  R24,_v1+2
0001e4 9190 0908 	LDS  R25,_v1+3
0001e6 940e 075d 	CALL SUBOPT_0x5
0001e8 93e0 090f 	STS  _v1D,R30
0001ea 93f0 0910 	STS  _v1D+1,R31
                 ; 0000 0041     v2I = (int)v2;
0001ec 91e0 0909 	LDS  R30,_v2
0001ee 91f0 090a 	LDS  R31,_v2+1
0001f0 9160 090b 	LDS  R22,_v2+2
0001f2 9170 090c 	LDS  R23,_v2+3
0001f4 940e 0851 	CALL __CFD1
0001f6 93e0 0911 	STS  _v2I,R30
0001f8 93f0 0912 	STS  _v2I+1,R31
                 ; 0000 0042     v2D = (int)((v2 - (float)v2I)*100.0);
0001fa 940e 09b0 	CALL __CWD1
0001fc 940e 0888 	CALL __CDF1
0001fe 91a0 0909 	LDS  R26,_v2
000200 91b0 090a 	LDS  R27,_v2+1
000202 9180 090b 	LDS  R24,_v2+2
000204 9190 090c 	LDS  R25,_v2+3
000206 940e 075d 	CALL SUBOPT_0x5
000208 93e0 0913 	STS  _v2D,R30
00020a 93f0 0914 	STS  _v2D+1,R31
                 ; 0000 0043 }
00020c 9508      	RET
                 ; .FEND
                 ;
                 ;// SD
                 ;char fileName[]  = "0:muestra.txt";
                 
                 	.DSEG
                 ;unsigned char STM=5, GS=0;
                 ;
                 ;interrupt [TIM1_COMPA] void timer1_compa_isr(void)
                 ; 0000 004A {
                 
                 	.CSEG
                 _timer1_compa_isr:
                 ; .FSTART _timer1_compa_isr
00020d 920a      	ST   -Y,R0
00020e 921a      	ST   -Y,R1
00020f 92fa      	ST   -Y,R15
000210 936a      	ST   -Y,R22
000211 937a      	ST   -Y,R23
000212 938a      	ST   -Y,R24
000213 939a      	ST   -Y,R25
000214 93aa      	ST   -Y,R26
000215 93ba      	ST   -Y,R27
000216 93ea      	ST   -Y,R30
000217 93fa      	ST   -Y,R31
000218 b7ef      	IN   R30,SREG
000219 93ea      	ST   -Y,R30
                 ; 0000 004B disk_timerproc();
00021a 940e 0524 	CALL _disk_timerproc
                 ; 0000 004C /* MMC/SD/SD HC card access low level timing function */
                 ; 0000 004D }
00021c 91e9      	LD   R30,Y+
00021d bfef      	OUT  SREG,R30
00021e 91f9      	LD   R31,Y+
00021f 91e9      	LD   R30,Y+
000220 91b9      	LD   R27,Y+
000221 91a9      	LD   R26,Y+
000222 9199      	LD   R25,Y+
000223 9189      	LD   R24,Y+
000224 9179      	LD   R23,Y+
000225 9169      	LD   R22,Y+
000226 90f9      	LD   R15,Y+
000227 9019      	LD   R1,Y+
000228 9009      	LD   R0,Y+
000229 9518      	RETI
                 ; .FEND
                 ;
                 ;// Open SD
                 ;
                 ;void sd(char NombreArchivo[], char *TextoEscritura){
                 ; 0000 0051 void sd(char NombreArchivo[], char *TextoEscritura){
                 ; 0000 0052 
                 ; 0000 0053     unsigned int br;
                 ; 0000 0054     char buffer[100];
                 ; 0000 0055 
                 ; 0000 0056     /* FAT function result */
                 ; 0000 0057     FRESULT res;
                 ; 0000 0058 
                 ; 0000 0059     /* will hold the information for logical drive 0: */
                 ; 0000 005A     FATFS drive;
                 ; 0000 005B     FIL archivo; // file objects
                 ; 0000 005C 
                 ; 0000 005D     /* mount logical drive 0: */
                 ; 0000 005E     if ((res=f_mount(0,&drive))==FR_OK){
                 ;	NombreArchivo -> Y+1211
                 ;	*TextoEscritura -> Y+1209
                 ;	br -> R16,R17
                 ;	buffer -> Y+1109
                 ;	res -> R18
                 ;	drive -> Y+547
                 ;	archivo -> Y+3
                 ; 0000 005F 
                 ; 0000 0060         /*Lectura de Archivo*/
                 ; 0000 0061         res = f_open(&archivo, NombreArchivo, FA_OPEN_ALWAYS | FA_WRITE | FA_READ);
                 ; 0000 0062         if (res==FR_OK){
                 ; 0000 0063 
                 ; 0000 0064             f_read(&archivo, buffer, 10,&br); //leer archivo en buffer
                 ; 0000 0065 
                 ; 0000 0066             f_lseek(&archivo,archivo.fsize);
                 ; 0000 0067 
                 ; 0000 0068             buffer[0] = 0x0D;                //Carriage return
                 ; 0000 0069             buffer[1] = 0x0A;                //Line Feed
                 ; 0000 006A             f_write(&archivo,buffer,2,&br);
                 ; 0000 006B             /*Escribiendo el Texto*/
                 ; 0000 006C             f_write(&archivo,TextoEscritura,sizeof(TextoEscritura),&br);   // Write of TextoEscritura
                 ; 0000 006D             f_close(&archivo);
                 ; 0000 006E         }
                 ; 0000 006F         else{
                 ; 0000 0070             StringLCD("Archivo NO Encontrado");
                 ; 0000 0071         }
                 ; 0000 0072     }
                 ; 0000 0073     else{
                 ; 0000 0074          StringLCD("Drive NO Detectado");
                 ; 0000 0075     }
                 ; 0000 0076     f_mount(0, 0); //Cerrar drive de SD
                 ; 0000 0077 }
                 ;
                 ;// Clock
                 ;unsigned char H=0,M=0,S=0, D=0,Mes=0,A=0; // Variables for clock
                 ;
                 ;unsigned char time[16];
                 ;
                 ;void updateClock(){
                 ; 0000 007E void updateClock(){
                 _updateClock:
                 ; .FSTART _updateClock
                 ; 0000 007F     rtc_get_time(&H, &M, &S);
00022a e1e5      	LDI  R30,LOW(_H)
00022b e0f9      	LDI  R31,HIGH(_H)
00022c 93fa      	ST   -Y,R31
00022d 93ea      	ST   -Y,R30
00022e e1e6      	LDI  R30,LOW(_M)
00022f e0f9      	LDI  R31,HIGH(_M)
000230 93fa      	ST   -Y,R31
000231 93ea      	ST   -Y,R30
000232 e1a7      	LDI  R26,LOW(_S)
000233 e0b9      	LDI  R27,HIGH(_S)
000234 940e 037d 	CALL _rtc_get_time
                 ; 0000 0080     rtc_get_date(&D, &Mes, &A);
000236 e1e8      	LDI  R30,LOW(_D)
000237 e0f9      	LDI  R31,HIGH(_D)
000238 93fa      	ST   -Y,R31
000239 93ea      	ST   -Y,R30
00023a e1e9      	LDI  R30,LOW(_Mes)
00023b e0f9      	LDI  R31,HIGH(_Mes)
00023c 93fa      	ST   -Y,R31
00023d 93ea      	ST   -Y,R30
00023e e1aa      	LDI  R26,LOW(_A)
00023f e0b9      	LDI  R27,HIGH(_A)
000240 940e 039a 	CALL _rtc_get_date
                 ; 0000 0081 }
000242 9508      	RET
                 ; .FEND
                 ;
                 ;// LCD
                 ;void printTime(){
                 ; 0000 0084 void printTime(){
                 _printTime:
                 ; .FSTART _printTime
                 ; 0000 0085     sprintf(time, "%02i:%02i:%02i V1: %i.%i", H, M, S, v1I,v1D);
000243 e1eb      	LDI  R30,LOW(_time)
000244 e0f9      	LDI  R31,HIGH(_time)
000245 93fa      	ST   -Y,R31
000246 93ea      	ST   -Y,R30
                +
000247 e2e7     +LDI R30 , LOW ( 2 * _0x0 + ( 41 ) )
000248 e0f1     +LDI R31 , HIGH ( 2 * _0x0 + ( 41 ) )
                 	__POINTW1FN _0x0,41
000249 93fa      	ST   -Y,R31
00024a 93ea      	ST   -Y,R30
00024b 91e0 0915 	LDS  R30,_H
00024d 940e 076a 	CALL SUBOPT_0x6
00024f 91e0 0916 	LDS  R30,_M
000251 940e 076a 	CALL SUBOPT_0x6
000253 91e0 0917 	LDS  R30,_S
000255 940e 076a 	CALL SUBOPT_0x6
000257 91e0 090d 	LDS  R30,_v1I
000259 91f0 090e 	LDS  R31,_v1I+1
00025b 940e 0770 	CALL SUBOPT_0x7
00025d 91e0 090f 	LDS  R30,_v1D
00025f 91f0 0910 	LDS  R31,_v1D+1
000261 940e 0770 	CALL SUBOPT_0x7
000263 940e 0775 	CALL SUBOPT_0x8
                 ; 0000 0086     MoveCursor(0,0);
000265 e0a0      	LDI  R26,LOW(0)
000266 940e 077c 	CALL SUBOPT_0x9
                 ; 0000 0087     StringLCDVar(time);
                 ; 0000 0088     sprintf(time, "%02i:%02i:%02i V2: %i.%i", D, Mes, A, v2I,v2D);
000268 e1eb      	LDI  R30,LOW(_time)
000269 e0f9      	LDI  R31,HIGH(_time)
00026a 93fa      	ST   -Y,R31
00026b 93ea      	ST   -Y,R30
                +
00026c e4e0     +LDI R30 , LOW ( 2 * _0x0 + ( 66 ) )
00026d e0f1     +LDI R31 , HIGH ( 2 * _0x0 + ( 66 ) )
                 	__POINTW1FN _0x0,66
00026e 93fa      	ST   -Y,R31
00026f 93ea      	ST   -Y,R30
000270 91e0 0918 	LDS  R30,_D
000272 940e 076a 	CALL SUBOPT_0x6
000274 91e0 0919 	LDS  R30,_Mes
000276 940e 076a 	CALL SUBOPT_0x6
000278 91e0 091a 	LDS  R30,_A
00027a 940e 076a 	CALL SUBOPT_0x6
00027c 91e0 0911 	LDS  R30,_v2I
00027e 91f0 0912 	LDS  R31,_v2I+1
000280 940e 0770 	CALL SUBOPT_0x7
000282 91e0 0913 	LDS  R30,_v2D
000284 91f0 0914 	LDS  R31,_v2D+1
000286 940e 0770 	CALL SUBOPT_0x7
000288 940e 0775 	CALL SUBOPT_0x8
                 ; 0000 0089     MoveCursor(0,1);
00028a e0a1      	LDI  R26,LOW(1)
00028b 940e 077c 	CALL SUBOPT_0x9
                 ; 0000 008A     StringLCDVar(time);
                 ; 0000 008B }
00028d 9508      	RET
                 ; .FEND
                 ;
                 ;
                 ;void main(void)
                 ; 0000 008F {
                 _main:
                 ; .FSTART _main
                 ; 0000 0090 
                 ; 0000 0091 // ADC initialization
                 ; 0000 0092 // ADC Clock frequency: 1000.000 kHz
                 ; 0000 0093 // ADC Voltage Reference: Int., cap. on AREF
                 ; 0000 0094 // ADC High Speed Mode: On
                 ; 0000 0095 // Digital input buffers on ADC0: On, ADC1: On, ADC2: On, ADC3: On
                 ; 0000 0096 // ADC4: On, ADC5: On, ADC6: Off, ADC7: Off
                 ; 0000 0097 DIDR0=(1<<ADC7D) | (1<<ADC6D) | (0<<ADC5D) | (0<<ADC4D) | (0<<ADC3D) | (0<<ADC2D) | (0<<ADC1D) | (0<<ADC0D);
00028e ece0      	LDI  R30,LOW(192)
00028f 93e0 007e 	STS  126,R30
                 ; 0000 0098 ADMUX=ADC_VREF_TYPE;
000291 93e0 007c 	STS  124,R30
                 ; 0000 0099 ADCSRA=(1<<ADEN) | (0<<ADSC) | (0<<ADATE) | (0<<ADIF) | (0<<ADIE) | (0<<ADPS2) | (0<<ADPS1) | (1<<ADPS0);
000293 e8e1      	LDI  R30,LOW(129)
000294 93e0 007a 	STS  122,R30
                 ; 0000 009A ADCSRB=(1<<ADHSM);
000296 e8e0      	LDI  R30,LOW(128)
000297 93e0 007b 	STS  123,R30
                 ; 0000 009B 
                 ; 0000 009C // LCD
                 ; 0000 009D SetupLCD();
000299 940e 0100 	CALL _SetupLCD
                 ; 0000 009E 
                 ; 0000 009F // DS1302
                 ; 0000 00A0 rtc_init(0,0,0);
00029b e0e0      	LDI  R30,LOW(0)
00029c 93ea      	ST   -Y,R30
00029d 93ea      	ST   -Y,R30
00029e e0a0      	LDI  R26,LOW(0)
00029f 940e 035d 	CALL _rtc_init
                 ; 0000 00A1 
                 ; 0000 00A2 // SD
                 ; 0000 00A3 // Cdigo para hacer una interrupcin peridica cada 10ms
                 ; 0000 00A4 // Timer/Counter 1 initialization
                 ; 0000 00A5 // Clock source: System Clock
                 ; 0000 00A6 // Clock value: 1000.000 kHz
                 ; 0000 00A7 // Mode: CTC top=OCR1A
                 ; 0000 00A8 // Compare A Match Interrupt: On
                 ; 0000 00A9 TCCR1B=0x09;
0002a1 e0e9      	LDI  R30,LOW(9)
0002a2 93e0 0081 	STS  129,R30
                 ; 0000 00AA OCR1AH=19999/256;
0002a4 e4ee      	LDI  R30,LOW(78)
0002a5 93e0 0089 	STS  137,R30
                 ; 0000 00AB OCR1AL=19999%256;   //20000cuentas a 0.5us por cuenta=10mseg
0002a7 e1ef      	LDI  R30,LOW(31)
0002a8 93e0 0088 	STS  136,R30
                 ; 0000 00AC TIMSK1=0x02;
0002aa e0e2      	LDI  R30,LOW(2)
0002ab 93e0 006f 	STS  111,R30
                 ; 0000 00AD SetupLCD();
0002ad 940e 0100 	CALL _SetupLCD
                 ; 0000 00AE #asm("sei")
0002af 9478      	sei
                 ; 0000 00AF /* Inicia el puerto SPI para la SD */
                 ; 0000 00B0 disk_initialize(0);
0002b0 e0a0      	LDI  R26,LOW(0)
0002b1 940e 0455 	CALL _disk_initialize
                 ; 0000 00B1 delay_ms(200);
0002b3 eca8      	LDI  R26,LOW(200)
0002b4 e0b0      	LDI  R27,0
0002b5 940e 0818 	CALL _delay_ms
                 ; 0000 00B2 
                 ; 0000 00B3 // First actions
                 ; 0000 00B4 PORTC = 0xFF;
0002b7 efef      	LDI  R30,LOW(255)
0002b8 b9e8      	OUT  0x8,R30
                 ; 0000 00B5 
                 ; 0000 00B6 while (1)
                 _0x2B:
                 ; 0000 00B7     {
                 ; 0000 00B8     // Please write your application code here
                 ; 0000 00B9         // Verify the correct range on clock time
                 ; 0000 00BA 
                 ; 0000 00BB         // ADC
                 ; 0000 00BC         updateADC();
0002b9 defc      	RCALL _updateADC
                 ; 0000 00BD 
                 ; 0000 00BE         // Clock
                 ; 0000 00BF         updateClock();
0002ba df6f      	RCALL _updateClock
                 ; 0000 00C0         printTime();
0002bb df87      	RCALL _printTime
                 ; 0000 00C1 
                 ; 0000 00C2         // If alarm is on, switch will turn alarm off without
                 ; 0000 00C3         //  changing the default variable
                 ; 0000 00C4         if(!PINC.0){
0002bc 9930      	SBIC 0x6,0
0002bd c005      	RJMP _0x2E
                 ; 0000 00C5             H++;
0002be 91e0 0915 	LDS  R30,_H
0002c0 5fef      	SUBI R30,-LOW(1)
0002c1 940e 0782 	CALL SUBOPT_0xA
                 ; 0000 00C6             rtc_set_time(H, M, S);
                 ; 0000 00C7         }
                 ; 0000 00C8         if(!PINC.1){
                 _0x2E:
0002c3 9931      	SBIC 0x6,1
0002c4 c005      	RJMP _0x2F
                 ; 0000 00C9             M++;
0002c5 91e0 0916 	LDS  R30,_M
0002c7 5fef      	SUBI R30,-LOW(1)
0002c8 940e 078c 	CALL SUBOPT_0xB
                 ; 0000 00CA             rtc_set_time(H, M, S);
                 ; 0000 00CB         }
                 ; 0000 00CC         if(!PINC.2){
                 _0x2F:
0002ca 9932      	SBIC 0x6,2
0002cb c002      	RJMP _0x30
                 ; 0000 00CD             S=0;
0002cc 940e 0798 	CALL SUBOPT_0xC
                 ; 0000 00CE             rtc_set_time(H, M, S);
                 ; 0000 00CF         }
                 ; 0000 00D0         if(!PINC.3){
                 _0x30:
0002ce 9933      	SBIC 0x6,3
0002cf c005      	RJMP _0x31
                 ; 0000 00D1             D++;
0002d0 91e0 0918 	LDS  R30,_D
0002d2 5fef      	SUBI R30,-LOW(1)
0002d3 940e 07a5 	CALL SUBOPT_0xD
                 ; 0000 00D2             rtc_set_date(D, Mes, A);
                 ; 0000 00D3         }
                 ; 0000 00D4         if(!PINC.3){
                 _0x31:
0002d5 9933      	SBIC 0x6,3
0002d6 c005      	RJMP _0x32
                 ; 0000 00D5             Mes++;
0002d7 91e0 0919 	LDS  R30,_Mes
0002d9 5fef      	SUBI R30,-LOW(1)
0002da 940e 07af 	CALL SUBOPT_0xE
                 ; 0000 00D6             rtc_set_date(D, Mes, A);
                 ; 0000 00D7         }
                 ; 0000 00D8         if(!PINC.3){
                 _0x32:
0002dc 9933      	SBIC 0x6,3
0002dd c005      	RJMP _0x33
                 ; 0000 00D9             A++;
0002de 91e0 091a 	LDS  R30,_A
0002e0 5fef      	SUBI R30,-LOW(1)
0002e1 940e 07bb 	CALL SUBOPT_0xF
                 ; 0000 00DA             rtc_set_date(D, Mes, A);
                 ; 0000 00DB         }
                 ; 0000 00DC         if(S>59){
                 _0x33:
0002e3 91a0 0917 	LDS  R26,_S
0002e5 33ac      	CPI  R26,LOW(0x3C)
0002e6 f010      	BRLO _0x34
                 ; 0000 00DD             S=0;
0002e7 940e 0798 	CALL SUBOPT_0xC
                 ; 0000 00DE             rtc_set_time(H, M, S);
                 ; 0000 00DF         }
                 ; 0000 00E0         if(M>59){
                 _0x34:
0002e9 91a0 0916 	LDS  R26,_M
0002eb 33ac      	CPI  R26,LOW(0x3C)
0002ec f018      	BRLO _0x35
                 ; 0000 00E1             M=0;
0002ed e0e0      	LDI  R30,LOW(0)
0002ee 940e 078c 	CALL SUBOPT_0xB
                 ; 0000 00E2             rtc_set_time(H, M, S);
                 ; 0000 00E3         }
                 ; 0000 00E4         if(H>23){
                 _0x35:
0002f0 91a0 0915 	LDS  R26,_H
0002f2 31a8      	CPI  R26,LOW(0x18)
0002f3 f018      	BRLO _0x36
                 ; 0000 00E5             H=0;
0002f4 e0e0      	LDI  R30,LOW(0)
0002f5 940e 0782 	CALL SUBOPT_0xA
                 ; 0000 00E6             rtc_set_time(H, M, S);
                 ; 0000 00E7         }
                 ; 0000 00E8         if(D>31){
                 _0x36:
0002f7 91a0 0918 	LDS  R26,_D
0002f9 32a0      	CPI  R26,LOW(0x20)
0002fa f018      	BRLO _0x37
                 ; 0000 00E9             D=0;
0002fb e0e0      	LDI  R30,LOW(0)
0002fc 940e 07a5 	CALL SUBOPT_0xD
                 ; 0000 00EA             rtc_set_date(D, Mes, A);
                 ; 0000 00EB         }
                 ; 0000 00EC         if(Mes>12){
                 _0x37:
0002fe 91a0 0919 	LDS  R26,_Mes
000300 30ad      	CPI  R26,LOW(0xD)
000301 f018      	BRLO _0x38
                 ; 0000 00ED             Mes=0;
000302 e0e0      	LDI  R30,LOW(0)
000303 940e 07af 	CALL SUBOPT_0xE
                 ; 0000 00EE             rtc_set_date(D, Mes, A);
                 ; 0000 00EF         }
                 ; 0000 00F0         if(A>25){
                 _0x38:
000305 91a0 091a 	LDS  R26,_A
000307 31aa      	CPI  R26,LOW(0x1A)
000308 f018      	BRLO _0x39
                 ; 0000 00F1             A=00;
000309 e0e0      	LDI  R30,LOW(0)
00030a 940e 07bb 	CALL SUBOPT_0xF
                 ; 0000 00F2             rtc_set_date(D, Mes, A);
                 ; 0000 00F3         }
                 ; 0000 00F4     }
                 _0x39:
00030c cfac      	RJMP _0x2B
                 ; 0000 00F5 }
                 _0x3A:
00030d cfff      	RJMP _0x3A
                 ; .FEND
                 
                 	.CSEG
                 _ds1302_rst0_G100:
                 ; .FSTART _ds1302_rst0_G100
00030e 9858      	cbi  __ds1302_port,__ds1302_rst
                +
00030f e083     +LDI R24 , LOW ( 3 )
                +__DELAY_USB_LOOP :
000310 958a     +DEC R24
000311 f7f1     +BRNE __DELAY_USB_LOOP
                 	__DELAY_USB 3
000312 9508      	RET
                 ; .FEND
                 _ds1302_write0_G100:
                 ; .FSTART _ds1302_write0_G100
000313 93aa      	ST   -Y,R26
000314 9a51          sbi  __ds1302_port-1,__ds1302_sclk
000315 9a52          sbi  __ds1302_port-1,__ds1302_io
000316 9a50          sbi  __ds1302_port-1,__ds1302_rst
000317 9a58          sbi  __ds1302_port,__ds1302_rst
                +
000318 e083     +LDI R24 , LOW ( 3 )
                +__DELAY_USB_LOOP :
000319 958a     +DEC R24
00031a f7f1     +BRNE __DELAY_USB_LOOP
                 	__DELAY_USB 3
00031b 81a8      	LD   R26,Y
00031c d002      	RCALL _ds1302_write1_G100
00031d 940c 034e 	JMP  _0x20E000B
                 ; .FEND
                 _ds1302_write1_G100:
                 ; .FSTART _ds1302_write1_G100
00031f 93aa      	ST   -Y,R26
000320 91e9          ld   r30,y+
000321 e0a8          ldi  r26,8
                 ds1302_write2:
000322 95e7          ror  r30
000323 985a          cbi  __ds1302_port,__ds1302_io
000324 f408          brcc ds1302_write3
000325 9a5a          sbi  __ds1302_port,__ds1302_io
                 ds1302_write3:
000326 0000          nop
000327 0000          nop
000328 0000          nop
000329 0000          nop
00032a 9a59          sbi  __ds1302_port,__ds1302_sclk
                +
00032b e081     +LDI R24 , LOW ( 1 )
                +__DELAY_USB_LOOP :
00032c 958a     +DEC R24
00032d f7f1     +BRNE __DELAY_USB_LOOP
                 	__DELAY_USB 1
00032e 9859      	cbi  __ds1302_port,__ds1302_sclk
                +
00032f e081     +LDI R24 , LOW ( 1 )
                +__DELAY_USB_LOOP :
000330 958a     +DEC R24
000331 f7f1     +BRNE __DELAY_USB_LOOP
                 	__DELAY_USB 1
000332 95aa          dec  r26
000333 f771          brne ds1302_write2
000334 9508          ret
                 ; .FEND
                 _ds1302_read:
                 ; .FSTART _ds1302_read
000335 93aa      	ST   -Y,R26
000336 81e8      	LD   R30,Y
000337 60e1      	ORI  R30,1
000338 2fae      	MOV  R26,R30
000339 940e 0313 	CALL _ds1302_write0_G100
00033b 985a          cbi  __ds1302_port,__ds1302_io
00033c 9852          cbi  __ds1302_port-1,__ds1302_io
00033d e0a8          ldi  r26,8
                 ds1302_read0:
00033e 9488          clc
00033f 994a      	sbic __ds1302_port-2,__ds1302_io
000340 9408          sec
000341 95e7          ror  r30
000342 9a59          sbi  __ds1302_port,__ds1302_sclk
                +
000343 e081     +LDI R24 , LOW ( 1 )
                +__DELAY_USB_LOOP :
000344 958a     +DEC R24
000345 f7f1     +BRNE __DELAY_USB_LOOP
                 	__DELAY_USB 1
000346 9859      	cbi  __ds1302_port,__ds1302_sclk
                +
000347 e081     +LDI R24 , LOW ( 1 )
                +__DELAY_USB_LOOP :
000348 958a     +DEC R24
000349 f7f1     +BRNE __DELAY_USB_LOOP
                 	__DELAY_USB 1
00034a 95aa          dec  r26
00034b f791          brne ds1302_read0
00034c 940e 030e 	CALL _ds1302_rst0_G100
                 _0x20E000B:
00034e 9621      	ADIW R28,1
00034f 9508      	RET
                 ; .FEND
                 _ds1302_write:
                 ; .FSTART _ds1302_write
000350 93aa      	ST   -Y,R26
000351 81e9      	LDD  R30,Y+1
000352 7fee      	ANDI R30,0xFE
000353 2fae      	MOV  R26,R30
000354 940e 0313 	CALL _ds1302_write0_G100
000356 81a8      	LD   R26,Y
000357 940e 031f 	CALL _ds1302_write1_G100
000359 940e 030e 	CALL _ds1302_rst0_G100
                 _0x20E000A:
00035b 9622      	ADIW R28,2
00035c 9508      	RET
                 ; .FEND
                 _rtc_init:
                 ; .FSTART _rtc_init
00035d 93aa      	ST   -Y,R26
00035e 81e8      	LD   R30,Y
00035f 70e3      	ANDI R30,LOW(0x3)
000360 83e8      	ST   Y,R30
000361 81ea      	LDD  R30,Y+2
000362 30e0      	CPI  R30,0
000363 f019      	BREQ _0x2000003
000364 81e8      	LD   R30,Y
000365 6ae0      	ORI  R30,LOW(0xA0)
000366 83e8      	ST   Y,R30
                 _0x2000003:
000367 81a9      	LDD  R26,Y+1
000368 30a1      	CPI  R26,LOW(0x1)
000369 f419      	BRNE _0x2000004
00036a 81e8      	LD   R30,Y
00036b 60e4      	ORI  R30,4
00036c c007      	RJMP _0x2000008
                 _0x2000004:
00036d 81a9      	LDD  R26,Y+1
00036e 30a2      	CPI  R26,LOW(0x2)
00036f f419      	BRNE _0x2000006
000370 81e8      	LD   R30,Y
000371 60e8      	ORI  R30,8
000372 c001      	RJMP _0x2000008
                 _0x2000006:
000373 e0e0      	LDI  R30,LOW(0)
                 _0x2000008:
000374 83e8      	ST   Y,R30
000375 940e 07c7 	CALL SUBOPT_0x10
000377 e9e0      	LDI  R30,LOW(144)
000378 93ea      	ST   -Y,R30
000379 81a9      	LDD  R26,Y+1
00037a 940e 07cc 	CALL SUBOPT_0x11
00037c c0d6      	RJMP _0x20E0005
                 ; .FEND
                 _rtc_get_time:
                 ; .FSTART _rtc_get_time
00037d 93ba      	ST   -Y,R27
00037e 93aa      	ST   -Y,R26
00037f e8a5      	LDI  R26,LOW(133)
000380 940e 07d3 	CALL SUBOPT_0x12
000382 81ac      	LDD  R26,Y+4
000383 81bd      	LDD  R27,Y+4+1
000384 93ec      	ST   X,R30
000385 e8a3      	LDI  R26,LOW(131)
000386 940e 07d3 	CALL SUBOPT_0x12
000388 81aa      	LDD  R26,Y+2
000389 81bb      	LDD  R27,Y+2+1
00038a 93ec      	ST   X,R30
00038b e8a1      	LDI  R26,LOW(129)
00038c c01c      	RJMP _0x20E0009
                 ; .FEND
                 _rtc_set_time:
                 ; .FSTART _rtc_set_time
00038d 93aa      	ST   -Y,R26
00038e 940e 07c7 	CALL SUBOPT_0x10
000390 e8e4      	LDI  R30,LOW(132)
000391 940e 07d8 	CALL SUBOPT_0x13
000393 e8e2      	LDI  R30,LOW(130)
000394 940e 07df 	CALL SUBOPT_0x14
000396 e8e0      	LDI  R30,LOW(128)
000397 940e 07e6 	CALL SUBOPT_0x15
000399 c0b9      	RJMP _0x20E0005
                 ; .FEND
                 _rtc_get_date:
                 ; .FSTART _rtc_get_date
00039a 93ba      	ST   -Y,R27
00039b 93aa      	ST   -Y,R26
00039c e8a7      	LDI  R26,LOW(135)
00039d 940e 07d3 	CALL SUBOPT_0x12
00039f 81ac      	LDD  R26,Y+4
0003a0 81bd      	LDD  R27,Y+4+1
0003a1 93ec      	ST   X,R30
0003a2 e8a9      	LDI  R26,LOW(137)
0003a3 940e 07d3 	CALL SUBOPT_0x12
0003a5 81aa      	LDD  R26,Y+2
0003a6 81bb      	LDD  R27,Y+2+1
0003a7 93ec      	ST   X,R30
0003a8 e8ad      	LDI  R26,LOW(141)
                 _0x20E0009:
0003a9 df8b      	RCALL _ds1302_read
0003aa 2fae      	MOV  R26,R30
0003ab 940e 0702 	CALL _bcd2bin
0003ad 81a8      	LD   R26,Y
0003ae 81b9      	LDD  R27,Y+1
0003af 93ec      	ST   X,R30
0003b0 9626      	ADIW R28,6
0003b1 9508      	RET
                 ; .FEND
                 _rtc_set_date:
                 ; .FSTART _rtc_set_date
0003b2 93aa      	ST   -Y,R26
0003b3 940e 07c7 	CALL SUBOPT_0x10
0003b5 e8e6      	LDI  R30,LOW(134)
0003b6 940e 07d8 	CALL SUBOPT_0x13
0003b8 e8e8      	LDI  R30,LOW(136)
0003b9 940e 07df 	CALL SUBOPT_0x14
0003bb e8ec      	LDI  R30,LOW(140)
0003bc 940e 07e6 	CALL SUBOPT_0x15
0003be c094      	RJMP _0x20E0005
                 ; .FEND
                 	#ifndef __SLEEP_DEFINED__
                 	#endif
                 
                 	.DSEG
                 
                 	.CSEG
                 _wait_ready_G101:
                 ; .FSTART _wait_ready_G101
0003bf 930a      	ST   -Y,R16
0003c0 e3e2      	LDI  R30,LOW(50)
0003c1 93e0 092d 	STS  _timer2_G101,R30
0003c3 efef      	LDI  R30,LOW(255)
0003c4 bdee      	OUT  0x2E,R30
                 _0x202000B:
0003c5 b5ed      	IN   R30,0x2D
0003c6 ffe7      	SBRS R30,7
0003c7 cffd      	RJMP _0x202000B
                 _0x202000F:
0003c8 efef      	LDI  R30,LOW(255)
0003c9 bdee      	OUT  0x2E,R30
                 _0x2020011:
0003ca b5ed      	IN   R30,0x2D
0003cb ffe7      	SBRS R30,7
0003cc cffd      	RJMP _0x2020011
0003cd b50e      	IN   R16,46
0003ce 3f0f      	CPI  R16,255
0003cf f021      	BREQ _0x2020014
0003d0 91e0 092d 	LDS  R30,_timer2_G101
0003d2 30e0      	CPI  R30,0
0003d3 f409      	BRNE _0x2020015
                 _0x2020014:
0003d4 c001      	RJMP _0x2020010
                 _0x2020015:
0003d5 cff2      	RJMP _0x202000F
                 _0x2020010:
0003d6 2fe0      	MOV  R30,R16
0003d7 c180      	RJMP _0x20E0002
                 ; .FEND
                 _deselect_card_G101:
                 ; .FSTART _deselect_card_G101
0003d8 9a28      	SBI  0x5,0
0003d9 efef      	LDI  R30,LOW(255)
0003da bdee      	OUT  0x2E,R30
                 _0x2020016:
0003db b5ed      	IN   R30,0x2D
0003dc ffe7      	SBRS R30,7
0003dd cffd      	RJMP _0x2020016
0003de 9508      	RET
                 ; .FEND
                 _send_cmd_G101:
                 ; .FSTART _send_cmd_G101
0003df 940e 09c2 	CALL __PUTPARD2
0003e1 931a      	ST   -Y,R17
0003e2 930a      	ST   -Y,R16
0003e3 81ee      	LDD  R30,Y+6
0003e4 78e0      	ANDI R30,LOW(0x80)
0003e5 f071      	BREQ _0x202004F
0003e6 81ee      	LDD  R30,Y+6
0003e7 77ef      	ANDI R30,0x7F
0003e8 83ee      	STD  Y+6,R30
0003e9 e7e7      	LDI  R30,LOW(119)
0003ea 93ea      	ST   -Y,R30
                +
0003eb e0a0     +LDI R26 , LOW ( 0x0 )
0003ec e0b0     +LDI R27 , HIGH ( 0x0 )
0003ed e080     +LDI R24 , BYTE3 ( 0x0 )
0003ee e090     +LDI R25 , BYTE4 ( 0x0 )
                 	__GETD2N 0x0
0003ef dfef      	RCALL _send_cmd_G101
0003f0 2f1e      	MOV  R17,R30
0003f1 3012      	CPI  R17,2
0003f2 f008      	BRLO _0x2020050
0003f3 c046      	RJMP _0x20E0008
                 _0x2020050:
                 _0x202004F:
0003f4 81ae      	LDD  R26,Y+6
0003f5 34ac      	CPI  R26,LOW(0x4C)
0003f6 f039      	BREQ _0x2020051
0003f7 dfe0      	RCALL _deselect_card_G101
0003f8 9828      	CBI  0x5,0
0003f9 dfc5      	RCALL _wait_ready_G101
0003fa 3fef      	CPI  R30,LOW(0xFF)
0003fb f011      	BREQ _0x2020052
0003fc efef      	LDI  R30,LOW(255)
0003fd c03d      	RJMP _0x20E0007
                 _0x2020052:
                 _0x2020051:
0003fe 81ee      	LDD  R30,Y+6
0003ff bdee      	OUT  0x2E,R30
                 _0x2020053:
000400 b5ed      	IN   R30,0x2D
000401 ffe7      	SBRS R30,7
000402 cffd      	RJMP _0x2020053
000403 81ed      	LDD  R30,Y+5
000404 bdee      	OUT  0x2E,R30
                 _0x2020056:
000405 b5ed      	IN   R30,0x2D
000406 ffe7      	SBRS R30,7
000407 cffd      	RJMP _0x2020056
000408 81ec      	LDD  R30,Y+4
000409 bdee      	OUT  0x2E,R30
                 _0x2020059:
00040a b5ed      	IN   R30,0x2D
00040b ffe7      	SBRS R30,7
00040c cffd      	RJMP _0x2020059
00040d 81eb      	LDD  R30,Y+3
00040e bdee      	OUT  0x2E,R30
                 _0x202005C:
00040f b5ed      	IN   R30,0x2D
000410 ffe7      	SBRS R30,7
000411 cffd      	RJMP _0x202005C
000412 81ea      	LDD  R30,Y+2
000413 bdee      	OUT  0x2E,R30
                 _0x202005F:
000414 b5ed      	IN   R30,0x2D
000415 ffe7      	SBRS R30,7
000416 cffd      	RJMP _0x202005F
000417 e001      	LDI  R16,LOW(1)
000418 81ae      	LDD  R26,Y+6
000419 34a0      	CPI  R26,LOW(0x40)
00041a f411      	BRNE _0x2020062
00041b e905      	LDI  R16,LOW(149)
00041c c004      	RJMP _0x2020063
                 _0x2020062:
00041d 81ae      	LDD  R26,Y+6
00041e 34a8      	CPI  R26,LOW(0x48)
00041f f409      	BRNE _0x2020064
000420 e807      	LDI  R16,LOW(135)
                 _0x2020064:
                 _0x2020063:
000421 bd0e      	OUT  0x2E,R16
                 _0x2020065:
000422 b5ed      	IN   R30,0x2D
000423 ffe7      	SBRS R30,7
000424 cffd      	RJMP _0x2020065
000425 81ae      	LDD  R26,Y+6
000426 34ac      	CPI  R26,LOW(0x4C)
000427 f429      	BRNE _0x2020068
000428 efef      	LDI  R30,LOW(255)
000429 bdee      	OUT  0x2E,R30
                 _0x2020069:
00042a b5ed      	IN   R30,0x2D
00042b ffe7      	SBRS R30,7
00042c cffd      	RJMP _0x2020069
                 _0x2020068:
00042d ef0f      	LDI  R16,LOW(255)
                 _0x202006D:
00042e efef      	LDI  R30,LOW(255)
00042f bdee      	OUT  0x2E,R30
                 _0x202006F:
000430 b5ed      	IN   R30,0x2D
000431 ffe7      	SBRS R30,7
000432 cffd      	RJMP _0x202006F
000433 b51e      	IN   R17,46
000434 ff17      	SBRS R17,7
000435 c002      	RJMP _0x2020072
000436 5001      	SUBI R16,LOW(1)
000437 f409      	BRNE _0x2020073
                 _0x2020072:
000438 c001      	RJMP _0x202006E
                 _0x2020073:
000439 cff4      	RJMP _0x202006D
                 _0x202006E:
                 _0x20E0008:
00043a 2fe1      	MOV  R30,R17
                 _0x20E0007:
00043b 8119      	LDD  R17,Y+1
00043c 8108      	LDD  R16,Y+0
00043d 9627      	ADIW R28,7
00043e 9508      	RET
                 ; .FEND
                 _rx_spi4_G101:
                 ; .FSTART _rx_spi4_G101
00043f 93ba      	ST   -Y,R27
000440 93aa      	ST   -Y,R26
000441 930a      	ST   -Y,R16
000442 e004      	LDI  R16,4
                 _0x2020075:
000443 efef      	LDI  R30,LOW(255)
000444 bdee      	OUT  0x2E,R30
                 _0x2020077:
000445 b5ed      	IN   R30,0x2D
000446 ffe7      	SBRS R30,7
000447 cffd      	RJMP _0x2020077
000448 81a9      	LDD  R26,Y+1
000449 81ba      	LDD  R27,Y+1+1
00044a 9611      	ADIW R26,1
00044b 83a9      	STD  Y+1,R26
00044c 83ba      	STD  Y+1+1,R27
00044d 9711      	SBIW R26,1
00044e b5ee      	IN   R30,0x2E
00044f 93ec      	ST   X,R30
000450 5001      	SUBI R16,LOW(1)
000451 f789      	BRNE _0x2020075
                 _0x20E0006:
000452 8108      	LDD  R16,Y+0
                 _0x20E0005:
000453 9623      	ADIW R28,3
000454 9508      	RET
                 ; .FEND
                 _disk_initialize:
                 ; .FSTART _disk_initialize
000455 93aa      	ST   -Y,R26
000456 9724      	SBIW R28,4
000457 940e 09d7 	CALL __SAVELOCR3
000459 81ef      	LDD  R30,Y+7
00045a 30e0      	CPI  R30,0
00045b f011      	BREQ _0x202007A
00045c e0e1      	LDI  R30,LOW(1)
00045d c0c2      	RJMP _0x20E0004
                 _0x202007A:
00045e 9824      	CBI  0x4,4
00045f 9825      	CBI  0x4,5
000460 e0ea      	LDI  R30,LOW(10)
000461 93e0 092c 	STS  _timer1_G101,R30
                 _0x202007B:
000463 91e0 092c 	LDS  R30,_timer1_G101
000465 30e0      	CPI  R30,0
000466 f7e1      	BRNE _0x202007B
000467 91e0 092b 	LDS  R30,_status_G101
000469 70e2      	ANDI R30,LOW(0x2)
00046a f009      	BREQ _0x202007E
00046b c0b2      	RJMP _0x20E0003
                 _0x202007E:
00046c 9a20      	SBI  0x4,0
00046d 9a28      	SBI  0x5,0
00046e b1e5      	IN   R30,0x5
00046f 7fe9      	ANDI R30,LOW(0xF9)
000470 b9e5      	OUT  0x5,R30
000471 9a2b      	SBI  0x5,3
000472 9823      	CBI  0x4,3
000473 b1e4      	IN   R30,0x4
000474 60e7      	ORI  R30,LOW(0x7)
000475 b9e4      	OUT  0x4,R30
000476 e5e1      	LDI  R30,LOW(81)
000477 bdec      	OUT  0x2C,R30
000478 e0e0      	LDI  R30,LOW(0)
000479 bded      	OUT  0x2D,R30
00047a ef2f      	LDI  R18,LOW(255)
                 _0x2020080:
00047b e00a      	LDI  R16,LOW(10)
                 _0x2020083:
00047c efef      	LDI  R30,LOW(255)
00047d bdee      	OUT  0x2E,R30
                 _0x2020085:
00047e b5ed      	IN   R30,0x2D
00047f ffe7      	SBRS R30,7
000480 cffd      	RJMP _0x2020085
000481 5001      	SUBI R16,LOW(1)
000482 f7c9      	BRNE _0x2020083
000483 e4e0      	LDI  R30,LOW(64)
000484 93ea      	ST   -Y,R30
                +
000485 e0a0     +LDI R26 , LOW ( 0x0 )
000486 e0b0     +LDI R27 , HIGH ( 0x0 )
000487 e080     +LDI R24 , BYTE3 ( 0x0 )
000488 e090     +LDI R25 , BYTE4 ( 0x0 )
                 	__GETD2N 0x0
000489 df55      	RCALL _send_cmd_G101
00048a 2f1e      	MOV  R17,R30
00048b 5021      	SUBI R18,LOW(1)
00048c 3011      	CPI  R17,1
00048d f011      	BREQ _0x2020088
00048e 3020      	CPI  R18,0
00048f f409      	BRNE _0x2020089
                 _0x2020088:
000490 c001      	RJMP _0x2020081
                 _0x2020089:
000491 cfe9      	RJMP _0x2020080
                 _0x2020081:
000492 e020      	LDI  R18,LOW(0)
000493 3011      	CPI  R17,1
000494 f009      	BREQ PC+2
000495 c068      	RJMP _0x202008A
000496 e6e4      	LDI  R30,LOW(100)
000497 93e0 092c 	STS  _timer1_G101,R30
000499 e4e8      	LDI  R30,LOW(72)
00049a 93ea      	ST   -Y,R30
                +
00049b eaaa     +LDI R26 , LOW ( 0x1AA )
00049c e0b1     +LDI R27 , HIGH ( 0x1AA )
00049d e080     +LDI R24 , BYTE3 ( 0x1AA )
00049e e090     +LDI R25 , BYTE4 ( 0x1AA )
                 	__GETD2N 0x1AA
00049f df3f      	RCALL _send_cmd_G101
0004a0 30e1      	CPI  R30,LOW(0x1)
0004a1 f591      	BRNE _0x202008B
0004a2 01de      	MOVW R26,R28
0004a3 9613      	ADIW R26,3
0004a4 df9a      	RCALL _rx_spi4_G101
0004a5 81ad      	LDD  R26,Y+5
0004a6 30a1      	CPI  R26,LOW(0x1)
0004a7 f419      	BRNE _0x202008D
0004a8 81ae      	LDD  R26,Y+6
0004a9 3aaa      	CPI  R26,LOW(0xAA)
0004aa f009      	BREQ _0x202008E
                 _0x202008D:
0004ab c027      	RJMP _0x202008C
                 _0x202008E:
                 _0x202008F:
0004ac 91e0 092c 	LDS  R30,_timer1_G101
0004ae 30e0      	CPI  R30,0
0004af f049      	BREQ _0x2020092
0004b0 eee9      	LDI  R30,LOW(233)
0004b1 93ea      	ST   -Y,R30
                +
0004b2 e0a0     +LDI R26 , LOW ( 0x40000000 )
0004b3 e0b0     +LDI R27 , HIGH ( 0x40000000 )
0004b4 e080     +LDI R24 , BYTE3 ( 0x40000000 )
0004b5 e490     +LDI R25 , BYTE4 ( 0x40000000 )
                 	__GETD2N 0x40000000
0004b6 df28      	RCALL _send_cmd_G101
0004b7 30e0      	CPI  R30,0
0004b8 f409      	BRNE _0x2020093
                 _0x2020092:
0004b9 c001      	RJMP _0x2020091
                 _0x2020093:
0004ba cff1      	RJMP _0x202008F
                 _0x2020091:
0004bb 91e0 092c 	LDS  R30,_timer1_G101
0004bd 30e0      	CPI  R30,0
0004be f049      	BREQ _0x2020095
0004bf e7ea      	LDI  R30,LOW(122)
0004c0 93ea      	ST   -Y,R30
                +
0004c1 e0a0     +LDI R26 , LOW ( 0x0 )
0004c2 e0b0     +LDI R27 , HIGH ( 0x0 )
0004c3 e080     +LDI R24 , BYTE3 ( 0x0 )
0004c4 e090     +LDI R25 , BYTE4 ( 0x0 )
                 	__GETD2N 0x0
0004c5 df19      	RCALL _send_cmd_G101
0004c6 30e0      	CPI  R30,0
0004c7 f009      	BREQ _0x2020096
                 _0x2020095:
0004c8 c00a      	RJMP _0x2020094
                 _0x2020096:
0004c9 01de      	MOVW R26,R28
0004ca 9613      	ADIW R26,3
0004cb df73      	RCALL _rx_spi4_G101
0004cc 81eb      	LDD  R30,Y+3
0004cd 74e0      	ANDI R30,LOW(0x40)
0004ce f011      	BREQ _0x2020097
0004cf e0ec      	LDI  R30,LOW(12)
0004d0 c001      	RJMP _0x2020098
                 _0x2020097:
0004d1 e0e4      	LDI  R30,LOW(4)
                 _0x2020098:
0004d2 2f2e      	MOV  R18,R30
                 _0x2020094:
                 _0x202008C:
0004d3 c02a      	RJMP _0x202009A
                 _0x202008B:
0004d4 eee9      	LDI  R30,LOW(233)
0004d5 93ea      	ST   -Y,R30
                +
0004d6 e0a0     +LDI R26 , LOW ( 0x0 )
0004d7 e0b0     +LDI R27 , HIGH ( 0x0 )
0004d8 e080     +LDI R24 , BYTE3 ( 0x0 )
0004d9 e090     +LDI R25 , BYTE4 ( 0x0 )
                 	__GETD2N 0x0
0004da df04      	RCALL _send_cmd_G101
0004db 30e2      	CPI  R30,LOW(0x2)
0004dc f418      	BRSH _0x202009B
0004dd e022      	LDI  R18,LOW(2)
0004de ee19      	LDI  R17,LOW(233)
0004df c002      	RJMP _0x202009C
                 _0x202009B:
0004e0 e021      	LDI  R18,LOW(1)
0004e1 e411      	LDI  R17,LOW(65)
                 _0x202009C:
                 _0x202009D:
0004e2 91e0 092c 	LDS  R30,_timer1_G101
0004e4 30e0      	CPI  R30,0
0004e5 f041      	BREQ _0x20200A0
0004e6 931a      	ST   -Y,R17
                +
0004e7 e0a0     +LDI R26 , LOW ( 0x0 )
0004e8 e0b0     +LDI R27 , HIGH ( 0x0 )
0004e9 e080     +LDI R24 , BYTE3 ( 0x0 )
0004ea e090     +LDI R25 , BYTE4 ( 0x0 )
                 	__GETD2N 0x0
0004eb def3      	RCALL _send_cmd_G101
0004ec 30e0      	CPI  R30,0
0004ed f409      	BRNE _0x20200A1
                 _0x20200A0:
0004ee c001      	RJMP _0x202009F
                 _0x20200A1:
0004ef cff2      	RJMP _0x202009D
                 _0x202009F:
0004f0 91e0 092c 	LDS  R30,_timer1_G101
0004f2 30e0      	CPI  R30,0
0004f3 f049      	BREQ _0x20200A3
0004f4 e5e0      	LDI  R30,LOW(80)
0004f5 93ea      	ST   -Y,R30
                +
0004f6 e0a0     +LDI R26 , LOW ( 0x200 )
0004f7 e0b2     +LDI R27 , HIGH ( 0x200 )
0004f8 e080     +LDI R24 , BYTE3 ( 0x200 )
0004f9 e090     +LDI R25 , BYTE4 ( 0x200 )
                 	__GETD2N 0x200
0004fa dee4      	RCALL _send_cmd_G101
0004fb 30e0      	CPI  R30,0
0004fc f009      	BREQ _0x20200A2
                 _0x20200A3:
0004fd e020      	LDI  R18,LOW(0)
                 _0x20200A2:
                 _0x202009A:
                 _0x202008A:
0004fe 9320 092e 	STS  _card_type_G101,R18
000500 ded7      	RCALL _deselect_card_G101
000501 3020      	CPI  R18,0
000502 f051      	BREQ _0x20200A5
000503 91e0 092b 	LDS  R30,_status_G101
000505 7fee      	ANDI R30,0xFE
000506 93e0 092b 	STS  _status_G101,R30
000508 e5e0      	LDI  R30,LOW(80)
000509 bdec      	OUT  0x2C,R30
00050a e0e1      	LDI  R30,LOW(1)
00050b bded      	OUT  0x2D,R30
00050c c011      	RJMP _0x20200A6
                 _0x20200A5:
00050d 9828      	CBI  0x5,0
00050e deb0      	RCALL _wait_ready_G101
00050f dec8      	RCALL _deselect_card_G101
000510 e0e0      	LDI  R30,LOW(0)
000511 bdec      	OUT  0x2C,R30
000512 b1e4      	IN   R30,0x4
000513 7fe0      	ANDI R30,LOW(0xF0)
000514 b9e4      	OUT  0x4,R30
000515 b1e5      	IN   R30,0x5
000516 7fe0      	ANDI R30,LOW(0xF0)
000517 b9e5      	OUT  0x5,R30
000518 9820      	CBI  0x4,0
000519 91e0 092b 	LDS  R30,_status_G101
00051b 60e1      	ORI  R30,1
00051c 93e0 092b 	STS  _status_G101,R30
                 _0x20200A6:
                 _0x20E0003:
00051e 91e0 092b 	LDS  R30,_status_G101
                 _0x20E0004:
000520 940e 09de 	CALL __LOADLOCR3
000522 9628      	ADIW R28,8
000523 9508      	RET
                 ; .FEND
                 _disk_timerproc:
                 ; .FSTART _disk_timerproc
                 
                 	.DSEG
                 
                 	.CSEG
000524 930a      	ST   -Y,R16
000525 9100 092c 	LDS  R16,_timer1_G101
000527 3000      	CPI  R16,0
000528 f019      	BREQ _0x20200FF
000529 5001      	SUBI R16,LOW(1)
00052a 9300 092c 	STS  _timer1_G101,R16
                 _0x20200FF:
00052c 9100 092d 	LDS  R16,_timer2_G101
00052e 3000      	CPI  R16,0
00052f f019      	BREQ _0x2020100
000530 5001      	SUBI R16,LOW(1)
000531 9300 092d 	STS  _timer2_G101,R16
                 _0x2020100:
000533 9100 092f 	LDS  R16,_flags_S101000C000
000535 e0e0      	LDI  R30,LOW(0)
000536 93e0 092f 	STS  _flags_S101000C000,R30
000538 991c      	SBIC 0x3,4
000539 c003      	RJMP _0x2020101
00053a e0e1      	LDI  R30,LOW(1)
00053b 93e0 092f 	STS  _flags_S101000C000,R30
                 _0x2020101:
00053d 9b1d      	SBIS 0x3,5
00053e c005      	RJMP _0x2020102
00053f 91e0 092f 	LDS  R30,_flags_S101000C000
000541 60e2      	ORI  R30,2
000542 93e0 092f 	STS  _flags_S101000C000,R30
                 _0x2020102:
000544 91e0 092f 	LDS  R30,_flags_S101000C000
000546 17e0      	CP   R30,R16
000547 f481      	BRNE _0x2020103
000548 9100 092b 	LDS  R16,_status_G101
00054a 70e1      	ANDI R30,LOW(0x1)
00054b f011      	BREQ _0x2020104
00054c 7f0d      	ANDI R16,LOW(253)
00054d c001      	RJMP _0x2020105
                 _0x2020104:
00054e 6003      	ORI  R16,LOW(3)
                 _0x2020105:
00054f 91e0 092f 	LDS  R30,_flags_S101000C000
000551 70e2      	ANDI R30,LOW(0x2)
000552 f011      	BREQ _0x2020106
000553 6004      	ORI  R16,LOW(4)
000554 c001      	RJMP _0x2020107
                 _0x2020106:
000555 7f0b      	ANDI R16,LOW(251)
                 _0x2020107:
000556 9300 092b 	STS  _status_G101,R16
                 _0x2020103:
                 _0x20E0002:
000558 9109      	LD   R16,Y+
000559 9508      	RET
                 ; .FEND
                 
                 	.CSEG
                 	#ifndef __SLEEP_DEFINED__
                 	#endif
                 
                 	.CSEG
                 _put_buff_G103:
                 ; .FSTART _put_buff_G103
00055a 93ba      	ST   -Y,R27
00055b 93aa      	ST   -Y,R26
00055c 931a      	ST   -Y,R17
00055d 930a      	ST   -Y,R16
00055e 81aa      	LDD  R26,Y+2
00055f 81bb      	LDD  R27,Y+2+1
000560 9612      	ADIW R26,2
000561 940e 09b5 	CALL __GETW1P
000563 9730      	SBIW R30,0
000564 f159      	BREQ _0x206002D
000565 81aa      	LDD  R26,Y+2
000566 81bb      	LDD  R27,Y+2+1
000567 9614      	ADIW R26,4
000568 940e 09b5 	CALL __GETW1P
00056a 018f      	MOVW R16,R30
00056b 9730      	SBIW R30,0
00056c f061      	BREQ _0x206002F
                +
00056d 3002     +CPI R16 , LOW ( 2 )
00056e e0e0     +LDI R30 , HIGH ( 2 )
00056f 071e     +CPC R17 , R30
                 	__CPWRN 16,17,2
000570 f098      	BRLO _0x2060030
000571 01f8      	MOVW R30,R16
000572 9731      	SBIW R30,1
000573 018f      	MOVW R16,R30
                +
000574 81aa     +LDD R26 , Y + 2
000575 81bb     +LDD R27 , Y + 2 + 1
000576 9614     +ADIW R26 , 4
000577 93ed     +ST X + , R30
000578 93fc     +ST X , R31
                 	__PUTW1SNS 2,4
                 _0x206002F:
000579 81aa      	LDD  R26,Y+2
00057a 81bb      	LDD  R27,Y+2+1
00057b 9612      	ADIW R26,2
00057c 91ed      	LD   R30,X+
00057d 91fd      	LD   R31,X+
00057e 9631      	ADIW R30,1
00057f 93fe      	ST   -X,R31
000580 93ee      	ST   -X,R30
000581 9731      	SBIW R30,1
000582 81ac      	LDD  R26,Y+4
000583 83a0      	STD  Z+0,R26
                 _0x2060030:
000584 81aa      	LDD  R26,Y+2
000585 81bb      	LDD  R27,Y+2+1
000586 940e 09b5 	CALL __GETW1P
000588 23ff      	TST  R31
000589 f02a      	BRMI _0x2060031
00058a 91ed      	LD   R30,X+
00058b 91fd      	LD   R31,X+
00058c 9631      	ADIW R30,1
00058d 93fe      	ST   -X,R31
00058e 93ee      	ST   -X,R30
                 _0x2060031:
00058f c006      	RJMP _0x2060032
                 _0x206002D:
000590 81aa      	LDD  R26,Y+2
000591 81bb      	LDD  R27,Y+2+1
000592 efef      	LDI  R30,LOW(65535)
000593 efff      	LDI  R31,HIGH(65535)
000594 93ed      	ST   X+,R30
000595 93fc      	ST   X,R31
                 _0x2060032:
000596 8119      	LDD  R17,Y+1
000597 8108      	LDD  R16,Y+0
000598 9625      	ADIW R28,5
000599 9508      	RET
                 ; .FEND
                 __print_G103:
                 ; .FSTART __print_G103
00059a 93ba      	ST   -Y,R27
00059b 93aa      	ST   -Y,R26
00059c 9726      	SBIW R28,6
00059d 940e 09d4 	CALL __SAVELOCR6
00059f e000      	LDI  R16,0
0005a0 85ac      	LDD  R26,Y+12
0005a1 85bd      	LDD  R27,Y+12+1
0005a2 e0e0      	LDI  R30,LOW(0)
0005a3 e0f0      	LDI  R31,HIGH(0)
0005a4 93ed      	ST   X+,R30
0005a5 93fc      	ST   X,R31
                 _0x2060037:
0005a6 89ea      	LDD  R30,Y+18
0005a7 89fb      	LDD  R31,Y+18+1
0005a8 9631      	ADIW R30,1
0005a9 8bea      	STD  Y+18,R30
0005aa 8bfb      	STD  Y+18+1,R31
0005ab 9731      	SBIW R30,1
0005ac 91e4      	LPM  R30,Z
0005ad 2f3e      	MOV  R19,R30
0005ae 30e0      	CPI  R30,0
0005af f409      	BRNE PC+2
0005b0 c115      	RJMP _0x2060039
0005b1 2fe0      	MOV  R30,R16
0005b2 30e0      	CPI  R30,0
0005b3 f439      	BRNE _0x206003D
0005b4 3235      	CPI  R19,37
0005b5 f411      	BRNE _0x206003E
0005b6 e001      	LDI  R16,LOW(1)
0005b7 c002      	RJMP _0x206003F
                 _0x206003E:
0005b8 940e 07ec 	CALL SUBOPT_0x16
                 _0x206003F:
0005ba c10a      	RJMP _0x206003C
                 _0x206003D:
0005bb 30e1      	CPI  R30,LOW(0x1)
0005bc f4a9      	BRNE _0x2060040
0005bd 3235      	CPI  R19,37
0005be f419      	BRNE _0x2060041
0005bf 940e 07ec 	CALL SUBOPT_0x16
0005c1 c102      	RJMP _0x20600F5
                 _0x2060041:
0005c2 e002      	LDI  R16,LOW(2)
0005c3 e050      	LDI  R21,LOW(0)
0005c4 e010      	LDI  R17,LOW(0)
0005c5 323d      	CPI  R19,45
0005c6 f411      	BRNE _0x2060042
0005c7 e011      	LDI  R17,LOW(1)
0005c8 c0fc      	RJMP _0x206003C
                 _0x2060042:
0005c9 323b      	CPI  R19,43
0005ca f411      	BRNE _0x2060043
0005cb e25b      	LDI  R21,LOW(43)
0005cc c0f8      	RJMP _0x206003C
                 _0x2060043:
0005cd 3230      	CPI  R19,32
0005ce f411      	BRNE _0x2060044
0005cf e250      	LDI  R21,LOW(32)
0005d0 c0f4      	RJMP _0x206003C
                 _0x2060044:
0005d1 c002      	RJMP _0x2060045
                 _0x2060040:
0005d2 30e2      	CPI  R30,LOW(0x2)
0005d3 f439      	BRNE _0x2060046
                 _0x2060045:
0005d4 e040      	LDI  R20,LOW(0)
0005d5 e003      	LDI  R16,LOW(3)
0005d6 3330      	CPI  R19,48
0005d7 f411      	BRNE _0x2060047
0005d8 6810      	ORI  R17,LOW(128)
0005d9 c0eb      	RJMP _0x206003C
                 _0x2060047:
0005da c003      	RJMP _0x2060048
                 _0x2060046:
0005db 30e3      	CPI  R30,LOW(0x3)
0005dc f009      	BREQ PC+2
0005dd c0e7      	RJMP _0x206003C
                 _0x2060048:
0005de 3330      	CPI  R19,48
0005df f010      	BRLO _0x206004B
0005e0 333a      	CPI  R19,58
0005e1 f008      	BRLO _0x206004C
                 _0x206004B:
0005e2 c007      	RJMP _0x206004A
                 _0x206004C:
0005e3 e0aa      	LDI  R26,LOW(10)
0005e4 9f4a      	MUL  R20,R26
0005e5 2d40      	MOV  R20,R0
0005e6 2fe3      	MOV  R30,R19
0005e7 53e0      	SUBI R30,LOW(48)
0005e8 0f4e      	ADD  R20,R30
0005e9 c0db      	RJMP _0x206003C
                 _0x206004A:
0005ea 2fe3      	MOV  R30,R19
0005eb 36e3      	CPI  R30,LOW(0x63)
0005ec f449      	BRNE _0x2060050
0005ed 940e 07f3 	CALL SUBOPT_0x17
0005ef 89e8      	LDD  R30,Y+16
0005f0 89f9      	LDD  R31,Y+16+1
0005f1 81a4      	LDD  R26,Z+4
0005f2 93aa      	ST   -Y,R26
0005f3 940e 07f9 	CALL SUBOPT_0x18
0005f5 c0ce      	RJMP _0x2060051
                 _0x2060050:
0005f6 37e3      	CPI  R30,LOW(0x73)
0005f7 f441      	BRNE _0x2060053
0005f8 940e 07f3 	CALL SUBOPT_0x17
0005fa 940e 07ff 	CALL SUBOPT_0x19
0005fc 940e 0719 	CALL _strlen
0005fe 2f0e      	MOV  R16,R30
0005ff c00a      	RJMP _0x2060054
                 _0x2060053:
000600 37e0      	CPI  R30,LOW(0x70)
000601 f461      	BRNE _0x2060056
000602 940e 07f3 	CALL SUBOPT_0x17
000604 940e 07ff 	CALL SUBOPT_0x19
000606 940e 0725 	CALL _strlenf
000608 2f0e      	MOV  R16,R30
000609 6018      	ORI  R17,LOW(8)
                 _0x2060054:
00060a 6012      	ORI  R17,LOW(2)
00060b 771f      	ANDI R17,LOW(127)
00060c e020      	LDI  R18,LOW(0)
00060d c034      	RJMP _0x2060057
                 _0x2060056:
00060e 36e4      	CPI  R30,LOW(0x64)
00060f f011      	BREQ _0x206005A
000610 36e9      	CPI  R30,LOW(0x69)
000611 f411      	BRNE _0x206005B
                 _0x206005A:
000612 6014      	ORI  R17,LOW(4)
000613 c002      	RJMP _0x206005C
                 _0x206005B:
000614 37e5      	CPI  R30,LOW(0x75)
000615 f431      	BRNE _0x206005D
                 _0x206005C:
000616 ede0      	LDI  R30,LOW(_tbl10_G103*2)
000617 e0f0      	LDI  R31,HIGH(_tbl10_G103*2)
000618 83ee      	STD  Y+6,R30
000619 83ff      	STD  Y+6+1,R31
00061a e005      	LDI  R16,LOW(5)
00061b c00c      	RJMP _0x206005E
                 _0x206005D:
00061c 35e8      	CPI  R30,LOW(0x58)
00061d f411      	BRNE _0x2060060
00061e 6018      	ORI  R17,LOW(8)
00061f c003      	RJMP _0x2060061
                 _0x2060060:
000620 37e8      	CPI  R30,LOW(0x78)
000621 f009      	BREQ PC+2
000622 c0a1      	RJMP _0x2060092
                 _0x2060061:
000623 edea      	LDI  R30,LOW(_tbl16_G103*2)
000624 e0f0      	LDI  R31,HIGH(_tbl16_G103*2)
000625 83ee      	STD  Y+6,R30
000626 83ff      	STD  Y+6+1,R31
000627 e004      	LDI  R16,LOW(4)
                 _0x206005E:
000628 ff12      	SBRS R17,2
000629 c014      	RJMP _0x2060063
00062a 940e 07f3 	CALL SUBOPT_0x17
00062c 940e 0809 	CALL SUBOPT_0x1A
00062e 85ab      	LDD  R26,Y+11
00062f 23aa      	TST  R26
000630 f43a      	BRPL _0x2060064
000631 85ea      	LDD  R30,Y+10
000632 85fb      	LDD  R31,Y+10+1
000633 940e 09a4 	CALL __ANEGW1
000635 87ea      	STD  Y+10,R30
000636 87fb      	STD  Y+10+1,R31
000637 e25d      	LDI  R21,LOW(45)
                 _0x2060064:
000638 3050      	CPI  R21,0
000639 f011      	BREQ _0x2060065
00063a 5f0f      	SUBI R16,-LOW(1)
00063b c001      	RJMP _0x2060066
                 _0x2060065:
00063c 7f1b      	ANDI R17,LOW(251)
                 _0x2060066:
00063d c004      	RJMP _0x2060067
                 _0x2060063:
00063e 940e 07f3 	CALL SUBOPT_0x17
000640 940e 0809 	CALL SUBOPT_0x1A
                 _0x2060067:
                 _0x2060057:
000642 fd10      	SBRC R17,0
000643 c011      	RJMP _0x2060068
                 _0x2060069:
000644 1704      	CP   R16,R20
000645 f478      	BRSH _0x206006B
000646 ff17      	SBRS R17,7
000647 c008      	RJMP _0x206006C
000648 ff12      	SBRS R17,2
000649 c004      	RJMP _0x206006D
00064a 7f1b      	ANDI R17,LOW(251)
00064b 2f35      	MOV  R19,R21
00064c 5001      	SUBI R16,LOW(1)
00064d c001      	RJMP _0x206006E
                 _0x206006D:
00064e e330      	LDI  R19,LOW(48)
                 _0x206006E:
00064f c001      	RJMP _0x206006F
                 _0x206006C:
000650 e230      	LDI  R19,LOW(32)
                 _0x206006F:
000651 940e 07ec 	CALL SUBOPT_0x16
000653 5041      	SUBI R20,LOW(1)
000654 cfef      	RJMP _0x2060069
                 _0x206006B:
                 _0x2060068:
000655 2f20      	MOV  R18,R16
000656 ff11      	SBRS R17,1
000657 c017      	RJMP _0x2060070
                 _0x2060071:
000658 3020      	CPI  R18,0
000659 f0a1      	BREQ _0x2060073
00065a ff13      	SBRS R17,3
00065b c006      	RJMP _0x2060074
00065c 81ee      	LDD  R30,Y+6
00065d 81ff      	LDD  R31,Y+6+1
00065e 9135      	LPM  R19,Z+
00065f 83ee      	STD  Y+6,R30
000660 83ff      	STD  Y+6+1,R31
000661 c005      	RJMP _0x2060075
                 _0x2060074:
000662 81ae      	LDD  R26,Y+6
000663 81bf      	LDD  R27,Y+6+1
000664 913d      	LD   R19,X+
000665 83ae      	STD  Y+6,R26
000666 83bf      	STD  Y+6+1,R27
                 _0x2060075:
000667 940e 07ec 	CALL SUBOPT_0x16
000669 3040      	CPI  R20,0
00066a f009      	BREQ _0x2060076
00066b 5041      	SUBI R20,LOW(1)
                 _0x2060076:
00066c 5021      	SUBI R18,LOW(1)
00066d cfea      	RJMP _0x2060071
                 _0x2060073:
00066e c04b      	RJMP _0x2060077
                 _0x2060070:
                 _0x2060079:
00066f e330      	LDI  R19,LOW(48)
000670 81ee      	LDD  R30,Y+6
000671 81ff      	LDD  R31,Y+6+1
000672 940e 09b9 	CALL __GETW1PF
000674 87e8      	STD  Y+8,R30
000675 87f9      	STD  Y+8+1,R31
000676 81ee      	LDD  R30,Y+6
000677 81ff      	LDD  R31,Y+6+1
000678 9632      	ADIW R30,2
000679 83ee      	STD  Y+6,R30
00067a 83ff      	STD  Y+6+1,R31
                 _0x206007B:
00067b 85e8      	LDD  R30,Y+8
00067c 85f9      	LDD  R31,Y+8+1
00067d 85aa      	LDD  R26,Y+10
00067e 85bb      	LDD  R27,Y+10+1
00067f 17ae      	CP   R26,R30
000680 07bf      	CPC  R27,R31
000681 f050      	BRLO _0x206007D
000682 5f3f      	SUBI R19,-LOW(1)
000683 85a8      	LDD  R26,Y+8
000684 85b9      	LDD  R27,Y+8+1
000685 85ea      	LDD  R30,Y+10
000686 85fb      	LDD  R31,Y+10+1
000687 1bea      	SUB  R30,R26
000688 0bfb      	SBC  R31,R27
000689 87ea      	STD  Y+10,R30
00068a 87fb      	STD  Y+10+1,R31
00068b cfef      	RJMP _0x206007B
                 _0x206007D:
00068c 333a      	CPI  R19,58
00068d f028      	BRLO _0x206007E
00068e ff13      	SBRS R17,3
00068f c002      	RJMP _0x206007F
000690 5f39      	SUBI R19,-LOW(7)
000691 c001      	RJMP _0x2060080
                 _0x206007F:
000692 5d39      	SUBI R19,-LOW(39)
                 _0x2060080:
                 _0x206007E:
000693 fd14      	SBRC R17,4
000694 c01a      	RJMP _0x2060082
000695 3331      	CPI  R19,49
000696 f420      	BRSH _0x2060084
000697 85a8      	LDD  R26,Y+8
000698 85b9      	LDD  R27,Y+8+1
000699 9711      	SBIW R26,1
00069a f409      	BRNE _0x2060083
                 _0x2060084:
00069b c009      	RJMP _0x20600F6
                 _0x2060083:
00069c 1742      	CP   R20,R18
00069d f010      	BRLO _0x2060088
00069e ff10      	SBRS R17,0
00069f c001      	RJMP _0x2060089
                 _0x2060088:
0006a0 c013      	RJMP _0x2060087
                 _0x2060089:
0006a1 e230      	LDI  R19,LOW(32)
0006a2 ff17      	SBRS R17,7
0006a3 c00b      	RJMP _0x206008A
0006a4 e330      	LDI  R19,LOW(48)
                 _0x20600F6:
0006a5 6110      	ORI  R17,LOW(16)
0006a6 ff12      	SBRS R17,2
0006a7 c007      	RJMP _0x206008B
0006a8 7f1b      	ANDI R17,LOW(251)
0006a9 935a      	ST   -Y,R21
0006aa 940e 07f9 	CALL SUBOPT_0x18
0006ac 3040      	CPI  R20,0
0006ad f009      	BREQ _0x206008C
0006ae 5041      	SUBI R20,LOW(1)
                 _0x206008C:
                 _0x206008B:
                 _0x206008A:
                 _0x2060082:
0006af 940e 07ec 	CALL SUBOPT_0x16
0006b1 3040      	CPI  R20,0
0006b2 f009      	BREQ _0x206008D
0006b3 5041      	SUBI R20,LOW(1)
                 _0x206008D:
                 _0x2060087:
0006b4 5021      	SUBI R18,LOW(1)
0006b5 85a8      	LDD  R26,Y+8
0006b6 85b9      	LDD  R27,Y+8+1
0006b7 9712      	SBIW R26,2
0006b8 f008      	BRLO _0x206007A
0006b9 cfb5      	RJMP _0x2060079
                 _0x206007A:
                 _0x2060077:
0006ba ff10      	SBRS R17,0
0006bb c008      	RJMP _0x206008E
                 _0x206008F:
0006bc 3040      	CPI  R20,0
0006bd f031      	BREQ _0x2060091
0006be 5041      	SUBI R20,LOW(1)
0006bf e2e0      	LDI  R30,LOW(32)
0006c0 93ea      	ST   -Y,R30
0006c1 940e 07f9 	CALL SUBOPT_0x18
0006c3 cff8      	RJMP _0x206008F
                 _0x2060091:
                 _0x206008E:
                 _0x2060092:
                 _0x2060051:
                 _0x20600F5:
0006c4 e000      	LDI  R16,LOW(0)
                 _0x206003C:
0006c5 cee0      	RJMP _0x2060037
                 _0x2060039:
0006c6 85ac      	LDD  R26,Y+12
0006c7 85bd      	LDD  R27,Y+12+1
0006c8 940e 09b5 	CALL __GETW1P
0006ca 940e 09db 	CALL __LOADLOCR6
0006cc 9664      	ADIW R28,20
0006cd 9508      	RET
                 ; .FEND
                 _sprintf:
                 ; .FSTART _sprintf
0006ce 92ff      	PUSH R15
0006cf 2ef8      	MOV  R15,R24
0006d0 9726      	SBIW R28,6
0006d1 940e 09d6 	CALL __SAVELOCR4
0006d3 940e 0811 	CALL SUBOPT_0x1B
0006d5 9730      	SBIW R30,0
0006d6 f419      	BRNE _0x2060093
0006d7 efef      	LDI  R30,LOW(65535)
0006d8 efff      	LDI  R31,HIGH(65535)
0006d9 c023      	RJMP _0x20E0001
                 _0x2060093:
0006da 01de      	MOVW R26,R28
0006db 9616      	ADIW R26,6
0006dc 940e 09a0 	CALL __ADDW2R15
0006de 018d      	MOVW R16,R26
0006df 940e 0811 	CALL SUBOPT_0x1B
0006e1 83ee      	STD  Y+6,R30
0006e2 83ff      	STD  Y+6+1,R31
0006e3 e0e0      	LDI  R30,LOW(0)
0006e4 87e8      	STD  Y+8,R30
0006e5 87e9      	STD  Y+8+1,R30
0006e6 01de      	MOVW R26,R28
0006e7 961a      	ADIW R26,10
0006e8 940e 09a0 	CALL __ADDW2R15
0006ea 940e 09b5 	CALL __GETW1P
0006ec 93fa      	ST   -Y,R31
0006ed 93ea      	ST   -Y,R30
0006ee 931a      	ST   -Y,R17
0006ef 930a      	ST   -Y,R16
0006f0 e5ea      	LDI  R30,LOW(_put_buff_G103)
0006f1 e0f5      	LDI  R31,HIGH(_put_buff_G103)
0006f2 93fa      	ST   -Y,R31
0006f3 93ea      	ST   -Y,R30
0006f4 01de      	MOVW R26,R28
0006f5 961a      	ADIW R26,10
0006f6 dea3      	RCALL __print_G103
0006f7 019f      	MOVW R18,R30
0006f8 81ae      	LDD  R26,Y+6
0006f9 81bf      	LDD  R27,Y+6+1
0006fa e0e0      	LDI  R30,LOW(0)
0006fb 93ec      	ST   X,R30
0006fc 01f9      	MOVW R30,R18
                 _0x20E0001:
0006fd 940e 09dd 	CALL __LOADLOCR4
0006ff 962a      	ADIW R28,10
000700 90ff      	POP  R15
000701 9508      	RET
                 ; .FEND
                 
                 	.CSEG
                 _bcd2bin:
                 ; .FSTART _bcd2bin
000702 93aa      	ST   -Y,R26
000703 81e8          ld   r30,y
000704 95e2          swap r30
000705 70ef          andi r30,0xf
000706 2fae          mov  r26,r30
000707 0faa          lsl  r26
000708 0faa          lsl  r26
000709 0fea          add  r30,r26
00070a 0fee          lsl  r30
00070b 91a9          ld   r26,y+
00070c 70af          andi r26,0xf
00070d 0fea          add  r30,r26
00070e 9508          ret
                 ; .FEND
                 _bin2bcd:
                 ; .FSTART _bin2bcd
00070f 93aa      	ST   -Y,R26
000710 91a9          ld   r26,y+
000711 27ee          clr  r30
                 bin2bcd0:
000712 50aa          subi r26,10
000713 f012          brmi bin2bcd1
000714 5fe0          subi r30,-16
000715 cffc          rjmp bin2bcd0
                 bin2bcd1:
000716 5fa6          subi r26,-10
000717 0fea          add  r30,r26
000718 9508          ret
                 ; .FEND
                 
                 	.CSEG
                 _strlen:
                 ; .FSTART _strlen
000719 93ba      	ST   -Y,R27
00071a 93aa      	ST   -Y,R26
00071b 91a9          ld   r26,y+
00071c 91b9          ld   r27,y+
00071d 27ee          clr  r30
00071e 27ff          clr  r31
                 strlen0:
00071f 916d          ld   r22,x+
000720 2366          tst  r22
000721 f011          breq strlen1
000722 9631          adiw r30,1
000723 cffb          rjmp strlen0
                 strlen1:
000724 9508          ret
                 ; .FEND
                 _strlenf:
                 ; .FSTART _strlenf
000725 93ba      	ST   -Y,R27
000726 93aa      	ST   -Y,R26
000727 27aa          clr  r26
000728 27bb          clr  r27
000729 91e9          ld   r30,y+
00072a 91f9          ld   r31,y+
                 strlenf0:
00072b 9005      	lpm  r0,z+
00072c 2000          tst  r0
00072d f011          breq strlenf1
00072e 9611          adiw r26,1
00072f cffb          rjmp strlenf0
                 strlenf1:
000730 01fd          movw r30,r26
000731 9508          ret
                 ; .FEND
                 
                 	.CSEG
                 
                 	.DSEG
                 _cursor:
000900           	.BYTE 0x1
                 _prtc_get_time:
000901           	.BYTE 0x2
                 _prtc_get_date:
000903           	.BYTE 0x2
                 _v1:
000905           	.BYTE 0x4
                 _v2:
000909           	.BYTE 0x4
                 _v1I:
00090d           	.BYTE 0x2
                 _v1D:
00090f           	.BYTE 0x2
                 _v2I:
000911           	.BYTE 0x2
                 _v2D:
000913           	.BYTE 0x2
                 _H:
000915           	.BYTE 0x1
                 _M:
000916           	.BYTE 0x1
                 _S:
000917           	.BYTE 0x1
                 _D:
000918           	.BYTE 0x1
                 _Mes:
000919           	.BYTE 0x1
                 _A:
00091a           	.BYTE 0x1
                 _time:
00091b           	.BYTE 0x10
                 _status_G101:
00092b           	.BYTE 0x1
                 _timer1_G101:
00092c           	.BYTE 0x1
                 _timer2_G101:
00092d           	.BYTE 0x1
                 _card_type_G101:
00092e           	.BYTE 0x1
                 _flags_S101000C000:
00092f           	.BYTE 0x1
                 _FatFs_G102:
000930           	.BYTE 0x2
                 _Fsid_G102:
000932           	.BYTE 0x2
                 _Drive_G102:
000934           	.BYTE 0x1
                 
                 	.CSEG
                 ;OPTIMIZER ADDED SUBROUTINE, CALLED 5 TIMES, CODE SIZE REDUCTION:5 WORDS
                 SUBOPT_0x0:
000732 e0a2      	LDI  R26,LOW(2)
000733 e0b0      	LDI  R27,0
000734 940c 0818 	JMP  _delay_ms
                 
                 ;OPTIMIZER ADDED SUBROUTINE, CALLED 3 TIMES, CODE SIZE REDUCTION:1 WORDS
                 SUBOPT_0x1:
000736 940e 012f 	CALL _SendDataBitsLCD
000738 940c 012c 	JMP  _PulseEn
                 
                 ;OPTIMIZER ADDED SUBROUTINE, CALLED 2 TIMES, CODE SIZE REDUCTION:3 WORDS
                 SUBOPT_0x2:
00073a 81e9      	LDD  R30,Y+1
00073b 7fe0      	ANDI R30,LOW(0xF0)
00073c 2f0e      	MOV  R16,R30
00073d 9502      	SWAP R16
00073e 700f      	ANDI R16,0xF
00073f 2fa0      	MOV  R26,R16
000740 cff5      	RJMP SUBOPT_0x1
                 
                 ;OPTIMIZER ADDED SUBROUTINE, CALLED 2 TIMES, CODE SIZE REDUCTION:3 WORDS
                 SUBOPT_0x3:
000741 81e9      	LDD  R30,Y+1
000742 70ef      	ANDI R30,LOW(0xF)
000743 2f0e      	MOV  R16,R30
000744 2fa0      	MOV  R26,R16
000745 940e 012f 	CALL _SendDataBitsLCD
000747 cfea      	RJMP SUBOPT_0x0
                 
                 ;OPTIMIZER ADDED SUBROUTINE, CALLED 2 TIMES, CODE SIZE REDUCTION:15 WORDS
                 SUBOPT_0x4:
000748 940e 019a 	CALL _read_adc
00074a 2766      	CLR  R22
00074b 2777      	CLR  R23
00074c 940e 0888 	CALL __CDF1
                +
00074e e0a0     +LDI R26 , LOW ( 0x40A00000 )
00074f e0b0     +LDI R27 , HIGH ( 0x40A00000 )
000750 ea80     +LDI R24 , BYTE3 ( 0x40A00000 )
000751 e490     +LDI R25 , BYTE4 ( 0x40A00000 )
                 	__GETD2N 0x40A00000
000752 940e 090d 	CALL __MULF12
000754 01df      	MOVW R26,R30
000755 01cb      	MOVW R24,R22
                +
000756 e0e0     +LDI R30 , LOW ( 0x44800000 )
000757 e0f0     +LDI R31 , HIGH ( 0x44800000 )
000758 e860     +LDI R22 , BYTE3 ( 0x44800000 )
000759 e474     +LDI R23 , BYTE4 ( 0x44800000 )
                 	__GETD1N 0x44800000
00075a 940e 095b 	CALL __DIVF21
00075c 9508      	RET
                 
                 ;OPTIMIZER ADDED SUBROUTINE, CALLED 2 TIMES, CODE SIZE REDUCTION:7 WORDS
                 SUBOPT_0x5:
00075d 940e 09c7 	CALL __SWAPD12
00075f 940e 08bb 	CALL __SUBF12
                +
000761 e0a0     +LDI R26 , LOW ( 0x42C80000 )
000762 e0b0     +LDI R27 , HIGH ( 0x42C80000 )
000763 ec88     +LDI R24 , BYTE3 ( 0x42C80000 )
000764 e492     +LDI R25 , BYTE4 ( 0x42C80000 )
                 	__GETD2N 0x42C80000
000765 940e 090d 	CALL __MULF12
000767 940e 0851 	CALL __CFD1
000769 9508      	RET
                 
                 ;OPTIMIZER ADDED SUBROUTINE, CALLED 6 TIMES, CODE SIZE REDUCTION:12 WORDS
                 SUBOPT_0x6:
00076a 27ff      	CLR  R31
00076b 2766      	CLR  R22
00076c 2777      	CLR  R23
00076d 940e 09bd 	CALL __PUTPARD1
00076f 9508      	RET
                 
                 ;OPTIMIZER ADDED SUBROUTINE, CALLED 4 TIMES, CODE SIZE REDUCTION:3 WORDS
                 SUBOPT_0x7:
000770 940e 09b0 	CALL __CWD1
000772 940e 09bd 	CALL __PUTPARD1
000774 9508      	RET
                 
                 ;OPTIMIZER ADDED SUBROUTINE, CALLED 2 TIMES, CODE SIZE REDUCTION:1 WORDS
                 SUBOPT_0x8:
000775 e184      	LDI  R24,20
000776 940e 06ce 	CALL _sprintf
000778 9668      	ADIW R28,24
000779 e0e0      	LDI  R30,LOW(0)
00077a 93ea      	ST   -Y,R30
00077b 9508      	RET
                 
                 ;OPTIMIZER ADDED SUBROUTINE, CALLED 2 TIMES, CODE SIZE REDUCTION:1 WORDS
                 SUBOPT_0x9:
00077c 940e 017b 	CALL _MoveCursor
00077e e1ab      	LDI  R26,LOW(_time)
00077f e0b9      	LDI  R27,HIGH(_time)
000780 940c 0164 	JMP  _StringLCDVar
                 
                 ;OPTIMIZER ADDED SUBROUTINE, CALLED 2 TIMES, CODE SIZE REDUCTION:7 WORDS
                 SUBOPT_0xA:
000782 93e0 0915 	STS  _H,R30
000784 93ea      	ST   -Y,R30
000785 91e0 0916 	LDS  R30,_M
000787 93ea      	ST   -Y,R30
000788 91a0 0917 	LDS  R26,_S
00078a 940c 038d 	JMP  _rtc_set_time
                 
                 ;OPTIMIZER ADDED SUBROUTINE, CALLED 2 TIMES, CODE SIZE REDUCTION:7 WORDS
                 SUBOPT_0xB:
00078c 93e0 0916 	STS  _M,R30
00078e 91e0 0915 	LDS  R30,_H
000790 93ea      	ST   -Y,R30
000791 91e0 0916 	LDS  R30,_M
000793 93ea      	ST   -Y,R30
000794 91a0 0917 	LDS  R26,_S
000796 940c 038d 	JMP  _rtc_set_time
                 
                 ;OPTIMIZER ADDED SUBROUTINE, CALLED 2 TIMES, CODE SIZE REDUCTION:8 WORDS
                 SUBOPT_0xC:
000798 e0e0      	LDI  R30,LOW(0)
000799 93e0 0917 	STS  _S,R30
00079b 91e0 0915 	LDS  R30,_H
00079d 93ea      	ST   -Y,R30
00079e 91e0 0916 	LDS  R30,_M
0007a0 93ea      	ST   -Y,R30
0007a1 91a0 0917 	LDS  R26,_S
0007a3 940c 038d 	JMP  _rtc_set_time
                 
                 ;OPTIMIZER ADDED SUBROUTINE, CALLED 2 TIMES, CODE SIZE REDUCTION:7 WORDS
                 SUBOPT_0xD:
0007a5 93e0 0918 	STS  _D,R30
0007a7 93ea      	ST   -Y,R30
0007a8 91e0 0919 	LDS  R30,_Mes
0007aa 93ea      	ST   -Y,R30
0007ab 91a0 091a 	LDS  R26,_A
0007ad 940c 03b2 	JMP  _rtc_set_date
                 
                 ;OPTIMIZER ADDED SUBROUTINE, CALLED 2 TIMES, CODE SIZE REDUCTION:7 WORDS
                 SUBOPT_0xE:
0007af 93e0 0919 	STS  _Mes,R30
0007b1 91e0 0918 	LDS  R30,_D
0007b3 93ea      	ST   -Y,R30
0007b4 91e0 0919 	LDS  R30,_Mes
0007b6 93ea      	ST   -Y,R30
0007b7 91a0 091a 	LDS  R26,_A
0007b9 940c 03b2 	JMP  _rtc_set_date
                 
                 ;OPTIMIZER ADDED SUBROUTINE, CALLED 2 TIMES, CODE SIZE REDUCTION:7 WORDS
                 SUBOPT_0xF:
0007bb 93e0 091a 	STS  _A,R30
0007bd 91e0 0918 	LDS  R30,_D
0007bf 93ea      	ST   -Y,R30
0007c0 91e0 0919 	LDS  R30,_Mes
0007c2 93ea      	ST   -Y,R30
0007c3 91a0 091a 	LDS  R26,_A
0007c5 940c 03b2 	JMP  _rtc_set_date
                 
                 ;OPTIMIZER ADDED SUBROUTINE, CALLED 3 TIMES, CODE SIZE REDUCTION:3 WORDS
                 SUBOPT_0x10:
0007c7 e8ee      	LDI  R30,LOW(142)
0007c8 93ea      	ST   -Y,R30
0007c9 e0a0      	LDI  R26,LOW(0)
0007ca 940c 0350 	JMP  _ds1302_write
                 
                 ;OPTIMIZER ADDED SUBROUTINE, CALLED 3 TIMES, CODE SIZE REDUCTION:7 WORDS
                 SUBOPT_0x11:
0007cc 940e 0350 	CALL _ds1302_write
0007ce e8ee      	LDI  R30,LOW(142)
0007cf 93ea      	ST   -Y,R30
0007d0 e8a0      	LDI  R26,LOW(128)
0007d1 940c 0350 	JMP  _ds1302_write
                 
                 ;OPTIMIZER ADDED SUBROUTINE, CALLED 4 TIMES, CODE SIZE REDUCTION:6 WORDS
                 SUBOPT_0x12:
0007d3 940e 0335 	CALL _ds1302_read
0007d5 2fae      	MOV  R26,R30
0007d6 940c 0702 	JMP  _bcd2bin
                 
                 ;OPTIMIZER ADDED SUBROUTINE, CALLED 2 TIMES, CODE SIZE REDUCTION:2 WORDS
                 SUBOPT_0x13:
0007d8 93ea      	ST   -Y,R30
0007d9 81ab      	LDD  R26,Y+3
0007da 940e 070f 	CALL _bin2bcd
0007dc 2fae      	MOV  R26,R30
0007dd 940c 0350 	JMP  _ds1302_write
                 
                 ;OPTIMIZER ADDED SUBROUTINE, CALLED 2 TIMES, CODE SIZE REDUCTION:2 WORDS
                 SUBOPT_0x14:
0007df 93ea      	ST   -Y,R30
0007e0 81aa      	LDD  R26,Y+2
0007e1 940e 070f 	CALL _bin2bcd
0007e3 2fae      	MOV  R26,R30
0007e4 940c 0350 	JMP  _ds1302_write
                 
                 ;OPTIMIZER ADDED SUBROUTINE, CALLED 2 TIMES, CODE SIZE REDUCTION:2 WORDS
                 SUBOPT_0x15:
0007e6 93ea      	ST   -Y,R30
0007e7 81a9      	LDD  R26,Y+1
0007e8 940e 070f 	CALL _bin2bcd
0007ea 2fae      	MOV  R26,R30
0007eb cfe0      	RJMP SUBOPT_0x11
                 
                 ;OPTIMIZER ADDED SUBROUTINE, CALLED 5 TIMES, CODE SIZE REDUCTION:13 WORDS
                 SUBOPT_0x16:
0007ec 933a      	ST   -Y,R19
0007ed 85ad      	LDD  R26,Y+13
0007ee 85be      	LDD  R27,Y+13+1
0007ef 85ef      	LDD  R30,Y+15
0007f0 89f8      	LDD  R31,Y+15+1
0007f1 9509      	ICALL
0007f2 9508      	RET
                 
                 ;OPTIMIZER ADDED SUBROUTINE, CALLED 5 TIMES, CODE SIZE REDUCTION:9 WORDS
                 SUBOPT_0x17:
0007f3 89e8      	LDD  R30,Y+16
0007f4 89f9      	LDD  R31,Y+16+1
0007f5 9734      	SBIW R30,4
0007f6 8be8      	STD  Y+16,R30
0007f7 8bf9      	STD  Y+16+1,R31
0007f8 9508      	RET
                 
                 ;OPTIMIZER ADDED SUBROUTINE, CALLED 3 TIMES, CODE SIZE REDUCTION:3 WORDS
                 SUBOPT_0x18:
0007f9 85ad      	LDD  R26,Y+13
0007fa 85be      	LDD  R27,Y+13+1
0007fb 85ef      	LDD  R30,Y+15
0007fc 89f8      	LDD  R31,Y+15+1
0007fd 9509      	ICALL
0007fe 9508      	RET
                 
                 ;OPTIMIZER ADDED SUBROUTINE, CALLED 2 TIMES, CODE SIZE REDUCTION:4 WORDS
                 SUBOPT_0x19:
0007ff 89a8      	LDD  R26,Y+16
000800 89b9      	LDD  R27,Y+16+1
000801 9614      	ADIW R26,4
000802 940e 09b5 	CALL __GETW1P
000804 83ee      	STD  Y+6,R30
000805 83ff      	STD  Y+6+1,R31
000806 81ae      	LDD  R26,Y+6
000807 81bf      	LDD  R27,Y+6+1
000808 9508      	RET
                 
                 ;OPTIMIZER ADDED SUBROUTINE, CALLED 2 TIMES, CODE SIZE REDUCTION:2 WORDS
                 SUBOPT_0x1A:
000809 89a8      	LDD  R26,Y+16
00080a 89b9      	LDD  R27,Y+16+1
00080b 9614      	ADIW R26,4
00080c 940e 09b5 	CALL __GETW1P
00080e 87ea      	STD  Y+10,R30
00080f 87fb      	STD  Y+10+1,R31
000810 9508      	RET
                 
                 ;OPTIMIZER ADDED SUBROUTINE, CALLED 2 TIMES, CODE SIZE REDUCTION:1 WORDS
                 SUBOPT_0x1B:
000811 01de      	MOVW R26,R28
000812 961c      	ADIW R26,12
000813 940e 09a0 	CALL __ADDW2R15
000815 940e 09b5 	CALL __GETW1P
000817 9508      	RET
                 
                 
                 	.CSEG
                 _delay_ms:
000818 9610      	adiw r26,0
000819 f039      	breq __delay_ms1
                 __delay_ms0:
                +
00081a ef84     +LDI R24 , LOW ( 0x1F4 )
00081b e091     +LDI R25 , HIGH ( 0x1F4 )
                +__DELAY_USW_LOOP :
00081c 9701     +SBIW R24 , 1
00081d f7f1     +BRNE __DELAY_USW_LOOP
                 	__DELAY_USW 0x1F4
00081e 95a8      	wdr
00081f 9711      	sbiw r26,1
000820 f7c9      	brne __delay_ms0
                 __delay_ms1:
000821 9508      	ret
                 
                 __ROUND_REPACK:
000822 2355      	TST  R21
000823 f442      	BRPL __REPACK
000824 3850      	CPI  R21,0x80
000825 f411      	BRNE __ROUND_REPACK0
000826 ffe0      	SBRS R30,0
000827 c004      	RJMP __REPACK
                 __ROUND_REPACK0:
000828 9631      	ADIW R30,1
000829 1f69      	ADC  R22,R25
00082a 1f79      	ADC  R23,R25
00082b f06b      	BRVS __REPACK1
                 
                 __REPACK:
00082c e850      	LDI  R21,0x80
00082d 2757      	EOR  R21,R23
00082e f411      	BRNE __REPACK0
00082f 935f      	PUSH R21
000830 c0ca      	RJMP __ZERORES
                 __REPACK0:
000831 3f5f      	CPI  R21,0xFF
000832 f031      	BREQ __REPACK1
000833 0f66      	LSL  R22
000834 0c00      	LSL  R0
000835 9557      	ROR  R21
000836 9567      	ROR  R22
000837 2f75      	MOV  R23,R21
000838 9508      	RET
                 __REPACK1:
000839 935f      	PUSH R21
00083a 2000      	TST  R0
00083b f00a      	BRMI __REPACK2
00083c c0ca      	RJMP __MAXRES
                 __REPACK2:
00083d c0c3      	RJMP __MINRES
                 
                 __UNPACK:
00083e e850      	LDI  R21,0x80
00083f 2e19      	MOV  R1,R25
000840 2215      	AND  R1,R21
000841 0f88      	LSL  R24
000842 1f99      	ROL  R25
000843 2795      	EOR  R25,R21
000844 0f55      	LSL  R21
000845 9587      	ROR  R24
                 
                 __UNPACK1:
000846 e850      	LDI  R21,0x80
000847 2e07      	MOV  R0,R23
000848 2205      	AND  R0,R21
000849 0f66      	LSL  R22
00084a 1f77      	ROL  R23
00084b 2775      	EOR  R23,R21
00084c 0f55      	LSL  R21
00084d 9567      	ROR  R22
00084e 9508      	RET
                 
                 __CFD1U:
00084f 9468      	SET
000850 c001      	RJMP __CFD1U0
                 __CFD1:
000851 94e8      	CLT
                 __CFD1U0:
000852 935f      	PUSH R21
000853 dff2      	RCALL __UNPACK1
000854 3870      	CPI  R23,0x80
000855 f018      	BRLO __CFD10
000856 3f7f      	CPI  R23,0xFF
000857 f408      	BRCC __CFD10
000858 c0a2      	RJMP __ZERORES
                 __CFD10:
000859 e156      	LDI  R21,22
00085a 1b57      	SUB  R21,R23
00085b f4aa      	BRPL __CFD11
00085c 9551      	NEG  R21
00085d 3058      	CPI  R21,8
00085e f40e      	BRTC __CFD19
00085f 3059      	CPI  R21,9
                 __CFD19:
000860 f030      	BRLO __CFD17
000861 efef      	SER  R30
000862 efff      	SER  R31
000863 ef6f      	SER  R22
000864 e77f      	LDI  R23,0x7F
000865 f977      	BLD  R23,7
000866 c01a      	RJMP __CFD15
                 __CFD17:
000867 2777      	CLR  R23
000868 2355      	TST  R21
000869 f0b9      	BREQ __CFD15
                 __CFD18:
00086a 0fee      	LSL  R30
00086b 1fff      	ROL  R31
00086c 1f66      	ROL  R22
00086d 1f77      	ROL  R23
00086e 955a      	DEC  R21
00086f f7d1      	BRNE __CFD18
000870 c010      	RJMP __CFD15
                 __CFD11:
000871 2777      	CLR  R23
                 __CFD12:
000872 3058      	CPI  R21,8
000873 f028      	BRLO __CFD13
000874 2fef      	MOV  R30,R31
000875 2ff6      	MOV  R31,R22
000876 2f67      	MOV  R22,R23
000877 5058      	SUBI R21,8
000878 cff9      	RJMP __CFD12
                 __CFD13:
000879 2355      	TST  R21
00087a f031      	BREQ __CFD15
                 __CFD14:
00087b 9576      	LSR  R23
00087c 9567      	ROR  R22
00087d 95f7      	ROR  R31
00087e 95e7      	ROR  R30
00087f 955a      	DEC  R21
000880 f7d1      	BRNE __CFD14
                 __CFD15:
000881 2000      	TST  R0
000882 f40a      	BRPL __CFD16
000883 d124      	RCALL __ANEGD1
                 __CFD16:
000884 915f      	POP  R21
000885 9508      	RET
                 
                 __CDF1U:
000886 9468      	SET
000887 c001      	RJMP __CDF1U0
                 __CDF1:
000888 94e8      	CLT
                 __CDF1U0:
000889 9730      	SBIW R30,0
00088a 4060      	SBCI R22,0
00088b 4070      	SBCI R23,0
00088c f0b1      	BREQ __CDF10
00088d 2400      	CLR  R0
00088e f026      	BRTS __CDF11
00088f 2377      	TST  R23
000890 f412      	BRPL __CDF11
000891 9400      	COM  R0
000892 d115      	RCALL __ANEGD1
                 __CDF11:
000893 2e17      	MOV  R1,R23
000894 e17e      	LDI  R23,30
000895 2011      	TST  R1
                 __CDF12:
000896 f032      	BRMI __CDF13
000897 957a      	DEC  R23
000898 0fee      	LSL  R30
000899 1fff      	ROL  R31
00089a 1f66      	ROL  R22
00089b 1c11      	ROL  R1
00089c cff9      	RJMP __CDF12
                 __CDF13:
00089d 2fef      	MOV  R30,R31
00089e 2ff6      	MOV  R31,R22
00089f 2d61      	MOV  R22,R1
0008a0 935f      	PUSH R21
0008a1 df8a      	RCALL __REPACK
0008a2 915f      	POP  R21
                 __CDF10:
0008a3 9508      	RET
                 
                 __SWAPACC:
0008a4 934f      	PUSH R20
0008a5 01af      	MOVW R20,R30
0008a6 01fd      	MOVW R30,R26
0008a7 01da      	MOVW R26,R20
0008a8 01ab      	MOVW R20,R22
0008a9 01bc      	MOVW R22,R24
0008aa 01ca      	MOVW R24,R20
0008ab 2d40      	MOV  R20,R0
0008ac 2c01      	MOV  R0,R1
0008ad 2e14      	MOV  R1,R20
0008ae 914f      	POP  R20
0008af 9508      	RET
                 
                 __UADD12:
0008b0 0fea      	ADD  R30,R26
0008b1 1ffb      	ADC  R31,R27
0008b2 1f68      	ADC  R22,R24
0008b3 9508      	RET
                 
                 __NEGMAN1:
0008b4 95e0      	COM  R30
0008b5 95f0      	COM  R31
0008b6 9560      	COM  R22
0008b7 5fef      	SUBI R30,-1
0008b8 4fff      	SBCI R31,-1
0008b9 4f6f      	SBCI R22,-1
0008ba 9508      	RET
                 
                 __SUBF12:
0008bb 935f      	PUSH R21
0008bc df81      	RCALL __UNPACK
0008bd 3890      	CPI  R25,0x80
0008be f149      	BREQ __ADDF129
0008bf e850      	LDI  R21,0x80
0008c0 2615      	EOR  R1,R21
                 
                 __ADDF120:
0008c1 3870      	CPI  R23,0x80
0008c2 f121      	BREQ __ADDF128
                 __ADDF121:
0008c3 2f57      	MOV  R21,R23
0008c4 1b59      	SUB  R21,R25
0008c5 f12b      	BRVS __ADDF1211
0008c6 f412      	BRPL __ADDF122
0008c7 dfdc      	RCALL __SWAPACC
0008c8 cffa      	RJMP __ADDF121
                 __ADDF122:
0008c9 3158      	CPI  R21,24
0008ca f018      	BRLO __ADDF123
0008cb 27aa      	CLR  R26
0008cc 27bb      	CLR  R27
0008cd 2788      	CLR  R24
                 __ADDF123:
0008ce 3058      	CPI  R21,8
0008cf f028      	BRLO __ADDF124
0008d0 2fab      	MOV  R26,R27
0008d1 2fb8      	MOV  R27,R24
0008d2 2788      	CLR  R24
0008d3 5058      	SUBI R21,8
0008d4 cff9      	RJMP __ADDF123
                 __ADDF124:
0008d5 2355      	TST  R21
0008d6 f029      	BREQ __ADDF126
                 __ADDF125:
0008d7 9586      	LSR  R24
0008d8 95b7      	ROR  R27
0008d9 95a7      	ROR  R26
0008da 955a      	DEC  R21
0008db f7d9      	BRNE __ADDF125
                 __ADDF126:
0008dc 2d50      	MOV  R21,R0
0008dd 2551      	EOR  R21,R1
0008de f072      	BRMI __ADDF127
0008df dfd0      	RCALL __UADD12
0008e0 f438      	BRCC __ADDF129
0008e1 9567      	ROR  R22
0008e2 95f7      	ROR  R31
0008e3 95e7      	ROR  R30
0008e4 9573      	INC  R23
0008e5 f413      	BRVC __ADDF129
0008e6 c020      	RJMP __MAXRES
                 __ADDF128:
0008e7 dfbc      	RCALL __SWAPACC
                 __ADDF129:
0008e8 df43      	RCALL __REPACK
0008e9 915f      	POP  R21
0008ea 9508      	RET
                 __ADDF1211:
0008eb f7d8      	BRCC __ADDF128
0008ec cffb      	RJMP __ADDF129
                 __ADDF127:
0008ed 1bea      	SUB  R30,R26
0008ee 0bfb      	SBC  R31,R27
0008ef 0b68      	SBC  R22,R24
0008f0 f051      	BREQ __ZERORES
0008f1 f410      	BRCC __ADDF1210
0008f2 9400      	COM  R0
0008f3 dfc0      	RCALL __NEGMAN1
                 __ADDF1210:
0008f4 2366      	TST  R22
0008f5 f392      	BRMI __ADDF129
0008f6 0fee      	LSL  R30
0008f7 1fff      	ROL  R31
0008f8 1f66      	ROL  R22
0008f9 957a      	DEC  R23
0008fa f7cb      	BRVC __ADDF1210
                 
                 __ZERORES:
0008fb 27ee      	CLR  R30
0008fc 27ff      	CLR  R31
0008fd 2766      	CLR  R22
0008fe 2777      	CLR  R23
0008ff 915f      	POP  R21
000900 9508      	RET
                 
                 __MINRES:
000901 efef      	SER  R30
000902 efff      	SER  R31
000903 e76f      	LDI  R22,0x7F
000904 ef7f      	SER  R23
000905 915f      	POP  R21
000906 9508      	RET
                 
                 __MAXRES:
000907 efef      	SER  R30
000908 efff      	SER  R31
000909 e76f      	LDI  R22,0x7F
00090a e77f      	LDI  R23,0x7F
00090b 915f      	POP  R21
00090c 9508      	RET
                 
                 __MULF12:
00090d 935f      	PUSH R21
00090e df2f      	RCALL __UNPACK
00090f 3870      	CPI  R23,0x80
000910 f351      	BREQ __ZERORES
000911 3890      	CPI  R25,0x80
000912 f341      	BREQ __ZERORES
000913 2401      	EOR  R0,R1
000914 9408      	SEC
000915 1f79      	ADC  R23,R25
000916 f423      	BRVC __MULF124
000917 f31c      	BRLT __ZERORES
                 __MULF125:
000918 2000      	TST  R0
000919 f33a      	BRMI __MINRES
00091a cfec      	RJMP __MAXRES
                 __MULF124:
00091b 920f      	PUSH R0
00091c 931f      	PUSH R17
00091d 932f      	PUSH R18
00091e 933f      	PUSH R19
00091f 934f      	PUSH R20
000920 2711      	CLR  R17
000921 2722      	CLR  R18
000922 2799      	CLR  R25
000923 9f68      	MUL  R22,R24
000924 01a0      	MOVW R20,R0
000925 9f8f      	MUL  R24,R31
000926 2d30      	MOV  R19,R0
000927 0d41      	ADD  R20,R1
000928 1f59      	ADC  R21,R25
000929 9f6b      	MUL  R22,R27
00092a 0d30      	ADD  R19,R0
00092b 1d41      	ADC  R20,R1
00092c 1f59      	ADC  R21,R25
00092d 9f8e      	MUL  R24,R30
00092e d027      	RCALL __MULF126
00092f 9fbf      	MUL  R27,R31
000930 d025      	RCALL __MULF126
000931 9f6a      	MUL  R22,R26
000932 d023      	RCALL __MULF126
000933 9fbe      	MUL  R27,R30
000934 d01d      	RCALL __MULF127
000935 9faf      	MUL  R26,R31
000936 d01b      	RCALL __MULF127
000937 9fae      	MUL  R26,R30
000938 0d11      	ADD  R17,R1
000939 1f29      	ADC  R18,R25
00093a 1f39      	ADC  R19,R25
00093b 1f49      	ADC  R20,R25
00093c 1f59      	ADC  R21,R25
00093d 2fe3      	MOV  R30,R19
00093e 2ff4      	MOV  R31,R20
00093f 2f65      	MOV  R22,R21
000940 2f52      	MOV  R21,R18
000941 914f      	POP  R20
000942 913f      	POP  R19
000943 912f      	POP  R18
000944 911f      	POP  R17
000945 900f      	POP  R0
000946 2366      	TST  R22
000947 f02a      	BRMI __MULF122
000948 0f55      	LSL  R21
000949 1fee      	ROL  R30
00094a 1fff      	ROL  R31
00094b 1f66      	ROL  R22
00094c c002      	RJMP __MULF123
                 __MULF122:
00094d 9573      	INC  R23
00094e f24b      	BRVS __MULF125
                 __MULF123:
00094f ded2      	RCALL __ROUND_REPACK
000950 915f      	POP  R21
000951 9508      	RET
                 
                 __MULF127:
000952 0d10      	ADD  R17,R0
000953 1d21      	ADC  R18,R1
000954 1f39      	ADC  R19,R25
000955 c002      	RJMP __MULF128
                 __MULF126:
000956 0d20      	ADD  R18,R0
000957 1d31      	ADC  R19,R1
                 __MULF128:
000958 1f49      	ADC  R20,R25
000959 1f59      	ADC  R21,R25
00095a 9508      	RET
                 
                 __DIVF21:
00095b 935f      	PUSH R21
00095c dee1      	RCALL __UNPACK
00095d 3870      	CPI  R23,0x80
00095e f421      	BRNE __DIVF210
00095f 2011      	TST  R1
                 __DIVF211:
000960 f40a      	BRPL __DIVF219
000961 cf9f      	RJMP __MINRES
                 __DIVF219:
000962 cfa4      	RJMP __MAXRES
                 __DIVF210:
000963 3890      	CPI  R25,0x80
000964 f409      	BRNE __DIVF218
                 __DIVF217:
000965 cf95      	RJMP __ZERORES
                 __DIVF218:
000966 2401      	EOR  R0,R1
000967 9408      	SEC
000968 0b97      	SBC  R25,R23
000969 f41b      	BRVC __DIVF216
00096a f3d4      	BRLT __DIVF217
00096b 2000      	TST  R0
00096c cff3      	RJMP __DIVF211
                 __DIVF216:
00096d 2f79      	MOV  R23,R25
00096e 931f      	PUSH R17
00096f 932f      	PUSH R18
000970 933f      	PUSH R19
000971 934f      	PUSH R20
000972 2411      	CLR  R1
000973 2711      	CLR  R17
000974 2722      	CLR  R18
000975 2733      	CLR  R19
000976 2744      	CLR  R20
000977 2755      	CLR  R21
000978 e290      	LDI  R25,32
                 __DIVF212:
000979 17ae      	CP   R26,R30
00097a 07bf      	CPC  R27,R31
00097b 0786      	CPC  R24,R22
00097c 0741      	CPC  R20,R17
00097d f030      	BRLO __DIVF213
00097e 1bae      	SUB  R26,R30
00097f 0bbf      	SBC  R27,R31
000980 0b86      	SBC  R24,R22
000981 0b41      	SBC  R20,R17
000982 9408      	SEC
000983 c001      	RJMP __DIVF214
                 __DIVF213:
000984 9488      	CLC
                 __DIVF214:
000985 1f55      	ROL  R21
000986 1f22      	ROL  R18
000987 1f33      	ROL  R19
000988 1c11      	ROL  R1
000989 1faa      	ROL  R26
00098a 1fbb      	ROL  R27
00098b 1f88      	ROL  R24
00098c 1f44      	ROL  R20
00098d 959a      	DEC  R25
00098e f751      	BRNE __DIVF212
00098f 01f9      	MOVW R30,R18
000990 2d61      	MOV  R22,R1
000991 914f      	POP  R20
000992 913f      	POP  R19
000993 912f      	POP  R18
000994 911f      	POP  R17
000995 2366      	TST  R22
000996 f032      	BRMI __DIVF215
000997 0f55      	LSL  R21
000998 1fee      	ROL  R30
000999 1fff      	ROL  R31
00099a 1f66      	ROL  R22
00099b 957a      	DEC  R23
00099c f243      	BRVS __DIVF217
                 __DIVF215:
00099d de84      	RCALL __ROUND_REPACK
00099e 915f      	POP  R21
00099f 9508      	RET
                 
                 __ADDW2R15:
0009a0 2400      	CLR  R0
0009a1 0daf      	ADD  R26,R15
0009a2 1db0      	ADC  R27,R0
0009a3 9508      	RET
                 
                 __ANEGW1:
0009a4 95f1      	NEG  R31
0009a5 95e1      	NEG  R30
0009a6 40f0      	SBCI R31,0
0009a7 9508      	RET
                 
                 __ANEGD1:
0009a8 95f0      	COM  R31
0009a9 9560      	COM  R22
0009aa 9570      	COM  R23
0009ab 95e1      	NEG  R30
0009ac 4fff      	SBCI R31,-1
0009ad 4f6f      	SBCI R22,-1
0009ae 4f7f      	SBCI R23,-1
0009af 9508      	RET
                 
                 __CWD1:
0009b0 2f6f      	MOV  R22,R31
0009b1 0f66      	ADD  R22,R22
0009b2 0b66      	SBC  R22,R22
0009b3 2f76      	MOV  R23,R22
0009b4 9508      	RET
                 
                 __GETW1P:
0009b5 91ed      	LD   R30,X+
0009b6 91fc      	LD   R31,X
0009b7 9711      	SBIW R26,1
0009b8 9508      	RET
                 
                 __GETW1PF:
0009b9 9005      	LPM  R0,Z+
0009ba 91f4      	LPM  R31,Z
0009bb 2de0      	MOV  R30,R0
0009bc 9508      	RET
                 
                 __PUTPARD1:
0009bd 937a      	ST   -Y,R23
0009be 936a      	ST   -Y,R22
0009bf 93fa      	ST   -Y,R31
0009c0 93ea      	ST   -Y,R30
0009c1 9508      	RET
                 
                 __PUTPARD2:
0009c2 939a      	ST   -Y,R25
0009c3 938a      	ST   -Y,R24
0009c4 93ba      	ST   -Y,R27
0009c5 93aa      	ST   -Y,R26
0009c6 9508      	RET
                 
                 __SWAPD12:
0009c7 2e18      	MOV  R1,R24
0009c8 2f86      	MOV  R24,R22
0009c9 2d61      	MOV  R22,R1
0009ca 2e19      	MOV  R1,R25
0009cb 2f97      	MOV  R25,R23
0009cc 2d71      	MOV  R23,R1
                 
                 __SWAPW12:
0009cd 2e1b      	MOV  R1,R27
0009ce 2fbf      	MOV  R27,R31
0009cf 2df1      	MOV  R31,R1
                 
                 __SWAPB12:
0009d0 2e1a      	MOV  R1,R26
0009d1 2fae      	MOV  R26,R30
0009d2 2de1      	MOV  R30,R1
0009d3 9508      	RET
                 
                 __SAVELOCR6:
0009d4 935a      	ST   -Y,R21
                 __SAVELOCR5:
0009d5 934a      	ST   -Y,R20
                 __SAVELOCR4:
0009d6 933a      	ST   -Y,R19
                 __SAVELOCR3:
0009d7 932a      	ST   -Y,R18
                 __SAVELOCR2:
0009d8 931a      	ST   -Y,R17
0009d9 930a      	ST   -Y,R16
0009da 9508      	RET
                 
                 __LOADLOCR6:
0009db 815d      	LDD  R21,Y+5
                 __LOADLOCR5:
0009dc 814c      	LDD  R20,Y+4
                 __LOADLOCR4:
0009dd 813b      	LDD  R19,Y+3
                 __LOADLOCR3:
0009de 812a      	LDD  R18,Y+2
                 __LOADLOCR2:
0009df 8119      	LDD  R17,Y+1
0009e0 8108      	LD   R16,Y
0009e1 9508      	RET
                 
                 __INITLOCB:
                 __INITLOCW:
0009e2 0fac      	ADD  R26,R28
0009e3 1fbd      	ADC  R27,R29
                 __INITLOC0:
0009e4 9005      	LPM  R0,Z+
0009e5 920d      	ST   X+,R0
0009e6 958a      	DEC  R24
0009e7 f7e1      	BRNE __INITLOC0
0009e8 9508      	RET
                 
                 ;END OF CODE MARKER
                 __END_OF_CODE:


RESOURCE USE INFORMATION
------------------------

Notice:
The register and instruction counts are symbol table hit counts,
and hence implicitly used resources are not counted, eg, the
'lpm' instruction without operands implicitly uses r0 and z,
none of which are counted.

x,y,z are separate entities in the symbol table and are
counted separately from r26..r31 here.

.dseg memory usage only counts static data declared with .byte

AT90USB1286 register use summary:
r0 :  37 r1 :  32 r2 :   0 r3 :   0 r4 :   0 r5 :   0 r6 :   0 r7 :   0 
r8 :   0 r9 :   0 r10:   0 r11:   0 r12:   0 r13:   0 r14:   0 r15:   6 
r16:  81 r17:  53 r18:  32 r19:  39 r20:  39 r21:  71 r22:  62 r23:  50 
r24:  62 r25:  44 r26: 235 r27:  85 r28:  24 r29:   2 r30: 502 r31: 123 
x  :  32 y  : 312 z  :  15 
Registers used: 22 out of 35 (62.9%)

AT90USB1286 instruction use summary:
.lds  :   0 .lds.l:   0 .sts  :   0 .sts.l:   0 adc   :  22 add   :  16 
adiw  :  33 and   :   2 andi  :  28 asr   :   0 bclr  :   0 bld   :   1 
brbc  :   0 brbs  :   0 brcc  :   5 brcs  :   0 break :   0 breq  :  52 
brge  :   0 brhc  :   0 brhs  :   0 brid  :   0 brie  :   0 brlo  :  20 
brlt  :   2 brmi  :   9 brne  :  62 brpl  :   7 brsh  :   4 brtc  :   1 
brts  :   1 brvc  :   4 brvs  :   4 bset  :   0 bst   :   0 call  : 135 
cbi   :  18 cbr   :   0 clc   :   2 clh   :   0 cli   :   1 cln   :   0 
clr   :  34 cls   :   0 clt   :   2 clv   :   0 clz   :   0 com   :   8 
cp    :   5 cpc   :   8 cpi   :  87 cpse  :   0 dec   :  18 des   :   0 
elpm  :   0 eor   :   7 fmul  :   0 fmuls :   0 fmulsu:   0 icall :   2 
ijmp  :   0 in    :  21 inc   :   2 jmp   :  60 ld    :  47 ldd   : 120 
ldi   : 241 lds   :  80 lpm   :  15 lsl   :  14 lsr   :   2 mov   :  68 
movw  :  27 mul   :  10 muls  :   0 mulsu :   0 neg   :   4 nop   :   4 
or    :   0 ori   :  18 out   :  31 pop   :  19 push  :  18 rcall :  45 
ret   :  60 reti  :   1 rjmp  : 142 rol   :  24 ror   :  14 sbc   :   8 
sbci  :   8 sbi   :  23 sbic  :   8 sbis  :   1 sbiw  :  22 sbr   :   0 
sbrc  :   2 sbrs  :  25 sec   :   4 seh   :   0 sei   :   1 sen   :   0 
ser   :   8 ses   :   0 set   :   2 sev   :   0 sez   :   0 sleep :   0 
spm   :   0 st    : 147 std   :  32 sts   :  46 sub   :   5 subi  :  36 
swap  :   2 tst   :  18 wdr   :   1 
Instructions used: 76 out of 117 (65.0%)

AT90USB1286 memory use summary [bytes]:
Segment   Begin    End      Code   Data   Used    Size   Use%
---------------------------------------------------------------
[.cseg] 0x000000 0x0013d2   4810    264   5074  131072   3.9%
[.dseg] 0x000100 0x000935      0     53     53    8192   0.6%
[.eseg] 0x000000 0x000000      0      0      0    4096   0.0%

Assembly complete, 0 errors, 6 warnings
