
AVRASM ver. 2.1.30  C:\Users\980006738\Documents\Semestre 8\Lab de Micros\LabMicrocontroladores\CodeVision\P02_Logger\Debug\List\logger.asm Tue Mar 03 17:11:32 2020

                 
                 
                 ;CodeVisionAVR C Compiler V3.12 Advanced
                 ;(C) Copyright 1998-2014 Pavel Haiduc, HP InfoTech s.r.l.
                 ;http://www.hpinfotech.com
                 
                 ;Build configuration    : Debug
                 ;Chip type              : AT90USB1286
                 ;Program type           : Application
                 ;Clock frequency        : 2.000000 MHz
                 ;Memory model           : Small
                 ;Optimize for           : Size
                 ;(s)printf features     : int, width
                 ;(s)scanf features      : int, width
                 ;External RAM size      : 0
                 ;Data Stack size        : 2048 byte(s)
                 ;Heap size              : 0 byte(s)
                 ;Promote 'char' to 'int': Yes
                 ;'char' is unsigned     : Yes
                 ;8 bit enums            : Yes
                 ;Global 'const' stored in FLASH: No
                 ;Enhanced function parameter passing: Yes
                 ;Enhanced core instructions: On
                 ;Automatic register allocation for global variables: Off
                 ;Smart register allocation: Off
                 
                 	#define _MODEL_SMALL_
                 
                 	#pragma AVRPART ADMIN PART_NAME AT90USB1286
                 	#pragma AVRPART MEMORY PROG_FLASH 131072
                 	#pragma AVRPART MEMORY EEPROM 4096
                 	#pragma AVRPART MEMORY INT_SRAM SIZE 8192
                 	#pragma AVRPART MEMORY INT_SRAM START_ADDR 0x100
                 
                 	#define CALL_SUPPORTED 1
                 
                 	.LISTMAC
                 	.EQU EERE=0x0
                 	.EQU EEWE=0x1
                 	.EQU EEMWE=0x2
                 	.EQU UDRE=0x5
                 	.EQU RXC=0x7
                 	.EQU EECR=0x1F
                 	.EQU EEDR=0x20
                 	.EQU EEARL=0x21
                 	.EQU EEARH=0x22
                 	.EQU SPSR=0x2D
                 	.EQU SPDR=0x2E
                 	.EQU SMCR=0x33
                 	.EQU MCUSR=0x34
                 	.EQU MCUCR=0x35
                 	.EQU RAMPZ=0x3B
                 	.EQU WDTCSR=0x60
                 	.EQU UCSR1A=0xC8
                 	.EQU UDR1=0xCE
                 	.EQU SPL=0x3D
                 	.EQU SPH=0x3E
                 	.EQU SREG=0x3F
                 	.EQU GPIOR0=0x1E
                 
                 	.DEF R0X0=R0
                 	.DEF R0X1=R1
                 	.DEF R0X2=R2
                 	.DEF R0X3=R3
                 	.DEF R0X4=R4
                 	.DEF R0X5=R5
                 	.DEF R0X6=R6
                 	.DEF R0X7=R7
                 	.DEF R0X8=R8
                 	.DEF R0X9=R9
                 	.DEF R0XA=R10
                 	.DEF R0XB=R11
                 	.DEF R0XC=R12
                 	.DEF R0XD=R13
                 	.DEF R0XE=R14
                 	.DEF R0XF=R15
                 	.DEF R0X10=R16
                 	.DEF R0X11=R17
                 	.DEF R0X12=R18
                 	.DEF R0X13=R19
                 	.DEF R0X14=R20
                 	.DEF R0X15=R21
                 	.DEF R0X16=R22
                 	.DEF R0X17=R23
                 	.DEF R0X18=R24
                 	.DEF R0X19=R25
                 	.DEF R0X1A=R26
                 	.DEF R0X1B=R27
                 	.DEF R0X1C=R28
                 	.DEF R0X1D=R29
                 	.DEF R0X1E=R30
                 	.DEF R0X1F=R31
                 
                 	.EQU __SRAM_START=0x0100
                 	.EQU __SRAM_END=0x20FF
                 	.EQU __DSTACK_SIZE=0x0800
                 	.EQU __HEAP_SIZE=0x0000
                 	.EQU __CLEAR_SRAM_SIZE=__SRAM_END-__SRAM_START+1
                 
                 	.MACRO __CPD1N
                 	CPI  R30,LOW(@0)
                 	LDI  R26,HIGH(@0)
                 	CPC  R31,R26
                 	LDI  R26,BYTE3(@0)
                 	CPC  R22,R26
                 	LDI  R26,BYTE4(@0)
                 	CPC  R23,R26
                 	.ENDM
                 
                 	.MACRO __CPD2N
                 	CPI  R26,LOW(@0)
                 	LDI  R30,HIGH(@0)
                 	CPC  R27,R30
                 	LDI  R30,BYTE3(@0)
                 	CPC  R24,R30
                 	LDI  R30,BYTE4(@0)
                 	CPC  R25,R30
                 	.ENDM
                 
                 	.MACRO __CPWRR
                 	CP   R@0,R@2
                 	CPC  R@1,R@3
                 	.ENDM
                 
                 	.MACRO __CPWRN
                 	CPI  R@0,LOW(@2)
                 	LDI  R30,HIGH(@2)
                 	CPC  R@1,R30
                 	.ENDM
                 
                 	.MACRO __ADDB1MN
                 	SUBI R30,LOW(-@0-(@1))
                 	.ENDM
                 
                 	.MACRO __ADDB2MN
                 	SUBI R26,LOW(-@0-(@1))
                 	.ENDM
                 
                 	.MACRO __ADDW1MN
                 	SUBI R30,LOW(-@0-(@1))
                 	SBCI R31,HIGH(-@0-(@1))
                 	.ENDM
                 
                 	.MACRO __ADDW2MN
                 	SUBI R26,LOW(-@0-(@1))
                 	SBCI R27,HIGH(-@0-(@1))
                 	.ENDM
                 
                 	.MACRO __ADDW1FN
                 	SUBI R30,LOW(-2*@0-(@1))
                 	SBCI R31,HIGH(-2*@0-(@1))
                 	.ENDM
                 
                 	.MACRO __ADDD1FN
                 	SUBI R30,LOW(-2*@0-(@1))
                 	SBCI R31,HIGH(-2*@0-(@1))
                 	SBCI R22,BYTE3(-2*@0-(@1))
                 	.ENDM
                 
                 	.MACRO __ADDD1N
                 	SUBI R30,LOW(-@0)
                 	SBCI R31,HIGH(-@0)
                 	SBCI R22,BYTE3(-@0)
                 	SBCI R23,BYTE4(-@0)
                 	.ENDM
                 
                 	.MACRO __ADDD2N
                 	SUBI R26,LOW(-@0)
                 	SBCI R27,HIGH(-@0)
                 	SBCI R24,BYTE3(-@0)
                 	SBCI R25,BYTE4(-@0)
                 	.ENDM
                 
                 	.MACRO __SUBD1N
                 	SUBI R30,LOW(@0)
                 	SBCI R31,HIGH(@0)
                 	SBCI R22,BYTE3(@0)
                 	SBCI R23,BYTE4(@0)
                 	.ENDM
                 
                 	.MACRO __SUBD2N
                 	SUBI R26,LOW(@0)
                 	SBCI R27,HIGH(@0)
                 	SBCI R24,BYTE3(@0)
                 	SBCI R25,BYTE4(@0)
                 	.ENDM
                 
                 	.MACRO __ANDBMNN
                 	LDS  R30,@0+(@1)
                 	ANDI R30,LOW(@2)
                 	STS  @0+(@1),R30
                 	.ENDM
                 
                 	.MACRO __ANDWMNN
                 	LDS  R30,@0+(@1)
                 	ANDI R30,LOW(@2)
                 	STS  @0+(@1),R30
                 	LDS  R30,@0+(@1)+1
                 	ANDI R30,HIGH(@2)
                 	STS  @0+(@1)+1,R30
                 	.ENDM
                 
                 	.MACRO __ANDD1N
                 	ANDI R30,LOW(@0)
                 	ANDI R31,HIGH(@0)
                 	ANDI R22,BYTE3(@0)
                 	ANDI R23,BYTE4(@0)
                 	.ENDM
                 
                 	.MACRO __ANDD2N
                 	ANDI R26,LOW(@0)
                 	ANDI R27,HIGH(@0)
                 	ANDI R24,BYTE3(@0)
                 	ANDI R25,BYTE4(@0)
                 	.ENDM
                 
                 	.MACRO __ORBMNN
                 	LDS  R30,@0+(@1)
                 	ORI  R30,LOW(@2)
                 	STS  @0+(@1),R30
                 	.ENDM
                 
                 	.MACRO __ORWMNN
                 	LDS  R30,@0+(@1)
                 	ORI  R30,LOW(@2)
                 	STS  @0+(@1),R30
                 	LDS  R30,@0+(@1)+1
                 	ORI  R30,HIGH(@2)
                 	STS  @0+(@1)+1,R30
                 	.ENDM
                 
                 	.MACRO __ORD1N
                 	ORI  R30,LOW(@0)
                 	ORI  R31,HIGH(@0)
                 	ORI  R22,BYTE3(@0)
                 	ORI  R23,BYTE4(@0)
                 	.ENDM
                 
                 	.MACRO __ORD2N
                 	ORI  R26,LOW(@0)
                 	ORI  R27,HIGH(@0)
                 	ORI  R24,BYTE3(@0)
                 	ORI  R25,BYTE4(@0)
                 	.ENDM
                 
                 	.MACRO __DELAY_USB
                 	LDI  R24,LOW(@0)
                 __DELAY_USB_LOOP:
                 	DEC  R24
                 	BRNE __DELAY_USB_LOOP
                 	.ENDM
                 
                 	.MACRO __DELAY_USW
                 	LDI  R24,LOW(@0)
                 	LDI  R25,HIGH(@0)
                 __DELAY_USW_LOOP:
                 	SBIW R24,1
                 	BRNE __DELAY_USW_LOOP
                 	.ENDM
                 
                 	.MACRO __GETD1S
                 	LDD  R30,Y+@0
                 	LDD  R31,Y+@0+1
                 	LDD  R22,Y+@0+2
                 	LDD  R23,Y+@0+3
                 	.ENDM
                 
                 	.MACRO __GETD2S
                 	LDD  R26,Y+@0
                 	LDD  R27,Y+@0+1
                 	LDD  R24,Y+@0+2
                 	LDD  R25,Y+@0+3
                 	.ENDM
                 
                 	.MACRO __PUTD1S
                 	STD  Y+@0,R30
                 	STD  Y+@0+1,R31
                 	STD  Y+@0+2,R22
                 	STD  Y+@0+3,R23
                 	.ENDM
                 
                 	.MACRO __PUTD2S
                 	STD  Y+@0,R26
                 	STD  Y+@0+1,R27
                 	STD  Y+@0+2,R24
                 	STD  Y+@0+3,R25
                 	.ENDM
                 
                 	.MACRO __PUTDZ2
                 	STD  Z+@0,R26
                 	STD  Z+@0+1,R27
                 	STD  Z+@0+2,R24
                 	STD  Z+@0+3,R25
                 	.ENDM
                 
                 	.MACRO __CLRD1S
                 	STD  Y+@0,R30
                 	STD  Y+@0+1,R30
                 	STD  Y+@0+2,R30
                 	STD  Y+@0+3,R30
                 	.ENDM
                 
                 	.MACRO __POINTB1MN
                 	LDI  R30,LOW(@0+(@1))
                 	.ENDM
                 
                 	.MACRO __POINTW1MN
                 	LDI  R30,LOW(@0+(@1))
                 	LDI  R31,HIGH(@0+(@1))
                 	.ENDM
                 
                 	.MACRO __POINTD1M
                 	LDI  R30,LOW(@0)
                 	LDI  R31,HIGH(@0)
                 	LDI  R22,BYTE3(@0)
                 	LDI  R23,BYTE4(@0)
                 	.ENDM
                 
                 	.MACRO __POINTW1FN
                 	LDI  R30,LOW(2*@0+(@1))
                 	LDI  R31,HIGH(2*@0+(@1))
                 	.ENDM
                 
                 	.MACRO __POINTD1FN
                 	LDI  R30,LOW(2*@0+(@1))
                 	LDI  R31,HIGH(2*@0+(@1))
                 	LDI  R22,BYTE3(2*@0+(@1))
                 	LDI  R23,BYTE4(2*@0+(@1))
                 	.ENDM
                 
                 	.MACRO __POINTB2MN
                 	LDI  R26,LOW(@0+(@1))
                 	.ENDM
                 
                 	.MACRO __POINTW2MN
                 	LDI  R26,LOW(@0+(@1))
                 	LDI  R27,HIGH(@0+(@1))
                 	.ENDM
                 
                 	.MACRO __POINTW2FN
                 	LDI  R26,LOW(2*@0+(@1))
                 	LDI  R27,HIGH(2*@0+(@1))
                 	.ENDM
                 
                 	.MACRO __POINTD2FN
                 	LDI  R26,LOW(2*@0+(@1))
                 	LDI  R27,HIGH(2*@0+(@1))
                 	LDI  R24,BYTE3(2*@0+(@1))
                 	LDI  R25,BYTE4(2*@0+(@1))
                 	.ENDM
                 
                 	.MACRO __POINTBRM
                 	LDI  R@0,LOW(@1)
                 	.ENDM
                 
                 	.MACRO __POINTWRM
                 	LDI  R@0,LOW(@2)
                 	LDI  R@1,HIGH(@2)
                 	.ENDM
                 
                 	.MACRO __POINTBRMN
                 	LDI  R@0,LOW(@1+(@2))
                 	.ENDM
                 
                 	.MACRO __POINTWRMN
                 	LDI  R@0,LOW(@2+(@3))
                 	LDI  R@1,HIGH(@2+(@3))
                 	.ENDM
                 
                 	.MACRO __POINTWRFN
                 	LDI  R@0,LOW(@2*2+(@3))
                 	LDI  R@1,HIGH(@2*2+(@3))
                 	.ENDM
                 
                 	.MACRO __GETD1N
                 	LDI  R30,LOW(@0)
                 	LDI  R31,HIGH(@0)
                 	LDI  R22,BYTE3(@0)
                 	LDI  R23,BYTE4(@0)
                 	.ENDM
                 
                 	.MACRO __GETD2N
                 	LDI  R26,LOW(@0)
                 	LDI  R27,HIGH(@0)
                 	LDI  R24,BYTE3(@0)
                 	LDI  R25,BYTE4(@0)
                 	.ENDM
                 
                 	.MACRO __GETB1MN
                 	LDS  R30,@0+(@1)
                 	.ENDM
                 
                 	.MACRO __GETB1HMN
                 	LDS  R31,@0+(@1)
                 	.ENDM
                 
                 	.MACRO __GETW1MN
                 	LDS  R30,@0+(@1)
                 	LDS  R31,@0+(@1)+1
                 	.ENDM
                 
                 	.MACRO __GETD1MN
                 	LDS  R30,@0+(@1)
                 	LDS  R31,@0+(@1)+1
                 	LDS  R22,@0+(@1)+2
                 	LDS  R23,@0+(@1)+3
                 	.ENDM
                 
                 	.MACRO __GETBRMN
                 	LDS  R@0,@1+(@2)
                 	.ENDM
                 
                 	.MACRO __GETWRMN
                 	LDS  R@0,@2+(@3)
                 	LDS  R@1,@2+(@3)+1
                 	.ENDM
                 
                 	.MACRO __GETWRZ
                 	LDD  R@0,Z+@2
                 	LDD  R@1,Z+@2+1
                 	.ENDM
                 
                 	.MACRO __GETD2Z
                 	LDD  R26,Z+@0
                 	LDD  R27,Z+@0+1
                 	LDD  R24,Z+@0+2
                 	LDD  R25,Z+@0+3
                 	.ENDM
                 
                 	.MACRO __GETB2MN
                 	LDS  R26,@0+(@1)
                 	.ENDM
                 
                 	.MACRO __GETW2MN
                 	LDS  R26,@0+(@1)
                 	LDS  R27,@0+(@1)+1
                 	.ENDM
                 
                 	.MACRO __GETD2MN
                 	LDS  R26,@0+(@1)
                 	LDS  R27,@0+(@1)+1
                 	LDS  R24,@0+(@1)+2
                 	LDS  R25,@0+(@1)+3
                 	.ENDM
                 
                 	.MACRO __PUTB1MN
                 	STS  @0+(@1),R30
                 	.ENDM
                 
                 	.MACRO __PUTW1MN
                 	STS  @0+(@1),R30
                 	STS  @0+(@1)+1,R31
                 	.ENDM
                 
                 	.MACRO __PUTD1MN
                 	STS  @0+(@1),R30
                 	STS  @0+(@1)+1,R31
                 	STS  @0+(@1)+2,R22
                 	STS  @0+(@1)+3,R23
                 	.ENDM
                 
                 	.MACRO __PUTB1EN
                 	LDI  R26,LOW(@0+(@1))
                 	LDI  R27,HIGH(@0+(@1))
                 	CALL __EEPROMWRB
                 	.ENDM
                 
                 	.MACRO __PUTW1EN
                 	LDI  R26,LOW(@0+(@1))
                 	LDI  R27,HIGH(@0+(@1))
                 	CALL __EEPROMWRW
                 	.ENDM
                 
                 	.MACRO __PUTD1EN
                 	LDI  R26,LOW(@0+(@1))
                 	LDI  R27,HIGH(@0+(@1))
                 	CALL __EEPROMWRD
                 	.ENDM
                 
                 	.MACRO __PUTBR0MN
                 	STS  @0+(@1),R0
                 	.ENDM
                 
                 	.MACRO __PUTBMRN
                 	STS  @0+(@1),R@2
                 	.ENDM
                 
                 	.MACRO __PUTWMRN
                 	STS  @0+(@1),R@2
                 	STS  @0+(@1)+1,R@3
                 	.ENDM
                 
                 	.MACRO __PUTBZR
                 	STD  Z+@1,R@0
                 	.ENDM
                 
                 	.MACRO __PUTWZR
                 	STD  Z+@2,R@0
                 	STD  Z+@2+1,R@1
                 	.ENDM
                 
                 	.MACRO __GETW1R
                 	MOV  R30,R@0
                 	MOV  R31,R@1
                 	.ENDM
                 
                 	.MACRO __GETW2R
                 	MOV  R26,R@0
                 	MOV  R27,R@1
                 	.ENDM
                 
                 	.MACRO __GETWRN
                 	LDI  R@0,LOW(@2)
                 	LDI  R@1,HIGH(@2)
                 	.ENDM
                 
                 	.MACRO __PUTW1R
                 	MOV  R@0,R30
                 	MOV  R@1,R31
                 	.ENDM
                 
                 	.MACRO __PUTW2R
                 	MOV  R@0,R26
                 	MOV  R@1,R27
                 	.ENDM
                 
                 	.MACRO __ADDWRN
                 	SUBI R@0,LOW(-@2)
                 	SBCI R@1,HIGH(-@2)
                 	.ENDM
                 
                 	.MACRO __ADDWRR
                 	ADD  R@0,R@2
                 	ADC  R@1,R@3
                 	.ENDM
                 
                 	.MACRO __SUBWRN
                 	SUBI R@0,LOW(@2)
                 	SBCI R@1,HIGH(@2)
                 	.ENDM
                 
                 	.MACRO __SUBWRR
                 	SUB  R@0,R@2
                 	SBC  R@1,R@3
                 	.ENDM
                 
                 	.MACRO __ANDWRN
                 	ANDI R@0,LOW(@2)
                 	ANDI R@1,HIGH(@2)
                 	.ENDM
                 
                 	.MACRO __ANDWRR
                 	AND  R@0,R@2
                 	AND  R@1,R@3
                 	.ENDM
                 
                 	.MACRO __ORWRN
                 	ORI  R@0,LOW(@2)
                 	ORI  R@1,HIGH(@2)
                 	.ENDM
                 
                 	.MACRO __ORWRR
                 	OR   R@0,R@2
                 	OR   R@1,R@3
                 	.ENDM
                 
                 	.MACRO __EORWRR
                 	EOR  R@0,R@2
                 	EOR  R@1,R@3
                 	.ENDM
                 
                 	.MACRO __GETWRS
                 	LDD  R@0,Y+@2
                 	LDD  R@1,Y+@2+1
                 	.ENDM
                 
                 	.MACRO __PUTBSR
                 	STD  Y+@1,R@0
                 	.ENDM
                 
                 	.MACRO __PUTWSR
                 	STD  Y+@2,R@0
                 	STD  Y+@2+1,R@1
                 	.ENDM
                 
                 	.MACRO __MOVEWRR
                 	MOV  R@0,R@2
                 	MOV  R@1,R@3
                 	.ENDM
                 
                 	.MACRO __INWR
                 	IN   R@0,@2
                 	IN   R@1,@2+1
                 	.ENDM
                 
                 	.MACRO __OUTWR
                 	OUT  @2+1,R@1
                 	OUT  @2,R@0
                 	.ENDM
                 
                 	.MACRO __CALL1MN
                 	LDS  R30,@0+(@1)
                 	LDS  R31,@0+(@1)+1
                 	ICALL
                 	.ENDM
                 
                 	.MACRO __CALL1FN
                 	LDI  R30,LOW(2*@0+(@1))
                 	LDI  R31,HIGH(2*@0+(@1))
                 	CALL __GETW1PF
                 	ICALL
                 	.ENDM
                 
                 	.MACRO __CALL2EN
                 	PUSH R26
                 	PUSH R27
                 	LDI  R26,LOW(@0+(@1))
                 	LDI  R27,HIGH(@0+(@1))
                 	CALL __EEPROMRDW
                 	POP  R27
                 	POP  R26
                 	ICALL
                 	.ENDM
                 
                 	.MACRO __CALL2EX
                 	SUBI R26,LOW(-@0)
                 	SBCI R27,HIGH(-@0)
                 	CALL __EEPROMRDD
                 	ICALL
                 	.ENDM
                 
                 	.MACRO __GETW1STACK
                 	IN   R30,SPL
                 	IN   R31,SPH
                 	ADIW R30,@0+1
                 	LD   R0,Z+
                 	LD   R31,Z
                 	MOV  R30,R0
                 	.ENDM
                 
                 	.MACRO __GETD1STACK
                 	IN   R30,SPL
                 	IN   R31,SPH
                 	ADIW R30,@0+1
                 	LD   R0,Z+
                 	LD   R1,Z+
                 	LD   R22,Z
                 	MOVW R30,R0
                 	.ENDM
                 
                 	.MACRO __NBST
                 	BST  R@0,@1
                 	IN   R30,SREG
                 	LDI  R31,0x40
                 	EOR  R30,R31
                 	OUT  SREG,R30
                 	.ENDM
                 
                 
                 	.MACRO __PUTB1SN
                 	LDD  R26,Y+@0
                 	LDD  R27,Y+@0+1
                 	SUBI R26,LOW(-@1)
                 	SBCI R27,HIGH(-@1)
                 	ST   X,R30
                 	.ENDM
                 
                 	.MACRO __PUTW1SN
                 	LDD  R26,Y+@0
                 	LDD  R27,Y+@0+1
                 	SUBI R26,LOW(-@1)
                 	SBCI R27,HIGH(-@1)
                 	ST   X+,R30
                 	ST   X,R31
                 	.ENDM
                 
                 	.MACRO __PUTD1SN
                 	LDD  R26,Y+@0
                 	LDD  R27,Y+@0+1
                 	SUBI R26,LOW(-@1)
                 	SBCI R27,HIGH(-@1)
                 	CALL __PUTDP1
                 	.ENDM
                 
                 	.MACRO __PUTB1SNS
                 	LDD  R26,Y+@0
                 	LDD  R27,Y+@0+1
                 	ADIW R26,@1
                 	ST   X,R30
                 	.ENDM
                 
                 	.MACRO __PUTW1SNS
                 	LDD  R26,Y+@0
                 	LDD  R27,Y+@0+1
                 	ADIW R26,@1
                 	ST   X+,R30
                 	ST   X,R31
                 	.ENDM
                 
                 	.MACRO __PUTD1SNS
                 	LDD  R26,Y+@0
                 	LDD  R27,Y+@0+1
                 	ADIW R26,@1
                 	CALL __PUTDP1
                 	.ENDM
                 
                 	.MACRO __PUTB1PMN
                 	LDS  R26,@0
                 	LDS  R27,@0+1
                 	SUBI R26,LOW(-@1)
                 	SBCI R27,HIGH(-@1)
                 	ST   X,R30
                 	.ENDM
                 
                 	.MACRO __PUTW1PMN
                 	LDS  R26,@0
                 	LDS  R27,@0+1
                 	SUBI R26,LOW(-@1)
                 	SBCI R27,HIGH(-@1)
                 	ST   X+,R30
                 	ST   X,R31
                 	.ENDM
                 
                 	.MACRO __PUTD1PMN
                 	LDS  R26,@0
                 	LDS  R27,@0+1
                 	SUBI R26,LOW(-@1)
                 	SBCI R27,HIGH(-@1)
                 	CALL __PUTDP1
                 	.ENDM
                 
                 	.MACRO __PUTB1PMNS
                 	LDS  R26,@0
                 	LDS  R27,@0+1
                 	ADIW R26,@1
                 	ST   X,R30
                 	.ENDM
                 
                 	.MACRO __PUTW1PMNS
                 	LDS  R26,@0
                 	LDS  R27,@0+1
                 	ADIW R26,@1
                 	ST   X+,R30
                 	ST   X,R31
                 	.ENDM
                 
                 	.MACRO __PUTD1PMNS
                 	LDS  R26,@0
                 	LDS  R27,@0+1
                 	ADIW R26,@1
                 	CALL __PUTDP1
                 	.ENDM
                 
                 	.MACRO __PUTB1RN
                 	MOVW R26,R@0
                 	SUBI R26,LOW(-@1)
                 	SBCI R27,HIGH(-@1)
                 	ST   X,R30
                 	.ENDM
                 
                 	.MACRO __PUTW1RN
                 	MOVW R26,R@0
                 	SUBI R26,LOW(-@1)
                 	SBCI R27,HIGH(-@1)
                 	ST   X+,R30
                 	ST   X,R31
                 	.ENDM
                 
                 	.MACRO __PUTD1RN
                 	MOVW R26,R@0
                 	SUBI R26,LOW(-@1)
                 	SBCI R27,HIGH(-@1)
                 	CALL __PUTDP1
                 	.ENDM
                 
                 	.MACRO __PUTB1RNS
                 	MOVW R26,R@0
                 	ADIW R26,@1
                 	ST   X,R30
                 	.ENDM
                 
                 	.MACRO __PUTW1RNS
                 	MOVW R26,R@0
                 	ADIW R26,@1
                 	ST   X+,R30
                 	ST   X,R31
                 	.ENDM
                 
                 	.MACRO __PUTD1RNS
                 	MOVW R26,R@0
                 	ADIW R26,@1
                 	CALL __PUTDP1
                 	.ENDM
                 
                 	.MACRO __PUTB1RON
                 	MOV  R26,R@0
                 	MOV  R27,R@1
                 	SUBI R26,LOW(-@2)
                 	SBCI R27,HIGH(-@2)
                 	ST   X,R30
                 	.ENDM
                 
                 	.MACRO __PUTW1RON
                 	MOV  R26,R@0
                 	MOV  R27,R@1
                 	SUBI R26,LOW(-@2)
                 	SBCI R27,HIGH(-@2)
                 	ST   X+,R30
                 	ST   X,R31
                 	.ENDM
                 
                 	.MACRO __PUTD1RON
                 	MOV  R26,R@0
                 	MOV  R27,R@1
                 	SUBI R26,LOW(-@2)
                 	SBCI R27,HIGH(-@2)
                 	CALL __PUTDP1
                 	.ENDM
                 
                 	.MACRO __PUTB1RONS
                 	MOV  R26,R@0
                 	MOV  R27,R@1
                 	ADIW R26,@2
                 	ST   X,R30
                 	.ENDM
                 
                 	.MACRO __PUTW1RONS
                 	MOV  R26,R@0
                 	MOV  R27,R@1
                 	ADIW R26,@2
                 	ST   X+,R30
                 	ST   X,R31
                 	.ENDM
                 
                 	.MACRO __PUTD1RONS
                 	MOV  R26,R@0
                 	MOV  R27,R@1
                 	ADIW R26,@2
                 	CALL __PUTDP1
                 	.ENDM
                 
                 
                 	.MACRO __GETB1SX
                 	MOVW R30,R28
                 	SUBI R30,LOW(-@0)
                 	SBCI R31,HIGH(-@0)
                 	LD   R30,Z
                 	.ENDM
                 
                 	.MACRO __GETB1HSX
                 	MOVW R30,R28
                 	SUBI R30,LOW(-@0)
                 	SBCI R31,HIGH(-@0)
                 	LD   R31,Z
                 	.ENDM
                 
                 	.MACRO __GETW1SX
                 	MOVW R30,R28
                 	SUBI R30,LOW(-@0)
                 	SBCI R31,HIGH(-@0)
                 	LD   R0,Z+
                 	LD   R31,Z
                 	MOV  R30,R0
                 	.ENDM
                 
                 	.MACRO __GETD1SX
                 	MOVW R30,R28
                 	SUBI R30,LOW(-@0)
                 	SBCI R31,HIGH(-@0)
                 	LD   R0,Z+
                 	LD   R1,Z+
                 	LD   R22,Z+
                 	LD   R23,Z
                 	MOVW R30,R0
                 	.ENDM
                 
                 	.MACRO __GETB2SX
                 	MOVW R26,R28
                 	SUBI R26,LOW(-@0)
                 	SBCI R27,HIGH(-@0)
                 	LD   R26,X
                 	.ENDM
                 
                 	.MACRO __GETW2SX
                 	MOVW R26,R28
                 	SUBI R26,LOW(-@0)
                 	SBCI R27,HIGH(-@0)
                 	LD   R0,X+
                 	LD   R27,X
                 	MOV  R26,R0
                 	.ENDM
                 
                 	.MACRO __GETD2SX
                 	MOVW R26,R28
                 	SUBI R26,LOW(-@0)
                 	SBCI R27,HIGH(-@0)
                 	LD   R0,X+
                 	LD   R1,X+
                 	LD   R24,X+
                 	LD   R25,X
                 	MOVW R26,R0
                 	.ENDM
                 
                 	.MACRO __GETBRSX
                 	MOVW R30,R28
                 	SUBI R30,LOW(-@1)
                 	SBCI R31,HIGH(-@1)
                 	LD   R@0,Z
                 	.ENDM
                 
                 	.MACRO __GETWRSX
                 	MOVW R30,R28
                 	SUBI R30,LOW(-@2)
                 	SBCI R31,HIGH(-@2)
                 	LD   R@0,Z+
                 	LD   R@1,Z
                 	.ENDM
                 
                 	.MACRO __GETBRSX2
                 	MOVW R26,R28
                 	SUBI R26,LOW(-@1)
                 	SBCI R27,HIGH(-@1)
                 	LD   R@0,X
                 	.ENDM
                 
                 	.MACRO __GETWRSX2
                 	MOVW R26,R28
                 	SUBI R26,LOW(-@2)
                 	SBCI R27,HIGH(-@2)
                 	LD   R@0,X+
                 	LD   R@1,X
                 	.ENDM
                 
                 	.MACRO __LSLW8SX
                 	MOVW R30,R28
                 	SUBI R30,LOW(-@0)
                 	SBCI R31,HIGH(-@0)
                 	LD   R31,Z
                 	CLR  R30
                 	.ENDM
                 
                 	.MACRO __PUTB1SX
                 	MOVW R26,R28
                 	SUBI R26,LOW(-@0)
                 	SBCI R27,HIGH(-@0)
                 	ST   X,R30
                 	.ENDM
                 
                 	.MACRO __PUTW1SX
                 	MOVW R26,R28
                 	SUBI R26,LOW(-@0)
                 	SBCI R27,HIGH(-@0)
                 	ST   X+,R30
                 	ST   X,R31
                 	.ENDM
                 
                 	.MACRO __PUTD1SX
                 	MOVW R26,R28
                 	SUBI R26,LOW(-@0)
                 	SBCI R27,HIGH(-@0)
                 	ST   X+,R30
                 	ST   X+,R31
                 	ST   X+,R22
                 	ST   X,R23
                 	.ENDM
                 
                 	.MACRO __CLRW1SX
                 	MOVW R26,R28
                 	SUBI R26,LOW(-@0)
                 	SBCI R27,HIGH(-@0)
                 	ST   X+,R30
                 	ST   X,R30
                 	.ENDM
                 
                 	.MACRO __CLRD1SX
                 	MOVW R26,R28
                 	SUBI R26,LOW(-@0)
                 	SBCI R27,HIGH(-@0)
                 	ST   X+,R30
                 	ST   X+,R30
                 	ST   X+,R30
                 	ST   X,R30
                 	.ENDM
                 
                 	.MACRO __PUTB2SX
                 	MOVW R30,R28
                 	SUBI R30,LOW(-@0)
                 	SBCI R31,HIGH(-@0)
                 	ST   Z,R26
                 	.ENDM
                 
                 	.MACRO __PUTW2SX
                 	MOVW R30,R28
                 	SUBI R30,LOW(-@0)
                 	SBCI R31,HIGH(-@0)
                 	ST   Z+,R26
                 	ST   Z,R27
                 	.ENDM
                 
                 	.MACRO __PUTD2SX
                 	MOVW R30,R28
                 	SUBI R30,LOW(-@0)
                 	SBCI R31,HIGH(-@0)
                 	ST   Z+,R26
                 	ST   Z+,R27
                 	ST   Z+,R24
                 	ST   Z,R25
                 	.ENDM
                 
                 	.MACRO __PUTBSRX
                 	MOVW R30,R28
                 	SUBI R30,LOW(-@1)
                 	SBCI R31,HIGH(-@1)
                 	ST   Z,R@0
                 	.ENDM
                 
                 	.MACRO __PUTWSRX
                 	MOVW R30,R28
                 	SUBI R30,LOW(-@2)
                 	SBCI R31,HIGH(-@2)
                 	ST   Z+,R@0
                 	ST   Z,R@1
                 	.ENDM
                 
                 	.MACRO __PUTB1SNX
                 	MOVW R26,R28
                 	SUBI R26,LOW(-@0)
                 	SBCI R27,HIGH(-@0)
                 	LD   R0,X+
                 	LD   R27,X
                 	MOV  R26,R0
                 	SUBI R26,LOW(-@1)
                 	SBCI R27,HIGH(-@1)
                 	ST   X,R30
                 	.ENDM
                 
                 	.MACRO __PUTW1SNX
                 	MOVW R26,R28
                 	SUBI R26,LOW(-@0)
                 	SBCI R27,HIGH(-@0)
                 	LD   R0,X+
                 	LD   R27,X
                 	MOV  R26,R0
                 	SUBI R26,LOW(-@1)
                 	SBCI R27,HIGH(-@1)
                 	ST   X+,R30
                 	ST   X,R31
                 	.ENDM
                 
                 	.MACRO __PUTD1SNX
                 	MOVW R26,R28
                 	SUBI R26,LOW(-@0)
                 	SBCI R27,HIGH(-@0)
                 	LD   R0,X+
                 	LD   R27,X
                 	MOV  R26,R0
                 	SUBI R26,LOW(-@1)
                 	SBCI R27,HIGH(-@1)
                 	ST   X+,R30
                 	ST   X+,R31
                 	ST   X+,R22
                 	ST   X,R23
                 	.ENDM
                 
                 	.MACRO __MULBRR
                 	MULS R@0,R@1
                 	MOVW R30,R0
                 	.ENDM
                 
                 	.MACRO __MULBRRU
                 	MUL  R@0,R@1
                 	MOVW R30,R0
                 	.ENDM
                 
                 	.MACRO __MULBRR0
                 	MULS R@0,R@1
                 	.ENDM
                 
                 	.MACRO __MULBRRU0
                 	MUL  R@0,R@1
                 	.ENDM
                 
                 	.MACRO __MULBNWRU
                 	LDI  R26,@2
                 	MUL  R26,R@0
                 	MOVW R30,R0
                 	MUL  R26,R@1
                 	ADD  R31,R0
                 	.ENDM
                 
                 ;GPIOR0 INITIALIZATION VALUE
                 	.EQU __GPIOR0_INIT=0x00
                 
                 	.CSEG
                 	.ORG 0x00
                 
                 ;START OF CODE MARKER
                 __START_OF_CODE:
                 
                 ;INTERRUPT VECTORS
000000 940c 0101 	JMP  __RESET
000002 940c 0000 	JMP  0x00
000004 940c 0000 	JMP  0x00
000006 940c 0000 	JMP  0x00
000008 940c 0000 	JMP  0x00
00000a 940c 0000 	JMP  0x00
00000c 940c 0000 	JMP  0x00
00000e 940c 0000 	JMP  0x00
000010 940c 0000 	JMP  0x00
000012 940c 0000 	JMP  0x00
000014 940c 0000 	JMP  0x00
000016 940c 0000 	JMP  0x00
000018 940c 0000 	JMP  0x00
00001a 940c 0000 	JMP  0x00
00001c 940c 0000 	JMP  0x00
00001e 940c 0000 	JMP  0x00
000020 940c 0000 	JMP  0x00
000022 940c 025c 	JMP  _timer1_compa_isr
000024 940c 0000 	JMP  0x00
000026 940c 0000 	JMP  0x00
000028 940c 0000 	JMP  0x00
00002a 940c 0000 	JMP  0x00
00002c 940c 0000 	JMP  0x00
00002e 940c 0000 	JMP  0x00
000030 940c 0000 	JMP  0x00
000032 940c 0000 	JMP  0x00
000034 940c 0000 	JMP  0x00
000036 940c 0000 	JMP  0x00
000038 940c 0000 	JMP  0x00
00003a 940c 0000 	JMP  0x00
00003c 940c 0000 	JMP  0x00
00003e 940c 0000 	JMP  0x00
000040 940c 0000 	JMP  0x00
000042 940c 0000 	JMP  0x00
000044 940c 0000 	JMP  0x00
000046 940c 0000 	JMP  0x00
000048 940c 0000 	JMP  0x00
00004a 940c 0000 	JMP  0x00
                 
                 _k1:
00004c 2220
00004d 2b2a
00004e 5b2c
00004f 5d3d      	.DB  0x20,0x22,0x2A,0x2B,0x2C,0x5B,0x3D,0x5D
000050 7f7c
C:\Users\980006738\Documents\Semestre 8\Lab de Micros\LabMicrocontroladores\CodeVision\P02_Logger\Debug\List\logger.asm(1141): warning: .cseg .db misalignment - padding zero byte
000051 0000      	.DB  0x7C,0x7F,0x0
                 _vst_G102:
000052 0400
000053 0200
000054 0100
000055 0080      	.DB  0x0,0x4,0x0,0x2,0x0,0x1,0x80,0x0
000056 0040
000057 0020
000058 0010
000059 0008      	.DB  0x40,0x0,0x20,0x0,0x10,0x0,0x8,0x0
00005a 0004
00005b 0002
00005c 0000      	.DB  0x4,0x0,0x2,0x0,0x0,0x0
                 _cst_G102:
00005d 8000
00005e 4000
00005f 2000
000060 1000      	.DB  0x0,0x80,0x0,0x40,0x0,0x20,0x0,0x10
000061 0800
000062 4000
000063 2000
000064 1000      	.DB  0x0,0x8,0x0,0x40,0x0,0x20,0x0,0x10
000065 0800
000066 0400
000067 0200      	.DB  0x0,0x8,0x0,0x4,0x0,0x2
                 _tbl10_G103:
000068 2710
000069 03e8
00006a 0064
00006b 000a      	.DB  0x10,0x27,0xE8,0x3,0x64,0x0,0xA,0x0
00006c 0001      	.DB  0x1,0x0
                 _tbl16_G103:
00006d 1000
00006e 0100
00006f 0010
000070 0001      	.DB  0x0,0x10,0x0,0x1,0x10,0x0,0x1,0x0
                 
                 _0x3:
000071 0303
000072 0203
000073 0c02
000074 0800      	.DB  0x3,0x3,0x3,0x2,0x2,0xC,0x0,0x8
000075 0100
000076 0600      	.DB  0x0,0x1,0x0,0x6
                 _0x25:
000077 3a30
000078 756d
000079 7365
00007a 7274      	.DB  0x30,0x3A,0x6D,0x75,0x65,0x73,0x74,0x72
00007b 2e61
00007c 7874
C:\Users\980006738\Documents\Semestre 8\Lab de Micros\LabMicrocontroladores\CodeVision\P02_Logger\Debug\List\logger.asm(1161): warning: .cseg .db misalignment - padding zero byte
00007d 0074      	.DB  0x61,0x2E,0x74,0x78,0x74
                 _0x26:
C:\Users\980006738\Documents\Semestre 8\Lab de Micros\LabMicrocontroladores\CodeVision\P02_Logger\Debug\List\logger.asm(1163): warning: .cseg .db misalignment - padding zero byte
00007e 0005      	.DB  0x5
                 _0x0:
00007f 7241
000080 6863
000081 7669
000082 206f      	.DB  0x41,0x72,0x63,0x68,0x69,0x76,0x6F,0x20
000083 4f4e
000084 4520
000085 636e
000086 6e6f      	.DB  0x4E,0x4F,0x20,0x45,0x6E,0x63,0x6F,0x6E
000087 7274
000088 6461
000089 006f
00008a 7244      	.DB  0x74,0x72,0x61,0x64,0x6F,0x0,0x44,0x72
00008b 7669
00008c 2065
00008d 4f4e
00008e 4420      	.DB  0x69,0x76,0x65,0x20,0x4E,0x4F,0x20,0x44
00008f 7465
000090 6365
000091 6174
000092 6f64      	.DB  0x65,0x74,0x65,0x63,0x74,0x61,0x64,0x6F
000093 2500
000094 3230
000095 3a69
000096 3025      	.DB  0x0,0x25,0x30,0x32,0x69,0x3A,0x25,0x30
000097 6932
000098 253a
000099 3230
00009a 2069      	.DB  0x32,0x69,0x3A,0x25,0x30,0x32,0x69,0x20
00009b 6925
00009c 252e
00009d 2d69
00009e 6925      	.DB  0x25,0x69,0x2E,0x25,0x69,0x2D,0x25,0x69
00009f 252e
0000a0 0069
0000a1 3025
0000a2 6932      	.DB  0x2E,0x25,0x69,0x0,0x25,0x30,0x32,0x69
0000a3 252f
0000a4 3230
0000a5 2f69
0000a6 3025      	.DB  0x2F,0x25,0x30,0x32,0x69,0x2F,0x25,0x30
0000a7 6932
0000a8 4d20
0000a9 203a
0000aa 6925      	.DB  0x32,0x69,0x20,0x4D,0x3A,0x20,0x25,0x69
0000ab 0020
0000ac 255b
0000ad 3230
0000ae 2f69      	.DB  0x20,0x0,0x5B,0x25,0x30,0x32,0x69,0x2F
0000af 3025
0000b0 6932
0000b1 252f
0000b2 3230      	.DB  0x25,0x30,0x32,0x69,0x2F,0x25,0x30,0x32
0000b3 2069
0000b4 3025
0000b5 6932
0000b6 253a      	.DB  0x69,0x20,0x25,0x30,0x32,0x69,0x3A,0x25
0000b7 3230
0000b8 3a69
0000b9 3025
0000ba 6932      	.DB  0x30,0x32,0x69,0x3A,0x25,0x30,0x32,0x69
0000bb 205d
0000bc 654e
0000bd 5f77
0000be 736d      	.DB  0x5D,0x20,0x4E,0x65,0x77,0x5F,0x6D,0x73
0000bf 5f67
0000c0 6372
0000c1 6476
0000c2 3a00      	.DB  0x67,0x5F,0x72,0x63,0x76,0x64,0x0,0x3A
0000c3 5620
0000c4 6c6f
0000c5 6174
0000c6 6567      	.DB  0x20,0x56,0x6F,0x6C,0x74,0x61,0x67,0x65
0000c7 6920
0000c8 2073
0000c9 565b
0000ca 3a31      	.DB  0x20,0x69,0x73,0x20,0x5B,0x56,0x31,0x3A
0000cb 3025
0000cc 6931
0000cd 252e
0000ce 3230      	.DB  0x25,0x30,0x31,0x69,0x2E,0x25,0x30,0x32
0000cf 2c69
0000d0 5620
0000d1 3a32
0000d2 3025      	.DB  0x69,0x2C,0x20,0x56,0x32,0x3A,0x25,0x30
0000d3 6931
0000d4 252e
0000d5 3230
0000d6 5d69      	.DB  0x31,0x69,0x2E,0x25,0x30,0x32,0x69,0x5D
C:\Users\980006738\Documents\Semestre 8\Lab de Micros\LabMicrocontroladores\CodeVision\P02_Logger\Debug\List\logger.asm(1187): warning: .cseg .db misalignment - padding zero byte
0000d7 0000      	.DB  0x0
                 _0x2020003:
C:\Users\980006738\Documents\Semestre 8\Lab de Micros\LabMicrocontroladores\CodeVision\P02_Logger\Debug\List\logger.asm(1189): warning: .cseg .db misalignment - padding zero byte
0000d8 0001      	.DB  0x1
                 _0x20200FE:
C:\Users\980006738\Documents\Semestre 8\Lab de Micros\LabMicrocontroladores\CodeVision\P02_Logger\Debug\List\logger.asm(1191): warning: .cseg .db misalignment - padding zero byte
0000d9 0004      	.DB  0x4
                 _0x2040000:
0000da feeb
0000db 4d90
0000dc 4453
0000dd 534f      	.DB  0xEB,0xFE,0x90,0x4D,0x53,0x44,0x4F,0x53
0000de 2e35
0000df 0030
0000e0 4f4e
0000e1 4e20      	.DB  0x35,0x2E,0x30,0x0,0x4E,0x4F,0x20,0x4E
0000e2 4d41
0000e3 2045
0000e4 2020
0000e5 4620      	.DB  0x41,0x4D,0x45,0x20,0x20,0x20,0x20,0x46
0000e6 5441
0000e7 3233
0000e8 2020
0000e9 0020      	.DB  0x41,0x54,0x33,0x32,0x20,0x20,0x20,0x0
0000ea 4f4e
0000eb 4e20
0000ec 4d41
0000ed 2045      	.DB  0x4E,0x4F,0x20,0x4E,0x41,0x4D,0x45,0x20
0000ee 2020
0000ef 4620
0000f0 5441
0000f1 2020      	.DB  0x20,0x20,0x20,0x46,0x41,0x54,0x20,0x20
0000f2 2020
0000f3 0020      	.DB  0x20,0x20,0x20,0x0
                 
                 __GLOBAL_INI_TBL:
0000f4 000d      	.DW  0x0D
0000f5 0915      	.DW  _fileName
0000f6 00ee      	.DW  _0x25*2
                 
0000f7 0001      	.DW  0x01
0000f8 0963      	.DW  _STM
0000f9 00fc      	.DW  _0x26*2
                 
0000fa 0001      	.DW  0x01
0000fb 0e36      	.DW  _status_G101
0000fc 01b0      	.DW  _0x2020003*2
                 
0000fd 0001      	.DW  0x01
0000fe 0e3a      	.DW  _flags_S101000C000
0000ff 01b2      	.DW  _0x20200FE*2
                 
                 _0xFFFFFFFF:
000100 0000      	.DW  0
                 
                 #define __GLOBAL_INI_TBL_PRESENT 1
                 
                 __RESET:
000101 94f8      	CLI
000102 27ee      	CLR  R30
000103 bbef      	OUT  EECR,R30
                 
                 ;INTERRUPT VECTORS ARE PLACED
                 ;AT THE START OF FLASH
000104 e0f1      	LDI  R31,1
000105 bff5      	OUT  MCUCR,R31
000106 bfe5      	OUT  MCUCR,R30
                 
                 ;CLEAR R2-R14
000107 e08d      	LDI  R24,(14-2)+1
000108 e0a2      	LDI  R26,2
000109 27bb      	CLR  R27
                 __CLEAR_REG:
00010a 93ed      	ST   X+,R30
00010b 958a      	DEC  R24
00010c f7e9      	BRNE __CLEAR_REG
                 
                 ;CLEAR SRAM
00010d e080      	LDI  R24,LOW(__CLEAR_SRAM_SIZE)
00010e e290      	LDI  R25,HIGH(__CLEAR_SRAM_SIZE)
00010f e0a0      	LDI  R26,LOW(__SRAM_START)
000110 e0b1      	LDI  R27,HIGH(__SRAM_START)
                 __CLEAR_SRAM:
000111 93ed      	ST   X+,R30
000112 9701      	SBIW R24,1
000113 f7e9      	BRNE __CLEAR_SRAM
                 
                 ;GLOBAL VARIABLES INITIALIZATION
000114 eee8      	LDI  R30,LOW(__GLOBAL_INI_TBL*2)
000115 e0f1      	LDI  R31,HIGH(__GLOBAL_INI_TBL*2)
                 __GLOBAL_INI_NEXT:
000116 9185      	LPM  R24,Z+
000117 9195      	LPM  R25,Z+
000118 9700      	SBIW R24,0
000119 f061      	BREQ __GLOBAL_INI_END
00011a 91a5      	LPM  R26,Z+
00011b 91b5      	LPM  R27,Z+
00011c 9005      	LPM  R0,Z+
00011d 9015      	LPM  R1,Z+
00011e 01bf      	MOVW R22,R30
00011f 01f0      	MOVW R30,R0
                 __GLOBAL_INI_LOOP:
000120 9005      	LPM  R0,Z+
000121 920d      	ST   X+,R0
000122 9701      	SBIW R24,1
000123 f7e1      	BRNE __GLOBAL_INI_LOOP
000124 01fb      	MOVW R30,R22
000125 cff0      	RJMP __GLOBAL_INI_NEXT
                 __GLOBAL_INI_END:
                 
000126 bf8b      	OUT  RAMPZ,R24
                 
                 ;GPIOR0 INITIALIZATION
000127 e0e0      	LDI  R30,__GPIOR0_INIT
000128 bbee      	OUT  GPIOR0,R30
                 
                 ;HARDWARE STACK POINTER INITIALIZATION
000129 efef      	LDI  R30,LOW(__SRAM_END-__HEAP_SIZE)
00012a bfed      	OUT  SPL,R30
00012b e2e0      	LDI  R30,HIGH(__SRAM_END-__HEAP_SIZE)
00012c bfee      	OUT  SPH,R30
                 
                 ;DATA STACK POINTER INITIALIZATION
00012d e0c0      	LDI  R28,LOW(__SRAM_START+__DSTACK_SIZE)
00012e e0d9      	LDI  R29,HIGH(__SRAM_START+__DSTACK_SIZE)
                 
00012f 940c 031a 	JMP  _main
                 
                 	.ESEG
                 	.ORG 0
                 
                 	.DSEG
                 	.ORG 0x900
                 
                 	.CSEG
                 ;/*
                 ; * logger.c
                 ; *
                 ; * Created: 25-Feb-20 4:46:27 PM
                 ; * Author: javie
                 ; */
                 ;
                 ;// LCD config
                 ;#asm
                     .equ __lcd_port=0x11
                     .equ __lcd_EN=4
                     .equ __lcd_RS=5
                     .equ __lcd_D4=0
                     .equ __lcd_D5=1
                     .equ __lcd_D6=2
                     .equ __lcd_D7=3
                 ; 0000 0011 #endasm
                 ;
                 ;// DS1302 config
                 ;#asm
                 	.equ __ds1302_port=0x0B
                 	.equ __ds1302_io=2
                 	.equ __ds1302_sclk=1
                 	.equ __ds1302_rst=0
                 ; 0000 0019 #endasm
                 ;
                 ;#include <90usb1286.h>
                 	#ifndef __SLEEP_DEFINED__
                 	#define __SLEEP_DEFINED__
                 	.EQU __se_bit=0x01
                 	.EQU __sm_mask=0x0E
                 	.EQU __sm_powerdown=0x04
                 	.EQU __sm_powersave=0x06
                 	.EQU __sm_standby=0x0C
                 	.EQU __sm_ext_standby=0x0E
                 	.EQU __sm_adc_noise_red=0x02
                 	.SET power_ctrl_reg=smcr
                 	#endif
                 ;#include <ds1302.h>
                 ;#include <display.h>
                 
                 	.CSEG
                 _SetupLCD:
                 ; .FSTART _SetupLCD
000131 972c      	SBIW R28,12
000132 e08c      	LDI  R24,12
000133 e0a0      	LDI  R26,LOW(0)
000134 e0b0      	LDI  R27,HIGH(0)
000135 eee2      	LDI  R30,LOW(_0x3*2)
000136 e0f0      	LDI  R31,HIGH(_0x3*2)
000137 940e 2210 	CALL __INITLOCB
000139 930a      	ST   -Y,R16
                 ;	TableSetup -> Y+1
                 ;	i -> R16
                 ; 0000 001D     SBI __lcd_port-1,__lcd_EN
00013a 9a84          SBI __lcd_port-1,__lcd_EN
00013b 9a85          SBI __lcd_port-1,__lcd_RS
00013c 9a80          SBI __lcd_port-1,__lcd_D4
00013d 9a81          SBI __lcd_port-1,__lcd_D5
00013e 9a82          SBI __lcd_port-1,__lcd_D6
00013f 9a83          SBI __lcd_port-1,__lcd_D7
000140 e3a2      	LDI  R26,LOW(50)
000141 e0b0      	LDI  R27,0
000142 940e 1f3c 	CALL _delay_ms
000144 e000      	LDI  R16,LOW(0)
                 _0x5:
000145 300c      	CPI  R16,12
000146 f468      	BRSH _0x6
000147 940e 1a45 	CALL SUBOPT_0x0
000149 2fe0      	MOV  R30,R16
00014a e0f0      	LDI  R31,0
00014b 01de      	MOVW R26,R28
00014c 9611      	ADIW R26,1
00014d 0fae      	ADD  R26,R30
00014e 1fbf      	ADC  R27,R31
00014f 91ac      	LD   R26,X
000150 940e 1a49 	CALL SUBOPT_0x1
000152 5f0f      	SUBI R16,-1
000153 cff1      	RJMP _0x5
                 _0x6:
000154 e0ec      	LDI  R30,LOW(12)
000155 93e0 0900 	STS  _cursor,R30
000157 91a0 0900 	LDS  R26,_cursor
000159 d021      	RCALL _WriteComandLCD
00015a 8108      	LDD  R16,Y+0
00015b 962d      	ADIW R28,13
00015c 9508      	RET
                 ; .FEND
                 _PulseEn:
                 ; .FSTART _PulseEn
00015d 9a8c          SBI __lcd_port,__lcd_EN  // EN=1;
00015e 988c          CBI __lcd_port,__lcd_EN // EN=0;
00015f 9508      	RET
                 ; .FEND
                 _SendDataBitsLCD:
                 ; .FSTART _SendDataBitsLCD
000160 93aa      	ST   -Y,R26
                 ;	dato -> Y+0
000161 81e8      	LD   R30,Y
000162 70e8      	ANDI R30,LOW(0x8)
000163 f011      	BREQ _0x7
000164 9a8b      	SBI __lcd_port,__lcd_D7
000165 c001      	RJMP _0x8
                 _0x7:
000166 988b      	CBI __lcd_port,__lcd_D7
                 _0x8:
000167 81e8      	LD   R30,Y
000168 70e4      	ANDI R30,LOW(0x4)
000169 f011      	BREQ _0x9
00016a 9a8a      	SBI __lcd_port,__lcd_D6
00016b c001      	RJMP _0xA
                 _0x9:
00016c 988a      	CBI __lcd_port,__lcd_D6
                 _0xA:
00016d 81e8      	LD   R30,Y
00016e 70e2      	ANDI R30,LOW(0x2)
00016f f011      	BREQ _0xB
000170 9a89      	SBI __lcd_port,__lcd_D5
000171 c001      	RJMP _0xC
                 _0xB:
000172 9889      	CBI __lcd_port,__lcd_D5
                 _0xC:
000173 81e8      	LD   R30,Y
000174 70e1      	ANDI R30,LOW(0x1)
000175 f011      	BREQ _0xD
000176 9a88      	SBI __lcd_port,__lcd_D4
000177 c001      	RJMP _0xE
                 _0xD:
000178 9888      	CBI __lcd_port,__lcd_D4
                 _0xE:
000179 9621      	ADIW R28,1
00017a 9508      	RET
                 ; .FEND
                 _WriteComandLCD:
                 ; .FSTART _WriteComandLCD
00017b 93aa      	ST   -Y,R26
00017c 930a      	ST   -Y,R16
                 ;	Comando -> Y+1
                 ;	tempComando -> R16
00017d 988d      	CBI __lcd_port,__lcd_RS
00017e 940e 1a45 	CALL SUBOPT_0x0
000180 940e 1a4d 	CALL SUBOPT_0x2
000182 940e 1a54 	CALL SUBOPT_0x3
000184 dfd8      	RCALL _PulseEn
000185 8108      	LDD  R16,Y+0
000186 940c 0449 	JMP  _0x20E001E
                 ; .FEND
                 _CharLCD:
                 ; .FSTART _CharLCD
000188 93aa      	ST   -Y,R26
000189 930a      	ST   -Y,R16
                 ;	dato -> Y+1
                 ;	tempdato -> R16
00018a 9a8d      	SBI __lcd_port,__lcd_RS
00018b 940e 1a45 	CALL SUBOPT_0x0
00018d 940e 1a4d 	CALL SUBOPT_0x2
00018f 940e 1a54 	CALL SUBOPT_0x3
000191 dfcb      	RCALL _PulseEn
000192 8108      	LDD  R16,Y+0
000193 940c 0449 	JMP  _0x20E001E
                 ; .FEND
                 _StringLCD:
                 ; .FSTART _StringLCD
000195 93ba      	ST   -Y,R27
000196 93aa      	ST   -Y,R26
000197 930a      	ST   -Y,R16
                 ;	i -> R16
000198 e000      	LDI  R16,LOW(0)
                 _0x10:
000199 2fe0      	MOV  R30,R16
00019a 5f0f      	SUBI R16,-1
00019b 81a9      	LDD  R26,Y+1
00019c 81ba      	LDD  R27,Y+1+1
00019d e0f0      	LDI  R31,0
00019e 0fea      	ADD  R30,R26
00019f 1ffb      	ADC  R31,R27
0001a0 91a4      	LPM  R26,Z
0001a1 dfe6      	RCALL _CharLCD
0001a2 2fe0      	MOV  R30,R16
0001a3 81a9      	LDD  R26,Y+1
0001a4 81ba      	LDD  R27,Y+1+1
0001a5 e0f0      	LDI  R31,0
0001a6 0fea      	ADD  R30,R26
0001a7 1ffb      	ADC  R31,R27
0001a8 91e4      	LPM  R30,Z
0001a9 30e0      	CPI  R30,0
0001aa f771      	BRNE _0x10
0001ab 8108      	LDD  R16,Y+0
0001ac 940c 04b0 	JMP  _0x20E001C
                 ; .FEND
                 ;	tiempo -> Y+1
                 ;	i -> R16
                 _StringLCDVar:
                 ; .FSTART _StringLCDVar
0001ae 93ba      	ST   -Y,R27
0001af 93aa      	ST   -Y,R26
0001b0 930a      	ST   -Y,R16
                 ;	Mensaje -> Y+1
                 ;	i -> R16
0001b1 e000      	LDI  R16,LOW(0)
                 _0x16:
0001b2 2fe0      	MOV  R30,R16
0001b3 5f0f      	SUBI R16,-1
0001b4 81a9      	LDD  R26,Y+1
0001b5 81ba      	LDD  R27,Y+1+1
0001b6 e0f0      	LDI  R31,0
0001b7 0fae      	ADD  R26,R30
0001b8 1fbf      	ADC  R27,R31
0001b9 91ac      	LD   R26,X
0001ba dfcd      	RCALL _CharLCD
0001bb 81a9      	LDD  R26,Y+1
0001bc 81ba      	LDD  R27,Y+1+1
0001bd 27ee      	CLR  R30
0001be 0fa0      	ADD  R26,R16
0001bf 1fbe      	ADC  R27,R30
0001c0 91ec      	LD   R30,X
0001c1 30e0      	CPI  R30,0
0001c2 f779      	BRNE _0x16
0001c3 8108      	LDD  R16,Y+0
0001c4 940c 04b0 	JMP  _0x20E001C
                 ; .FEND
                 _MoveCursor:
                 ; .FSTART _MoveCursor
0001c6 93aa      	ST   -Y,R26
                 ;	x -> Y+1
                 ;	y -> Y+0
0001c7 81e8      	LD   R30,Y
0001c8 e0f0      	LDI  R31,0
0001c9 9730      	SBIW R30,0
0001ca f419      	BRNE _0x1B
0001cb 81a9      	LDD  R26,Y+1
0001cc 58a0      	SUBI R26,-LOW(128)
0001cd c014      	RJMP _0x43
                 _0x1B:
0001ce 30e1      	CPI  R30,LOW(0x1)
0001cf e0a0      	LDI  R26,HIGH(0x1)
0001d0 07fa      	CPC  R31,R26
0001d1 f419      	BRNE _0x1C
0001d2 81a9      	LDD  R26,Y+1
0001d3 54a0      	SUBI R26,-LOW(192)
0001d4 c00d      	RJMP _0x43
                 _0x1C:
0001d5 30e2      	CPI  R30,LOW(0x2)
0001d6 e0a0      	LDI  R26,HIGH(0x2)
0001d7 07fa      	CPC  R31,R26
0001d8 f419      	BRNE _0x1D
0001d9 81a9      	LDD  R26,Y+1
0001da 56ac      	SUBI R26,-LOW(148)
0001db c006      	RJMP _0x43
                 _0x1D:
0001dc 30e3      	CPI  R30,LOW(0x3)
0001dd e0a0      	LDI  R26,HIGH(0x3)
0001de 07fa      	CPC  R31,R26
0001df f419      	BRNE _0x1A
0001e0 81a9      	LDD  R26,Y+1
0001e1 52ac      	SUBI R26,-LOW(212)
                 _0x43:
0001e2 df98      	RCALL _WriteComandLCD
                 _0x1A:
0001e3 940c 0449 	JMP  _0x20E001E
                 ; .FEND
                 ;	NoCaracter -> Y+3
                 ;	datos -> Y+1
                 ;	i -> R16
                 ;#include <delay.h>
                 ;#include <stdio.h>
                 ;#include <ff.h>
                 ;
                 ;// ADC
                 ;
                 ;// ADC variables
                 ;
                 ;
                 ;// Voltage Reference: Int., cap. on AREF
                 ;#define ADC_VREF_TYPE ((1<<REFS1) | (1<<REFS0) | (0<<ADLAR))
                 ;
                 ;// Read the AD conversion result
                 ;unsigned int read_adc(unsigned char adc_input)
                 ; 0000 002C {
                 _read_adc:
                 ; .FSTART _read_adc
                 ; 0000 002D ADMUX=adc_input | ADC_VREF_TYPE;
0001e5 93aa      	ST   -Y,R26
                 ;	adc_input -> Y+0
0001e6 81e8      	LD   R30,Y
0001e7 6ce0      	ORI  R30,LOW(0xC0)
0001e8 93e0 007c 	STS  124,R30
                 ; 0000 002E // Delay needed for the stabilization of the ADC input voltage
                 ; 0000 002F delay_us(10);
                +
0001ea e087     +LDI R24 , LOW ( 7 )
                +__DELAY_USB_LOOP :
0001eb 958a     +DEC R24
0001ec f7f1     +BRNE __DELAY_USB_LOOP
                 	__DELAY_USB 7
                 ; 0000 0030 // Start the AD conversion
                 ; 0000 0031 ADCSRA|=(1<<ADSC);
0001ed 91e0 007a 	LDS  R30,122
0001ef 64e0      	ORI  R30,0x40
0001f0 93e0 007a 	STS  122,R30
                 ; 0000 0032 // Wait for the AD conversion to complete
                 ; 0000 0033 while ((ADCSRA & (1<<ADIF))==0);
                 _0x22:
0001f2 91e0 007a 	LDS  R30,122
0001f4 71e0      	ANDI R30,LOW(0x10)
0001f5 f3e1      	BREQ _0x22
                 ; 0000 0034 ADCSRA|=(1<<ADIF);
0001f6 91e0 007a 	LDS  R30,122
0001f8 61e0      	ORI  R30,0x10
0001f9 93e0 007a 	STS  122,R30
                 ; 0000 0035 return ADCW;
0001fb 91e0 0078 	LDS  R30,120
0001fd 91f0 0079 	LDS  R31,120+1
0001ff 940c 06ea 	JMP  _0x20E0019
                 ; 0000 0036 }
                 ; .FEND
                 ;
                 ;float v1, v2;
                 ;int v1I, v1D, v2I, v2D;
                 ;
                 ;void updateADC(){
                 ; 0000 003B void updateADC(){
                 _updateADC:
                 ; .FSTART _updateADC
                 ; 0000 003C 
                 ; 0000 003D     v1 = (read_adc(6)*5.0)/1024.0;
000201 e0a6      	LDI  R26,LOW(6)
000202 940e 1a5b 	CALL SUBOPT_0x4
000204 93e0 0905 	STS  _v1,R30
000206 93f0 0906 	STS  _v1+1,R31
000208 9360 0907 	STS  _v1+2,R22
00020a 9370 0908 	STS  _v1+3,R23
                 ; 0000 003E     v2 = (read_adc(7)*5.0)/1024.0;
00020c e0a7      	LDI  R26,LOW(7)
00020d 940e 1a5b 	CALL SUBOPT_0x4
00020f 93e0 0909 	STS  _v2,R30
000211 93f0 090a 	STS  _v2+1,R31
000213 9360 090b 	STS  _v2+2,R22
000215 9370 090c 	STS  _v2+3,R23
                 ; 0000 003F     v1I = (int)v1;
000217 91e0 0905 	LDS  R30,_v1
000219 91f0 0906 	LDS  R31,_v1+1
00021b 9160 0907 	LDS  R22,_v1+2
00021d 9170 0908 	LDS  R23,_v1+3
00021f 940e 1f75 	CALL __CFD1
000221 93e0 090d 	STS  _v1I,R30
000223 93f0 090e 	STS  _v1I+1,R31
                 ; 0000 0040     v1D = (int)((v1 - (float)v1I)*100.0);
000225 940e 1a70 	CALL SUBOPT_0x5
000227 940e 212b 	CALL __CWD1
000229 940e 1fac 	CALL __CDF1
00022b 91a0 0905 	LDS  R26,_v1
00022d 91b0 0906 	LDS  R27,_v1+1
00022f 9180 0907 	LDS  R24,_v1+2
000231 9190 0908 	LDS  R25,_v1+3
000233 940e 1a75 	CALL SUBOPT_0x6
000235 93e0 090f 	STS  _v1D,R30
000237 93f0 0910 	STS  _v1D+1,R31
                 ; 0000 0041     v2I = (int)v2;
000239 91e0 0909 	LDS  R30,_v2
00023b 91f0 090a 	LDS  R31,_v2+1
00023d 9160 090b 	LDS  R22,_v2+2
00023f 9170 090c 	LDS  R23,_v2+3
000241 940e 1f75 	CALL __CFD1
000243 93e0 0911 	STS  _v2I,R30
000245 93f0 0912 	STS  _v2I+1,R31
                 ; 0000 0042     v2D = (int)((v2 - (float)v2I)*100.0);
000247 940e 1a82 	CALL SUBOPT_0x7
000249 940e 212b 	CALL __CWD1
00024b 940e 1fac 	CALL __CDF1
00024d 91a0 0909 	LDS  R26,_v2
00024f 91b0 090a 	LDS  R27,_v2+1
000251 9180 090b 	LDS  R24,_v2+2
000253 9190 090c 	LDS  R25,_v2+3
000255 940e 1a75 	CALL SUBOPT_0x6
000257 93e0 0913 	STS  _v2D,R30
000259 93f0 0914 	STS  _v2D+1,R31
                 ; 0000 0043 }
00025b 9508      	RET
                 ; .FEND
                 ;
                 ;// SD
                 ;char fileName[]  = "0:muestra.txt";
                 
                 	.DSEG
                 ;char date[32];
                 ;char text[32];
                 ;unsigned char STM=5, GS=0;
                 ;
                 ;    unsigned int br, br1;
                 ;    char buffer[100];
                 ;
                 ;    /* FAT function result */
                 ;    FRESULT res;
                 ;
                 ;    /* will hold the information for logical drive 0: */
                 ;    FATFS drive;
                 ;    FIL archivo; // file objects
                 ;
                 ;interrupt [TIM1_COMPA] void timer1_compa_isr(void)
                 ; 0000 0056 {
                 
                 	.CSEG
                 _timer1_compa_isr:
                 ; .FSTART _timer1_compa_isr
00025c 920a      	ST   -Y,R0
00025d 921a      	ST   -Y,R1
00025e 92fa      	ST   -Y,R15
00025f 936a      	ST   -Y,R22
000260 937a      	ST   -Y,R23
000261 938a      	ST   -Y,R24
000262 939a      	ST   -Y,R25
000263 93aa      	ST   -Y,R26
000264 93ba      	ST   -Y,R27
000265 93ea      	ST   -Y,R30
000266 93fa      	ST   -Y,R31
000267 b7ef      	IN   R30,SREG
000268 93ea      	ST   -Y,R30
                 ; 0000 0057 disk_timerproc();
000269 940e 095c 	CALL _disk_timerproc
                 ; 0000 0058 /* MMC/SD/SD HC card access low level timing function */
                 ; 0000 0059 }
00026b 91e9      	LD   R30,Y+
00026c bfef      	OUT  SREG,R30
00026d 91f9      	LD   R31,Y+
00026e 91e9      	LD   R30,Y+
00026f 91b9      	LD   R27,Y+
000270 91a9      	LD   R26,Y+
000271 9199      	LD   R25,Y+
000272 9189      	LD   R24,Y+
000273 9179      	LD   R23,Y+
000274 9169      	LD   R22,Y+
000275 90f9      	LD   R15,Y+
000276 9019      	LD   R1,Y+
000277 9009      	LD   R0,Y+
000278 9518      	RETI
                 ; .FEND
                 ;
                 ;// Open SD
                 ;void sd(char NombreArchivo[], char *TextoEscritura[],unsigned char order){
                 ; 0000 005C void sd(char NombreArchivo[], char *TextoEscritura[],unsigned char order){
                 _sd:
                 ; .FSTART _sd
                 ; 0000 005D 
                 ; 0000 005E 
                 ; 0000 005F     /* mount logical drive 0: */
                 ; 0000 0060     if ((res=f_mount(0,&drive))==FR_OK){
000279 93aa      	ST   -Y,R26
                 ;	NombreArchivo -> Y+3
                 ;	TextoEscritura -> Y+1
                 ;	order -> Y+0
00027a e0e0      	LDI  R30,LOW(0)
00027b 93ea      	ST   -Y,R30
00027c ecae      	LDI  R26,LOW(_drive)
00027d e0b9      	LDI  R27,HIGH(_drive)
00027e 940e 12c9 	CALL _f_mount
000280 93e0 09cd 	STS  _res,R30
000282 30e0      	CPI  R30,0
000283 f5d1      	BRNE _0x27
                 ; 0000 0061 
                 ; 0000 0062         /*Lectura de Archivo*/
                 ; 0000 0063         res = f_open(&archivo, NombreArchivo, FA_OPEN_ALWAYS | FA_WRITE | FA_READ);
000284 940e 1a87 	CALL SUBOPT_0x8
000286 940e 1a8c 	CALL SUBOPT_0x9
000288 e1a3      	LDI  R26,LOW(19)
000289 940e 12f6 	CALL _f_open
00028b 93e0 09cd 	STS  _res,R30
                 ; 0000 0064         if (res==FR_OK){
00028d 30e0      	CPI  R30,0
00028e f559      	BRNE _0x28
                 ; 0000 0065 
                 ; 0000 0066             if (order == 0){
00028f 81e8      	LD   R30,Y
000290 30e0      	CPI  R30,0
000291 f439      	BRNE _0x29
                 ; 0000 0067                 f_lseek(&archivo,archivo.fsize);
000292 940e 1a87 	CALL SUBOPT_0x8
000294 940e 1a91 	CALL SUBOPT_0xA
                 ; 0000 0068                 f_write(&archivo,&TextoEscritura,32,&br1);   // Write of TextoEscritura
000296 940e 1a9c 	CALL SUBOPT_0xB
000298 c01a      	RJMP _0x44
                 ; 0000 0069             }
                 ; 0000 006A             else {
                 _0x29:
                 ; 0000 006B                 f_lseek(&archivo,archivo.fsize);
000299 940e 1a87 	CALL SUBOPT_0x8
00029b 940e 1a91 	CALL SUBOPT_0xA
                 ; 0000 006C                 f_write(&archivo,&TextoEscritura,32,&br1);   // Write of TextoEscritura
00029d 940e 1a9c 	CALL SUBOPT_0xB
00029f 940e 142f 	CALL _f_write
                 ; 0000 006D                 buffer[0] = 0x0D;                //Carriage return
0002a1 e0ed      	LDI  R30,LOW(13)
0002a2 93e0 0969 	STS  _buffer,R30
                 ; 0000 006E                 buffer[1] = 0x0A;                //Line Feed
0002a4 e0ea      	LDI  R30,LOW(10)
                +
0002a5 93e0 096a+STS _buffer + ( 1 ) , R30
                 	__PUTB1MN _buffer,1
                 ; 0000 006F                 f_write(&archivo,buffer,2,&br);
0002a7 940e 1a87 	CALL SUBOPT_0x8
0002a9 e6e9      	LDI  R30,LOW(_buffer)
0002aa e0f9      	LDI  R31,HIGH(_buffer)
0002ab 93fa      	ST   -Y,R31
0002ac 93ea      	ST   -Y,R30
0002ad e0e2      	LDI  R30,LOW(2)
0002ae e0f0      	LDI  R31,HIGH(2)
0002af 93fa      	ST   -Y,R31
0002b0 93ea      	ST   -Y,R30
0002b1 e6a5      	LDI  R26,LOW(_br)
0002b2 e0b9      	LDI  R27,HIGH(_br)
                 _0x44:
0002b3 940e 142f 	CALL _f_write
                 ; 0000 0070             }
                 ; 0000 0071 
                 ; 0000 0072             /*Escribiendo el Texto*/
                 ; 0000 0073             f_close(&archivo);
0002b5 e0a0      	LDI  R26,LOW(_archivo)
0002b6 e0bc      	LDI  R27,HIGH(_archivo)
0002b7 940e 1695 	CALL _f_close
                 ; 0000 0074         }
                 ; 0000 0075         else{
0002b9 c003      	RJMP _0x2B
                 _0x28:
                 ; 0000 0076             StringLCD("Archivo NO Encontrado");
                +
0002ba efae     +LDI R26 , LOW ( 2 * _0x0 + ( 0 ) )
0002bb e0b0     +LDI R27 , HIGH ( 2 * _0x0 + ( 0 ) )
                 	__POINTW2FN _0x0,0
0002bc ded8      	RCALL _StringLCD
                 ; 0000 0077         }
                 _0x2B:
                 ; 0000 0078     }
                 ; 0000 0079     else{
0002bd c003      	RJMP _0x2C
                 _0x27:
                 ; 0000 007A          StringLCD("Drive NO Detectado");
                +
0002be e1a4     +LDI R26 , LOW ( 2 * _0x0 + ( 22 ) )
0002bf e0b1     +LDI R27 , HIGH ( 2 * _0x0 + ( 22 ) )
                 	__POINTW2FN _0x0,22
0002c0 ded4      	RCALL _StringLCD
                 ; 0000 007B     }
                 _0x2C:
                 ; 0000 007C     f_mount(0, 0); //Cerrar drive de SD
0002c1 e0e0      	LDI  R30,LOW(0)
0002c2 93ea      	ST   -Y,R30
0002c3 e0a0      	LDI  R26,LOW(0)
0002c4 e0b0      	LDI  R27,0
0002c5 940e 12c9 	CALL _f_mount
                 ; 0000 007D }
0002c7 9625      	ADIW R28,5
0002c8 9508      	RET
                 ; .FEND
                 ;
                 ;// Clock
                 ;unsigned char H=0,M=0,S=0, D=0,Mes=0,A=0; // Variables for clock
                 ;
                 ;unsigned char time[16];
                 ;
                 ;void updateClock(){
                 ; 0000 0084 void updateClock(){
                 _updateClock:
                 ; .FSTART _updateClock
                 ; 0000 0085     rtc_get_time(&H, &M, &S);
0002c9 e2e0      	LDI  R30,LOW(_H)
0002ca e0fe      	LDI  R31,HIGH(_H)
0002cb 93fa      	ST   -Y,R31
0002cc 93ea      	ST   -Y,R30
0002cd e2e1      	LDI  R30,LOW(_M)
0002ce e0fe      	LDI  R31,HIGH(_M)
0002cf 93fa      	ST   -Y,R31
0002d0 93ea      	ST   -Y,R30
0002d1 e2a2      	LDI  R26,LOW(_S)
0002d2 e0be      	LDI  R27,HIGH(_S)
0002d3 940e 0469 	CALL _rtc_get_time
                 ; 0000 0086     rtc_get_date(&D, &Mes, &A);
0002d5 e2e3      	LDI  R30,LOW(_D)
0002d6 e0fe      	LDI  R31,HIGH(_D)
0002d7 93fa      	ST   -Y,R31
0002d8 93ea      	ST   -Y,R30
0002d9 e2e4      	LDI  R30,LOW(_Mes)
0002da e0fe      	LDI  R31,HIGH(_Mes)
0002db 93fa      	ST   -Y,R31
0002dc 93ea      	ST   -Y,R30
0002dd e2a5      	LDI  R26,LOW(_A)
0002de e0be      	LDI  R27,HIGH(_A)
0002df 940e 0484 	CALL _rtc_get_date
                 ; 0000 0087 }
0002e1 9508      	RET
                 ; .FEND
                 ;
                 ;// LCD
                 ;void printTime(){
                 ; 0000 008A void printTime(){
                 _printTime:
                 ; .FSTART _printTime
                 ; 0000 008B     sprintf(time, "%02i:%02i:%02i %i.%i-%i.%i", H, M, S, v1I,(v1D/10), v2I,(v2D/10));
0002e2 e2e6      	LDI  R30,LOW(_time)
0002e3 e0fe      	LDI  R31,HIGH(_time)
0002e4 93fa      	ST   -Y,R31
0002e5 93ea      	ST   -Y,R30
                +
0002e6 e2e7     +LDI R30 , LOW ( 2 * _0x0 + ( 41 ) )
0002e7 e0f1     +LDI R31 , HIGH ( 2 * _0x0 + ( 41 ) )
                 	__POINTW1FN _0x0,41
0002e8 93fa      	ST   -Y,R31
0002e9 93ea      	ST   -Y,R30
0002ea 940e 1aa7 	CALL SUBOPT_0xC
0002ec 940e 1abd 	CALL SUBOPT_0xD
0002ee 91a0 090f 	LDS  R26,_v1D
0002f0 91b0 0910 	LDS  R27,_v1D+1
0002f2 940e 1ac3 	CALL SUBOPT_0xE
0002f4 940e 1acc 	CALL SUBOPT_0xF
0002f6 91a0 0913 	LDS  R26,_v2D
0002f8 91b0 0914 	LDS  R27,_v2D+1
0002fa 940e 1ac3 	CALL SUBOPT_0xE
0002fc e18c      	LDI  R24,28
0002fd 940e 19a0 	CALL _sprintf
0002ff 96a0      	ADIW R28,32
                 ; 0000 008C     MoveCursor(0,0);
000300 e0e0      	LDI  R30,LOW(0)
000301 93ea      	ST   -Y,R30
000302 e0a0      	LDI  R26,LOW(0)
000303 940e 1ad2 	CALL SUBOPT_0x10
                 ; 0000 008D     StringLCDVar(time);
                 ; 0000 008E     sprintf(time, "%02i/%02i/%02i M: %i ", D, Mes, A, STM);
000305 e2e6      	LDI  R30,LOW(_time)
000306 e0fe      	LDI  R31,HIGH(_time)
000307 93fa      	ST   -Y,R31
000308 93ea      	ST   -Y,R30
                +
000309 e4e2     +LDI R30 , LOW ( 2 * _0x0 + ( 68 ) )
00030a e0f1     +LDI R31 , HIGH ( 2 * _0x0 + ( 68 ) )
                 	__POINTW1FN _0x0,68
00030b 940e 1ad8 	CALL SUBOPT_0x11
00030d 91e0 0963 	LDS  R30,_STM
00030f 27ff      	CLR  R31
000310 2766      	CLR  R22
000311 2777      	CLR  R23
000312 940e 1af0 	CALL SUBOPT_0x12
                 ; 0000 008F     MoveCursor(0,1);
000314 e0e0      	LDI  R30,LOW(0)
000315 93ea      	ST   -Y,R30
000316 e0a1      	LDI  R26,LOW(1)
000317 940e 1ad2 	CALL SUBOPT_0x10
                 ; 0000 0090     StringLCDVar(time);
                 ; 0000 0091 }
000319 9508      	RET
                 ; .FEND
                 ;
                 ;
                 ;void main(void)
                 ; 0000 0095 {
                 _main:
                 ; .FSTART _main
                 ; 0000 0096 
                 ; 0000 0097 // ADC initialization
                 ; 0000 0098 // ADC Clock frequency: 1000.000 kHz
                 ; 0000 0099 // ADC Voltage Reference: Int., cap. on AREF
                 ; 0000 009A // ADC High Speed Mode: On
                 ; 0000 009B // Digital input buffers on ADC0: On, ADC1: On, ADC2: On, ADC3: On
                 ; 0000 009C // ADC4: On, ADC5: On, ADC6: Off, ADC7: Off
                 ; 0000 009D DIDR0=(1<<ADC7D) | (1<<ADC6D) | (0<<ADC5D) | (0<<ADC4D) | (0<<ADC3D) | (0<<ADC2D) | (0<<ADC1D) | (0<<ADC0D);
00031a ece0      	LDI  R30,LOW(192)
00031b 93e0 007e 	STS  126,R30
                 ; 0000 009E ADMUX=ADC_VREF_TYPE;
00031d 93e0 007c 	STS  124,R30
                 ; 0000 009F ADCSRA=(1<<ADEN) | (0<<ADSC) | (0<<ADATE) | (0<<ADIF) | (0<<ADIE) | (0<<ADPS2) | (0<<ADPS1) | (1<<ADPS0);
00031f e8e1      	LDI  R30,LOW(129)
000320 93e0 007a 	STS  122,R30
                 ; 0000 00A0 ADCSRB=(1<<ADHSM);
000322 e8e0      	LDI  R30,LOW(128)
000323 93e0 007b 	STS  123,R30
                 ; 0000 00A1 
                 ; 0000 00A2 // LCD
                 ; 0000 00A3 SetupLCD();
000325 940e 0131 	CALL _SetupLCD
                 ; 0000 00A4 
                 ; 0000 00A5 // DS1302
                 ; 0000 00A6 rtc_init(0,0,0);
000327 e0e0      	LDI  R30,LOW(0)
000328 93ea      	ST   -Y,R30
000329 93ea      	ST   -Y,R30
00032a e0a0      	LDI  R26,LOW(0)
00032b 940e 044b 	CALL _rtc_init
                 ; 0000 00A7 updateClock();
00032d df9b      	RCALL _updateClock
                 ; 0000 00A8 
                 ; 0000 00A9 // SD
                 ; 0000 00AA // Cdigo para hacer una interrupcin peridica cada 10ms
                 ; 0000 00AB // Timer/Counter 1 initialization
                 ; 0000 00AC // Clock source: System Clock
                 ; 0000 00AD // Clock value: 1000.000 kHz
                 ; 0000 00AE // Mode: CTC top=OCR1A
                 ; 0000 00AF // Compare A Match Interrupt: On
                 ; 0000 00B0 TCCR1B=0x09;
00032e e0e9      	LDI  R30,LOW(9)
00032f 93e0 0081 	STS  129,R30
                 ; 0000 00B1 OCR1AH=19999/256;
000331 e4ee      	LDI  R30,LOW(78)
000332 93e0 0089 	STS  137,R30
                 ; 0000 00B2 OCR1AL=19999%256;   //20000cuentas a 0.5us por cuenta=10mseg
000334 e1ef      	LDI  R30,LOW(31)
000335 93e0 0088 	STS  136,R30
                 ; 0000 00B3 TIMSK1=0x02;
000337 e0e2      	LDI  R30,LOW(2)
000338 93e0 006f 	STS  111,R30
                 ; 0000 00B4 SetupLCD();
00033a 940e 0131 	CALL _SetupLCD
                 ; 0000 00B5 #asm("sei")
00033c 9478      	sei
                 ; 0000 00B6 /* Inicia el puerto SPI para la SD */
                 ; 0000 00B7 disk_initialize(0);
00033d e0a0      	LDI  R26,LOW(0)
00033e 940e 060e 	CALL _disk_initialize
                 ; 0000 00B8 delay_ms(200);
000340 eca8      	LDI  R26,LOW(200)
000341 e0b0      	LDI  R27,0
000342 940e 1f3c 	CALL _delay_ms
                 ; 0000 00B9 
                 ; 0000 00BA // First actions
                 ; 0000 00BB PORTC = 0xFF;
000344 efef      	LDI  R30,LOW(255)
000345 b9e8      	OUT  0x8,R30
                 ; 0000 00BC 
                 ; 0000 00BD GS = S + STM;
000346 940e 1af7 	CALL SUBOPT_0x13
                 ; 0000 00BE 
                 ; 0000 00BF if(GS>59){
000348 f010      	BRLO _0x2D
                 ; 0000 00C0     GS = GS-59;
000349 940e 1b02 	CALL SUBOPT_0x14
                 ; 0000 00C1 }
                 ; 0000 00C2 
                 ; 0000 00C3 while (1)
                 _0x2D:
                 _0x2E:
                 ; 0000 00C4     {
                 ; 0000 00C5     // Please write your application code here
                 ; 0000 00C6         // Verify the correct range on clock time
                 ; 0000 00C7 
                 ; 0000 00C8         // ADC
                 ; 0000 00C9         updateADC();
00034b deb5      	RCALL _updateADC
                 ; 0000 00CA 
                 ; 0000 00CB         // Clock
                 ; 0000 00CC         updateClock();
00034c df7c      	RCALL _updateClock
                 ; 0000 00CD         printTime();
00034d df94      	RCALL _printTime
                 ; 0000 00CE 
                 ; 0000 00CF         // If alarm is on, switch will turn alarm off without
                 ; 0000 00D0         //  changing the default variable
                 ; 0000 00D1         if(!PINC.0){
00034e 9930      	SBIC 0x6,0
00034f c005      	RJMP _0x31
                 ; 0000 00D2             H++;
000350 91e0 0e20 	LDS  R30,_H
000352 5fef      	SUBI R30,-LOW(1)
000353 940e 1b08 	CALL SUBOPT_0x15
                 ; 0000 00D3             rtc_set_time(H, M, S);
                 ; 0000 00D4         }
                 ; 0000 00D5         if(!PINC.1){
                 _0x31:
000355 9931      	SBIC 0x6,1
000356 c005      	RJMP _0x32
                 ; 0000 00D6             M++;
000357 91e0 0e21 	LDS  R30,_M
000359 5fef      	SUBI R30,-LOW(1)
00035a 940e 1b12 	CALL SUBOPT_0x16
                 ; 0000 00D7             rtc_set_time(H, M, S);
                 ; 0000 00D8         }
                 ; 0000 00D9         if(!PINC.2){
                 _0x32:
00035c 9932      	SBIC 0x6,2
00035d c002      	RJMP _0x33
                 ; 0000 00DA             S=0;
00035e 940e 1b1e 	CALL SUBOPT_0x17
                 ; 0000 00DB             rtc_set_time(H, M, S);
                 ; 0000 00DC         }
                 ; 0000 00DD         if(!PINC.3){
                 _0x33:
000360 9933      	SBIC 0x6,3
000361 c005      	RJMP _0x34
                 ; 0000 00DE             D++;
000362 91e0 0e23 	LDS  R30,_D
000364 5fef      	SUBI R30,-LOW(1)
000365 940e 1b2b 	CALL SUBOPT_0x18
                 ; 0000 00DF             rtc_set_date(D, Mes, A);
                 ; 0000 00E0         }
                 ; 0000 00E1         if(!PINC.3){
                 _0x34:
000367 9933      	SBIC 0x6,3
000368 c005      	RJMP _0x35
                 ; 0000 00E2             Mes++;
000369 91e0 0e24 	LDS  R30,_Mes
00036b 5fef      	SUBI R30,-LOW(1)
00036c 940e 1b35 	CALL SUBOPT_0x19
                 ; 0000 00E3             rtc_set_date(D, Mes, A);
                 ; 0000 00E4         }
                 ; 0000 00E5         if(!PINC.4){
                 _0x35:
00036e 9934      	SBIC 0x6,4
00036f c005      	RJMP _0x36
                 ; 0000 00E6             A++;
000370 91e0 0e25 	LDS  R30,_A
000372 5fef      	SUBI R30,-LOW(1)
000373 940e 1b41 	CALL SUBOPT_0x1A
                 ; 0000 00E7             rtc_set_date(D, Mes, A);
                 ; 0000 00E8         }
                 ; 0000 00E9         if(!PINC.5){
                 _0x36:
000375 9935      	SBIC 0x6,5
000376 c011      	RJMP _0x37
                 ; 0000 00EA             STM = STM + 5;
000377 91e0 0963 	LDS  R30,_STM
000379 5feb      	SUBI R30,-LOW(5)
00037a 93e0 0963 	STS  _STM,R30
                 ; 0000 00EB             if(STM>60){
00037c 91a0 0963 	LDS  R26,_STM
00037e 33ad      	CPI  R26,LOW(0x3D)
00037f f018      	BRLO _0x38
                 ; 0000 00EC                 STM = 5;
000380 e0e5      	LDI  R30,LOW(5)
000381 93e0 0963 	STS  _STM,R30
                 ; 0000 00ED             }
                 ; 0000 00EE             GS = S+STM;
                 _0x38:
000383 940e 1af7 	CALL SUBOPT_0x13
                 ; 0000 00EF             if(GS>59){
000385 f010      	BRLO _0x39
                 ; 0000 00F0                 GS = GS-59;
000386 940e 1b02 	CALL SUBOPT_0x14
                 ; 0000 00F1             }
                 ; 0000 00F2         }
                 _0x39:
                 ; 0000 00F3         if(S>59){
                 _0x37:
000388 91a0 0e22 	LDS  R26,_S
00038a 33ac      	CPI  R26,LOW(0x3C)
00038b f010      	BRLO _0x3A
                 ; 0000 00F4             S=0;
00038c 940e 1b1e 	CALL SUBOPT_0x17
                 ; 0000 00F5             rtc_set_time(H, M, S);
                 ; 0000 00F6         }
                 ; 0000 00F7         if(M>59){
                 _0x3A:
00038e 91a0 0e21 	LDS  R26,_M
000390 33ac      	CPI  R26,LOW(0x3C)
000391 f018      	BRLO _0x3B
                 ; 0000 00F8             M=0;
000392 e0e0      	LDI  R30,LOW(0)
000393 940e 1b12 	CALL SUBOPT_0x16
                 ; 0000 00F9             rtc_set_time(H, M, S);
                 ; 0000 00FA         }
                 ; 0000 00FB         if(H>23){
                 _0x3B:
000395 91a0 0e20 	LDS  R26,_H
000397 31a8      	CPI  R26,LOW(0x18)
000398 f018      	BRLO _0x3C
                 ; 0000 00FC             H=0;
000399 e0e0      	LDI  R30,LOW(0)
00039a 940e 1b08 	CALL SUBOPT_0x15
                 ; 0000 00FD             rtc_set_time(H, M, S);
                 ; 0000 00FE         }
                 ; 0000 00FF         if(D>31){
                 _0x3C:
00039c 91a0 0e23 	LDS  R26,_D
00039e 32a0      	CPI  R26,LOW(0x20)
00039f f018      	BRLO _0x3D
                 ; 0000 0100             D=0;
0003a0 e0e0      	LDI  R30,LOW(0)
0003a1 940e 1b2b 	CALL SUBOPT_0x18
                 ; 0000 0101             rtc_set_date(D, Mes, A);
                 ; 0000 0102         }
                 ; 0000 0103         if(Mes>12){
                 _0x3D:
0003a3 91a0 0e24 	LDS  R26,_Mes
0003a5 30ad      	CPI  R26,LOW(0xD)
0003a6 f018      	BRLO _0x3E
                 ; 0000 0104             Mes=0;
0003a7 e0e0      	LDI  R30,LOW(0)
0003a8 940e 1b35 	CALL SUBOPT_0x19
                 ; 0000 0105             rtc_set_date(D, Mes, A);
                 ; 0000 0106         }
                 ; 0000 0107         if(A>25){
                 _0x3E:
0003aa 91a0 0e25 	LDS  R26,_A
0003ac 31aa      	CPI  R26,LOW(0x1A)
0003ad f018      	BRLO _0x3F
                 ; 0000 0108             A=00;
0003ae e0e0      	LDI  R30,LOW(0)
0003af 940e 1b41 	CALL SUBOPT_0x1A
                 ; 0000 0109             rtc_set_date(D, Mes, A);
                 ; 0000 010A         }
                 ; 0000 010B 
                 ; 0000 010C         if(S == GS){
                 _0x3F:
0003b1 91e0 0964 	LDS  R30,_GS
0003b3 91a0 0e22 	LDS  R26,_S
0003b5 17ea      	CP   R30,R26
0003b6 f009      	BREQ PC+2
0003b7 c043      	RJMP _0x40
                 ; 0000 010D         //SD here
                 ; 0000 010E             sprintf(date, "[%02i/%02i/%02i %02i:%02i:%02i] New_msg_rcvd", D, Mes, A, H, M, S);
0003b8 e2e3      	LDI  R30,LOW(_date)
0003b9 e0f9      	LDI  R31,HIGH(_date)
0003ba 93fa      	ST   -Y,R31
0003bb 93ea      	ST   -Y,R30
                +
0003bc e5e8     +LDI R30 , LOW ( 2 * _0x0 + ( 90 ) )
0003bd e0f1     +LDI R31 , HIGH ( 2 * _0x0 + ( 90 ) )
                 	__POINTW1FN _0x0,90
0003be 940e 1ad8 	CALL SUBOPT_0x11
0003c0 940e 1aa7 	CALL SUBOPT_0xC
0003c2 e188      	LDI  R24,24
0003c3 940e 19a0 	CALL _sprintf
0003c5 966c      	ADIW R28,28
                 ; 0000 010F             sprintf(text, ": Voltage is [V1:%01i.%02i, V2:%01i.%02i]", v1I, v1D, v2I, v2D);
0003c6 e4e3      	LDI  R30,LOW(_text)
0003c7 e0f9      	LDI  R31,HIGH(_text)
0003c8 93fa      	ST   -Y,R31
0003c9 93ea      	ST   -Y,R30
                +
0003ca e8e5     +LDI R30 , LOW ( 2 * _0x0 + ( 135 ) )
0003cb e0f1     +LDI R31 , HIGH ( 2 * _0x0 + ( 135 ) )
                 	__POINTW1FN _0x0,135
0003cc 93fa      	ST   -Y,R31
0003cd 93ea      	ST   -Y,R30
0003ce 940e 1abd 	CALL SUBOPT_0xD
0003d0 91e0 090f 	LDS  R30,_v1D
0003d2 91f0 0910 	LDS  R31,_v1D+1
0003d4 940e 212b 	CALL __CWD1
0003d6 940e 21d7 	CALL __PUTPARD1
0003d8 940e 1acc 	CALL SUBOPT_0xF
0003da 91e0 0913 	LDS  R30,_v2D
0003dc 91f0 0914 	LDS  R31,_v2D+1
0003de 940e 212b 	CALL __CWD1
0003e0 940e 1af0 	CALL SUBOPT_0x12
                 ; 0000 0110             sd(fileName, &date, 0);
0003e2 e1e5      	LDI  R30,LOW(_fileName)
0003e3 e0f9      	LDI  R31,HIGH(_fileName)
0003e4 93fa      	ST   -Y,R31
0003e5 93ea      	ST   -Y,R30
0003e6 e2e3      	LDI  R30,LOW(_date)
0003e7 e0f9      	LDI  R31,HIGH(_date)
0003e8 93fa      	ST   -Y,R31
0003e9 93ea      	ST   -Y,R30
0003ea e0a0      	LDI  R26,LOW(0)
0003eb de8d      	RCALL _sd
                 ; 0000 0111             sd(fileName, &text, 1);
0003ec e1e5      	LDI  R30,LOW(_fileName)
0003ed e0f9      	LDI  R31,HIGH(_fileName)
0003ee 93fa      	ST   -Y,R31
0003ef 93ea      	ST   -Y,R30
0003f0 e4e3      	LDI  R30,LOW(_text)
0003f1 e0f9      	LDI  R31,HIGH(_text)
0003f2 93fa      	ST   -Y,R31
0003f3 93ea      	ST   -Y,R30
0003f4 e0a1      	LDI  R26,LOW(1)
0003f5 de83      	RCALL _sd
                 ; 0000 0112             GS = S + STM;
0003f6 940e 1af7 	CALL SUBOPT_0x13
                 ; 0000 0113             if(GS>59){
0003f8 f010      	BRLO _0x41
                 ; 0000 0114                 GS = GS-59;
0003f9 940e 1b02 	CALL SUBOPT_0x14
                 ; 0000 0115             }
                 ; 0000 0116         }
                 _0x41:
                 ; 0000 0117     }
                 _0x40:
0003fb cf4f      	RJMP _0x2E
                 ; 0000 0118 }
                 _0x42:
0003fc cfff      	RJMP _0x42
                 ; .FEND
                 
                 	.CSEG
                 _ds1302_rst0_G100:
                 ; .FSTART _ds1302_rst0_G100
0003fd 9858      	cbi  __ds1302_port,__ds1302_rst
                +
0003fe e083     +LDI R24 , LOW ( 3 )
                +__DELAY_USB_LOOP :
0003ff 958a     +DEC R24
000400 f7f1     +BRNE __DELAY_USB_LOOP
                 	__DELAY_USB 3
000401 9508      	RET
                 ; .FEND
                 _ds1302_write0_G100:
                 ; .FSTART _ds1302_write0_G100
000402 93aa      	ST   -Y,R26
000403 9a51          sbi  __ds1302_port-1,__ds1302_sclk
000404 9a52          sbi  __ds1302_port-1,__ds1302_io
000405 9a50          sbi  __ds1302_port-1,__ds1302_rst
000406 9a58          sbi  __ds1302_port,__ds1302_rst
                +
000407 e083     +LDI R24 , LOW ( 3 )
                +__DELAY_USB_LOOP :
000408 958a     +DEC R24
000409 f7f1     +BRNE __DELAY_USB_LOOP
                 	__DELAY_USB 3
00040a 81a8      	LD   R26,Y
00040b d002      	RCALL _ds1302_write1_G100
00040c 940c 06ea 	JMP  _0x20E0019
                 ; .FEND
                 _ds1302_write1_G100:
                 ; .FSTART _ds1302_write1_G100
00040e 93aa      	ST   -Y,R26
00040f 91e9          ld   r30,y+
000410 e0a8          ldi  r26,8
                 ds1302_write2:
000411 95e7          ror  r30
000412 985a          cbi  __ds1302_port,__ds1302_io
000413 f408          brcc ds1302_write3
000414 9a5a          sbi  __ds1302_port,__ds1302_io
                 ds1302_write3:
000415 0000          nop
000416 0000          nop
000417 0000          nop
000418 0000          nop
000419 9a59          sbi  __ds1302_port,__ds1302_sclk
                +
00041a e081     +LDI R24 , LOW ( 1 )
                +__DELAY_USB_LOOP :
00041b 958a     +DEC R24
00041c f7f1     +BRNE __DELAY_USB_LOOP
                 	__DELAY_USB 1
00041d 9859      	cbi  __ds1302_port,__ds1302_sclk
                +
00041e e081     +LDI R24 , LOW ( 1 )
                +__DELAY_USB_LOOP :
00041f 958a     +DEC R24
000420 f7f1     +BRNE __DELAY_USB_LOOP
                 	__DELAY_USB 1
000421 95aa          dec  r26
000422 f771          brne ds1302_write2
000423 9508          ret
                 ; .FEND
                 _ds1302_read:
                 ; .FSTART _ds1302_read
000424 93aa      	ST   -Y,R26
000425 81e8      	LD   R30,Y
000426 60e1      	ORI  R30,1
000427 2fae      	MOV  R26,R30
000428 940e 0402 	CALL _ds1302_write0_G100
00042a 985a          cbi  __ds1302_port,__ds1302_io
00042b 9852          cbi  __ds1302_port-1,__ds1302_io
00042c e0a8          ldi  r26,8
                 ds1302_read0:
00042d 9488          clc
00042e 994a      	sbic __ds1302_port-2,__ds1302_io
00042f 9408          sec
000430 95e7          ror  r30
000431 9a59          sbi  __ds1302_port,__ds1302_sclk
                +
000432 e081     +LDI R24 , LOW ( 1 )
                +__DELAY_USB_LOOP :
000433 958a     +DEC R24
000434 f7f1     +BRNE __DELAY_USB_LOOP
                 	__DELAY_USB 1
000435 9859      	cbi  __ds1302_port,__ds1302_sclk
                +
000436 e081     +LDI R24 , LOW ( 1 )
                +__DELAY_USB_LOOP :
000437 958a     +DEC R24
000438 f7f1     +BRNE __DELAY_USB_LOOP
                 	__DELAY_USB 1
000439 95aa          dec  r26
00043a f791          brne ds1302_read0
00043b 940e 03fd 	CALL _ds1302_rst0_G100
00043d c2ac      	RJMP _0x20E0019
                 ; .FEND
                 _ds1302_write:
                 ; .FSTART _ds1302_write
00043e 93aa      	ST   -Y,R26
00043f 81e9      	LDD  R30,Y+1
000440 7fee      	ANDI R30,0xFE
000441 2fae      	MOV  R26,R30
000442 940e 0402 	CALL _ds1302_write0_G100
000444 81a8      	LD   R26,Y
000445 940e 040e 	CALL _ds1302_write1_G100
000447 940e 03fd 	CALL _ds1302_rst0_G100
                 _0x20E001E:
000449 9622      	ADIW R28,2
00044a 9508      	RET
                 ; .FEND
                 _rtc_init:
                 ; .FSTART _rtc_init
00044b 93aa      	ST   -Y,R26
00044c 81e8      	LD   R30,Y
00044d 70e3      	ANDI R30,LOW(0x3)
00044e 83e8      	ST   Y,R30
00044f 81ea      	LDD  R30,Y+2
000450 30e0      	CPI  R30,0
000451 f019      	BREQ _0x2000003
000452 81e8      	LD   R30,Y
000453 6ae0      	ORI  R30,LOW(0xA0)
000454 83e8      	ST   Y,R30
                 _0x2000003:
000455 81a9      	LDD  R26,Y+1
000456 30a1      	CPI  R26,LOW(0x1)
000457 f419      	BRNE _0x2000004
000458 81e8      	LD   R30,Y
000459 60e4      	ORI  R30,4
00045a c007      	RJMP _0x2000008
                 _0x2000004:
00045b 81a9      	LDD  R26,Y+1
00045c 30a2      	CPI  R26,LOW(0x2)
00045d f419      	BRNE _0x2000006
00045e 81e8      	LD   R30,Y
00045f 60e8      	ORI  R30,8
000460 c001      	RJMP _0x2000008
                 _0x2000006:
000461 e0e0      	LDI  R30,LOW(0)
                 _0x2000008:
000462 83e8      	ST   Y,R30
000463 940e 1b4d 	CALL SUBOPT_0x1B
000465 e9e0      	LDI  R30,LOW(144)
000466 93ea      	ST   -Y,R30
000467 81a9      	LDD  R26,Y+1
000468 c042      	RJMP _0x20E001B
                 ; .FEND
                 _rtc_get_time:
                 ; .FSTART _rtc_get_time
000469 93ba      	ST   -Y,R27
00046a 93aa      	ST   -Y,R26
00046b e8a5      	LDI  R26,LOW(133)
00046c 940e 1b52 	CALL SUBOPT_0x1C
00046e 81ac      	LDD  R26,Y+4
00046f 81bd      	LDD  R27,Y+4+1
000470 93ec      	ST   X,R30
000471 e8a3      	LDI  R26,LOW(131)
000472 940e 1b52 	CALL SUBOPT_0x1C
000474 81aa      	LDD  R26,Y+2
000475 81bb      	LDD  R27,Y+2+1
000476 93ec      	ST   X,R30
000477 e8a1      	LDI  R26,LOW(129)
000478 c01a      	RJMP _0x20E001D
                 ; .FEND
                 _rtc_set_time:
                 ; .FSTART _rtc_set_time
000479 93aa      	ST   -Y,R26
00047a 940e 1b4d 	CALL SUBOPT_0x1B
00047c e8e4      	LDI  R30,LOW(132)
00047d 940e 1b57 	CALL SUBOPT_0x1D
00047f e8e2      	LDI  R30,LOW(130)
000480 940e 1b5e 	CALL SUBOPT_0x1E
000482 e8e0      	LDI  R30,LOW(128)
000483 c022      	RJMP _0x20E001A
                 ; .FEND
                 _rtc_get_date:
                 ; .FSTART _rtc_get_date
000484 93ba      	ST   -Y,R27
000485 93aa      	ST   -Y,R26
000486 e8a7      	LDI  R26,LOW(135)
000487 940e 1b52 	CALL SUBOPT_0x1C
000489 81ac      	LDD  R26,Y+4
00048a 81bd      	LDD  R27,Y+4+1
00048b 93ec      	ST   X,R30
00048c e8a9      	LDI  R26,LOW(137)
00048d 940e 1b52 	CALL SUBOPT_0x1C
00048f 81aa      	LDD  R26,Y+2
000490 81bb      	LDD  R27,Y+2+1
000491 93ec      	ST   X,R30
000492 e8ad      	LDI  R26,LOW(141)
                 _0x20E001D:
000493 df90      	RCALL _ds1302_read
000494 2fae      	MOV  R26,R30
000495 940e 19da 	CALL _bcd2bin
000497 81a8      	LD   R26,Y
000498 81b9      	LDD  R27,Y+1
000499 93ec      	ST   X,R30
00049a 9626      	ADIW R28,6
00049b 9508      	RET
                 ; .FEND
                 _rtc_set_date:
                 ; .FSTART _rtc_set_date
00049c 93aa      	ST   -Y,R26
00049d 940e 1b4d 	CALL SUBOPT_0x1B
00049f e8e6      	LDI  R30,LOW(134)
0004a0 940e 1b57 	CALL SUBOPT_0x1D
0004a2 e8e8      	LDI  R30,LOW(136)
0004a3 940e 1b5e 	CALL SUBOPT_0x1E
0004a5 e8ec      	LDI  R30,LOW(140)
                 _0x20E001A:
0004a6 93ea      	ST   -Y,R30
0004a7 81a9      	LDD  R26,Y+1
0004a8 940e 19e7 	CALL _bin2bcd
0004aa 2fae      	MOV  R26,R30
                 _0x20E001B:
0004ab df92      	RCALL _ds1302_write
0004ac e8ee      	LDI  R30,LOW(142)
0004ad 93ea      	ST   -Y,R30
0004ae e8a0      	LDI  R26,LOW(128)
0004af df8e      	RCALL _ds1302_write
                 _0x20E001C:
0004b0 9623      	ADIW R28,3
0004b1 9508      	RET
                 ; .FEND
                 	#ifndef __SLEEP_DEFINED__
                 	#endif
                 
                 	.DSEG
                 
                 	.CSEG
                 _crc7_G101:
                 ; .FSTART _crc7_G101
0004b2 93aa      	ST   -Y,R26
0004b3 940e 2204 	CALL __SAVELOCR4
0004b5 e030      	LDI  R19,LOW(0)
0004b6 811c      	LDD  R17,Y+4
                 _0x2020005:
0004b7 81ad      	LDD  R26,Y+5
0004b8 81be      	LDD  R27,Y+5+1
0004b9 912d      	LD   R18,X+
0004ba 83ad      	STD  Y+5,R26
0004bb 83be      	STD  Y+5+1,R27
0004bc e008      	LDI  R16,LOW(8)
                 _0x2020008:
0004bd 0f33      	LSL  R19
0004be 2fe3      	MOV  R30,R19
0004bf 27e2      	EOR  R30,R18
0004c0 78e0      	ANDI R30,LOW(0x80)
0004c1 f011      	BREQ _0x202000A
0004c2 e0e9      	LDI  R30,LOW(9)
0004c3 273e      	EOR  R19,R30
                 _0x202000A:
0004c4 0f22      	LSL  R18
0004c5 5001      	SUBI R16,LOW(1)
0004c6 f7b1      	BRNE _0x2020008
0004c7 5011      	SUBI R17,LOW(1)
0004c8 f771      	BRNE _0x2020005
0004c9 2fe3      	MOV  R30,R19
0004ca 0fee      	LSL  R30
0004cb 60e1      	ORI  R30,1
0004cc 940e 220b 	CALL __LOADLOCR4
0004ce c542      	RJMP _0x20E0015
                 ; .FEND
                 _wait_ready_G101:
                 ; .FSTART _wait_ready_G101
0004cf 930a      	ST   -Y,R16
0004d0 e3e2      	LDI  R30,LOW(50)
0004d1 93e0 0e38 	STS  _timer2_G101,R30
0004d3 efef      	LDI  R30,LOW(255)
0004d4 bdee      	OUT  0x2E,R30
                 _0x202000B:
0004d5 b5ed      	IN   R30,0x2D
0004d6 ffe7      	SBRS R30,7
0004d7 cffd      	RJMP _0x202000B
                 _0x202000F:
0004d8 efef      	LDI  R30,LOW(255)
0004d9 bdee      	OUT  0x2E,R30
                 _0x2020011:
0004da b5ed      	IN   R30,0x2D
0004db ffe7      	SBRS R30,7
0004dc cffd      	RJMP _0x2020011
0004dd b50e      	IN   R16,46
0004de 3f0f      	CPI  R16,255
0004df f021      	BREQ _0x2020014
0004e0 91e0 0e38 	LDS  R30,_timer2_G101
0004e2 30e0      	CPI  R30,0
0004e3 f409      	BRNE _0x2020015
                 _0x2020014:
0004e4 c001      	RJMP _0x2020010
                 _0x2020015:
0004e5 cff2      	RJMP _0x202000F
                 _0x2020010:
0004e6 2fe0      	MOV  R30,R16
0004e7 c4a8      	RJMP _0x20E0016
                 ; .FEND
                 _deselect_card_G101:
                 ; .FSTART _deselect_card_G101
0004e8 9a28      	SBI  0x5,0
0004e9 efef      	LDI  R30,LOW(255)
0004ea bdee      	OUT  0x2E,R30
                 _0x2020016:
0004eb b5ed      	IN   R30,0x2D
0004ec ffe7      	SBRS R30,7
0004ed cffd      	RJMP _0x2020016
0004ee 9508      	RET
                 ; .FEND
                 _rx_datablock_G101:
                 ; .FSTART _rx_datablock_G101
0004ef 93ba      	ST   -Y,R27
0004f0 93aa      	ST   -Y,R26
0004f1 940e 2205 	CALL __SAVELOCR3
0004f3 e1e4      	LDI  R30,LOW(20)
0004f4 93e0 0e37 	STS  _timer1_G101,R30
                 _0x202001A:
0004f6 efef      	LDI  R30,LOW(255)
0004f7 bdee      	OUT  0x2E,R30
                 _0x202001C:
0004f8 b5ed      	IN   R30,0x2D
0004f9 ffe7      	SBRS R30,7
0004fa cffd      	RJMP _0x202001C
0004fb b50e      	IN   R16,46
0004fc 3f0f      	CPI  R16,255
0004fd f421      	BRNE _0x202001F
0004fe 91e0 0e37 	LDS  R30,_timer1_G101
000500 30e0      	CPI  R30,0
000501 f409      	BRNE _0x2020020
                 _0x202001F:
000502 c001      	RJMP _0x202001B
                 _0x2020020:
000503 cff2      	RJMP _0x202001A
                 _0x202001B:
000504 3f0e      	CPI  R16,254
000505 f021      	BREQ _0x2020021
000506 e0e0      	LDI  R30,LOW(0)
000507 940e 220c 	CALL __LOADLOCR3
000509 c507      	RJMP _0x20E0015
                 _0x2020021:
                +
00050a 811d     +LDD R17 , Y + 5
00050b 812e     +LDD R18 , Y + 5 + 1
                 	__GETWRS 17,18,5
                 _0x2020023:
00050c efef      	LDI  R30,LOW(255)
00050d bdee      	OUT  0x2E,R30
                 _0x2020025:
00050e b5ed      	IN   R30,0x2D
00050f ffe7      	SBRS R30,7
000510 cffd      	RJMP _0x2020025
000511 932f      	PUSH R18
000512 931f      	PUSH R17
                +
000513 5f1f     +SUBI R17 , LOW ( - 1 )
000514 4f2f     +SBCI R18 , HIGH ( - 1 )
                 	__ADDWRN 17,18,1
000515 b5ee      	IN   R30,0x2E
000516 91af      	POP  R26
000517 91bf      	POP  R27
000518 93ec      	ST   X,R30
000519 efef      	LDI  R30,LOW(255)
00051a bdee      	OUT  0x2E,R30
                 _0x2020028:
00051b b5ed      	IN   R30,0x2D
00051c ffe7      	SBRS R30,7
00051d cffd      	RJMP _0x2020028
00051e 932f      	PUSH R18
00051f 931f      	PUSH R17
                +
000520 5f1f     +SUBI R17 , LOW ( - 1 )
000521 4f2f     +SBCI R18 , HIGH ( - 1 )
                 	__ADDWRN 17,18,1
000522 b5ee      	IN   R30,0x2E
000523 91af      	POP  R26
000524 91bf      	POP  R27
000525 93ec      	ST   X,R30
000526 efef      	LDI  R30,LOW(255)
000527 bdee      	OUT  0x2E,R30
                 _0x202002B:
000528 b5ed      	IN   R30,0x2D
000529 ffe7      	SBRS R30,7
00052a cffd      	RJMP _0x202002B
00052b 932f      	PUSH R18
00052c 931f      	PUSH R17
                +
00052d 5f1f     +SUBI R17 , LOW ( - 1 )
00052e 4f2f     +SBCI R18 , HIGH ( - 1 )
                 	__ADDWRN 17,18,1
00052f b5ee      	IN   R30,0x2E
000530 91af      	POP  R26
000531 91bf      	POP  R27
000532 93ec      	ST   X,R30
000533 efef      	LDI  R30,LOW(255)
000534 bdee      	OUT  0x2E,R30
                 _0x202002E:
000535 b5ed      	IN   R30,0x2D
000536 ffe7      	SBRS R30,7
000537 cffd      	RJMP _0x202002E
000538 932f      	PUSH R18
000539 931f      	PUSH R17
                +
00053a 5f1f     +SUBI R17 , LOW ( - 1 )
00053b 4f2f     +SBCI R18 , HIGH ( - 1 )
                 	__ADDWRN 17,18,1
00053c b5ee      	IN   R30,0x2E
00053d 91af      	POP  R26
00053e 91bf      	POP  R27
00053f 93ec      	ST   X,R30
000540 81eb      	LDD  R30,Y+3
000541 81fc      	LDD  R31,Y+3+1
000542 9734      	SBIW R30,4
000543 83eb      	STD  Y+3,R30
000544 83fc      	STD  Y+3+1,R31
000545 f631      	BRNE _0x2020023
000546 efef      	LDI  R30,LOW(255)
000547 bdee      	OUT  0x2E,R30
                 _0x2020031:
000548 b5ed      	IN   R30,0x2D
000549 ffe7      	SBRS R30,7
00054a cffd      	RJMP _0x2020031
00054b efef      	LDI  R30,LOW(255)
00054c bdee      	OUT  0x2E,R30
                 _0x2020034:
00054d b5ed      	IN   R30,0x2D
00054e ffe7      	SBRS R30,7
00054f cffd      	RJMP _0x2020034
000550 e0e1      	LDI  R30,LOW(1)
000551 940e 220c 	CALL __LOADLOCR3
000553 c4bd      	RJMP _0x20E0015
                 ; .FEND
                 _tx_datablock_G101:
                 ; .FSTART _tx_datablock_G101
000554 93aa      	ST   -Y,R26
000555 940e 2204 	CALL __SAVELOCR4
000557 df77      	RCALL _wait_ready_G101
000558 3fef      	CPI  R30,LOW(0xFF)
000559 f021      	BREQ _0x2020037
00055a e0e0      	LDI  R30,LOW(0)
00055b 940e 220b 	CALL __LOADLOCR4
00055d c4b3      	RJMP _0x20E0015
                 _0x2020037:
00055e 81ec      	LDD  R30,Y+4
00055f bdee      	OUT  0x2E,R30
                 _0x2020038:
000560 b5ed      	IN   R30,0x2D
000561 ffe7      	SBRS R30,7
000562 cffd      	RJMP _0x2020038
000563 81ac      	LDD  R26,Y+4
000564 3fad      	CPI  R26,LOW(0xFD)
000565 f169      	BREQ _0x202003B
000566 e010      	LDI  R17,LOW(0)
                +
000567 812d     +LDD R18 , Y + 5
000568 813e     +LDD R19 , Y + 5 + 1
                 	__GETWRS 18,19,5
                 _0x202003D:
000569 01d9      	MOVW R26,R18
                +
00056a 5f2f     +SUBI R18 , LOW ( - 1 )
00056b 4f3f     +SBCI R19 , HIGH ( - 1 )
                 	__ADDWRN 18,19,1
00056c 91ec      	LD   R30,X
00056d bdee      	OUT  0x2E,R30
                 _0x202003F:
00056e b5ed      	IN   R30,0x2D
00056f ffe7      	SBRS R30,7
000570 cffd      	RJMP _0x202003F
000571 01d9      	MOVW R26,R18
                +
000572 5f2f     +SUBI R18 , LOW ( - 1 )
000573 4f3f     +SBCI R19 , HIGH ( - 1 )
                 	__ADDWRN 18,19,1
000574 91ec      	LD   R30,X
000575 bdee      	OUT  0x2E,R30
                 _0x2020042:
000576 b5ed      	IN   R30,0x2D
000577 ffe7      	SBRS R30,7
000578 cffd      	RJMP _0x2020042
000579 5011      	SUBI R17,LOW(1)
00057a f771      	BRNE _0x202003D
00057b efef      	LDI  R30,LOW(255)
00057c bdee      	OUT  0x2E,R30
                 _0x2020045:
00057d b5ed      	IN   R30,0x2D
00057e ffe7      	SBRS R30,7
00057f cffd      	RJMP _0x2020045
000580 efef      	LDI  R30,LOW(255)
000581 bdee      	OUT  0x2E,R30
                 _0x2020048:
000582 b5ed      	IN   R30,0x2D
000583 ffe7      	SBRS R30,7
000584 cffd      	RJMP _0x2020048
000585 efef      	LDI  R30,LOW(255)
000586 bdee      	OUT  0x2E,R30
                 _0x202004B:
000587 b5ed      	IN   R30,0x2D
000588 ffe7      	SBRS R30,7
000589 cffd      	RJMP _0x202004B
00058a b50e      	IN   R16,46
00058b 2fe0      	MOV  R30,R16
00058c 71ef      	ANDI R30,LOW(0x1F)
00058d 30e5      	CPI  R30,LOW(0x5)
00058e f021      	BREQ _0x202004E
00058f e0e0      	LDI  R30,LOW(0)
000590 940e 220b 	CALL __LOADLOCR4
000592 c47e      	RJMP _0x20E0015
                 _0x202004E:
                 _0x202003B:
000593 e0e1      	LDI  R30,LOW(1)
000594 940e 220b 	CALL __LOADLOCR4
000596 c47a      	RJMP _0x20E0015
                 ; .FEND
                 _send_cmd_G101:
                 ; .FSTART _send_cmd_G101
000597 940e 21dc 	CALL __PUTPARD2
000599 931a      	ST   -Y,R17
00059a 930a      	ST   -Y,R16
00059b 81ee      	LDD  R30,Y+6
00059c 78e0      	ANDI R30,LOW(0x80)
00059d f081      	BREQ _0x202004F
00059e 81ee      	LDD  R30,Y+6
00059f 77ef      	ANDI R30,0x7F
0005a0 83ee      	STD  Y+6,R30
0005a1 e7e7      	LDI  R30,LOW(119)
0005a2 93ea      	ST   -Y,R30
                +
0005a3 e0a0     +LDI R26 , LOW ( 0x0 )
0005a4 e0b0     +LDI R27 , HIGH ( 0x0 )
0005a5 e080     +LDI R24 , BYTE3 ( 0x0 )
0005a6 e090     +LDI R25 , BYTE4 ( 0x0 )
                 	__GETD2N 0x0
0005a7 dfef      	RCALL _send_cmd_G101
0005a8 2f1e      	MOV  R17,R30
0005a9 3012      	CPI  R17,2
0005aa f018      	BRLO _0x2020050
0005ab 8119      	LDD  R17,Y+1
0005ac 8108      	LDD  R16,Y+0
0005ad c463      	RJMP _0x20E0015
                 _0x2020050:
                 _0x202004F:
0005ae 81ae      	LDD  R26,Y+6
0005af 34ac      	CPI  R26,LOW(0x4C)
0005b0 f049      	BREQ _0x2020051
0005b1 df36      	RCALL _deselect_card_G101
0005b2 9828      	CBI  0x5,0
0005b3 df1b      	RCALL _wait_ready_G101
0005b4 3fef      	CPI  R30,LOW(0xFF)
0005b5 f021      	BREQ _0x2020052
0005b6 efef      	LDI  R30,LOW(255)
0005b7 8119      	LDD  R17,Y+1
0005b8 8108      	LDD  R16,Y+0
0005b9 c457      	RJMP _0x20E0015
                 _0x2020052:
                 _0x2020051:
0005ba 81ee      	LDD  R30,Y+6
0005bb bdee      	OUT  0x2E,R30
                 _0x2020053:
0005bc b5ed      	IN   R30,0x2D
0005bd ffe7      	SBRS R30,7
0005be cffd      	RJMP _0x2020053
0005bf 81ed      	LDD  R30,Y+5
0005c0 bdee      	OUT  0x2E,R30
                 _0x2020056:
0005c1 b5ed      	IN   R30,0x2D
0005c2 ffe7      	SBRS R30,7
0005c3 cffd      	RJMP _0x2020056
0005c4 81ec      	LDD  R30,Y+4
0005c5 bdee      	OUT  0x2E,R30
                 _0x2020059:
0005c6 b5ed      	IN   R30,0x2D
0005c7 ffe7      	SBRS R30,7
0005c8 cffd      	RJMP _0x2020059
0005c9 81eb      	LDD  R30,Y+3
0005ca bdee      	OUT  0x2E,R30
                 _0x202005C:
0005cb b5ed      	IN   R30,0x2D
0005cc ffe7      	SBRS R30,7
0005cd cffd      	RJMP _0x202005C
0005ce 81ea      	LDD  R30,Y+2
0005cf bdee      	OUT  0x2E,R30
                 _0x202005F:
0005d0 b5ed      	IN   R30,0x2D
0005d1 ffe7      	SBRS R30,7
0005d2 cffd      	RJMP _0x202005F
0005d3 e001      	LDI  R16,LOW(1)
0005d4 81ae      	LDD  R26,Y+6
0005d5 34a0      	CPI  R26,LOW(0x40)
0005d6 f411      	BRNE _0x2020062
0005d7 e905      	LDI  R16,LOW(149)
0005d8 c004      	RJMP _0x2020063
                 _0x2020062:
0005d9 81ae      	LDD  R26,Y+6
0005da 34a8      	CPI  R26,LOW(0x48)
0005db f409      	BRNE _0x2020064
0005dc e807      	LDI  R16,LOW(135)
                 _0x2020064:
                 _0x2020063:
0005dd bd0e      	OUT  0x2E,R16
                 _0x2020065:
0005de b5ed      	IN   R30,0x2D
0005df ffe7      	SBRS R30,7
0005e0 cffd      	RJMP _0x2020065
0005e1 81ae      	LDD  R26,Y+6
0005e2 34ac      	CPI  R26,LOW(0x4C)
0005e3 f429      	BRNE _0x2020068
0005e4 efef      	LDI  R30,LOW(255)
0005e5 bdee      	OUT  0x2E,R30
                 _0x2020069:
0005e6 b5ed      	IN   R30,0x2D
0005e7 ffe7      	SBRS R30,7
0005e8 cffd      	RJMP _0x2020069
                 _0x2020068:
0005e9 ef0f      	LDI  R16,LOW(255)
                 _0x202006D:
0005ea efef      	LDI  R30,LOW(255)
0005eb bdee      	OUT  0x2E,R30
                 _0x202006F:
0005ec b5ed      	IN   R30,0x2D
0005ed ffe7      	SBRS R30,7
0005ee cffd      	RJMP _0x202006F
0005ef b51e      	IN   R17,46
0005f0 ff17      	SBRS R17,7
0005f1 c002      	RJMP _0x2020072
0005f2 5001      	SUBI R16,LOW(1)
0005f3 f409      	BRNE _0x2020073
                 _0x2020072:
0005f4 c001      	RJMP _0x202006E
                 _0x2020073:
0005f5 cff4      	RJMP _0x202006D
                 _0x202006E:
0005f6 2fe1      	MOV  R30,R17
0005f7 8119      	LDD  R17,Y+1
0005f8 8108      	LDD  R16,Y+0
0005f9 c417      	RJMP _0x20E0015
                 ; .FEND
                 _rx_spi4_G101:
                 ; .FSTART _rx_spi4_G101
0005fa 93ba      	ST   -Y,R27
0005fb 93aa      	ST   -Y,R26
0005fc 930a      	ST   -Y,R16
0005fd e004      	LDI  R16,4
                 _0x2020075:
0005fe efef      	LDI  R30,LOW(255)
0005ff bdee      	OUT  0x2E,R30
                 _0x2020077:
000600 b5ed      	IN   R30,0x2D
000601 ffe7      	SBRS R30,7
000602 cffd      	RJMP _0x2020077
000603 81a9      	LDD  R26,Y+1
000604 81ba      	LDD  R27,Y+1+1
000605 9611      	ADIW R26,1
000606 83a9      	STD  Y+1,R26
000607 83ba      	STD  Y+1+1,R27
000608 9711      	SBIW R26,1
000609 b5ee      	IN   R30,0x2E
00060a 93ec      	ST   X,R30
00060b 5001      	SUBI R16,LOW(1)
00060c f789      	BRNE _0x2020075
00060d c4e6      	RJMP _0x20E0014
                 ; .FEND
                 _disk_initialize:
                 ; .FSTART _disk_initialize
00060e 93aa      	ST   -Y,R26
00060f 9724      	SBIW R28,4
000610 940e 2205 	CALL __SAVELOCR3
000612 81ef      	LDD  R30,Y+7
000613 30e0      	CPI  R30,0
000614 f021      	BREQ _0x202007A
000615 e0e1      	LDI  R30,LOW(1)
000616 940e 220c 	CALL __LOADLOCR3
000618 c1ac      	RJMP _0x20E0018
                 _0x202007A:
000619 9824      	CBI  0x4,4
00061a 9825      	CBI  0x4,5
00061b e0ea      	LDI  R30,LOW(10)
00061c 93e0 0e37 	STS  _timer1_G101,R30
                 _0x202007B:
00061e 91e0 0e37 	LDS  R30,_timer1_G101
000620 30e0      	CPI  R30,0
000621 f7e1      	BRNE _0x202007B
000622 91e0 0e36 	LDS  R30,_status_G101
000624 70e2      	ANDI R30,LOW(0x2)
000625 f029      	BREQ _0x202007E
000626 91e0 0e36 	LDS  R30,_status_G101
000628 940e 220c 	CALL __LOADLOCR3
00062a c19a      	RJMP _0x20E0018
                 _0x202007E:
00062b 9a20      	SBI  0x4,0
00062c 9a28      	SBI  0x5,0
00062d b1e5      	IN   R30,0x5
00062e 7fe9      	ANDI R30,LOW(0xF9)
00062f b9e5      	OUT  0x5,R30
000630 9a2b      	SBI  0x5,3
000631 9823      	CBI  0x4,3
000632 b1e4      	IN   R30,0x4
000633 60e7      	ORI  R30,LOW(0x7)
000634 b9e4      	OUT  0x4,R30
000635 e5e1      	LDI  R30,LOW(81)
000636 bdec      	OUT  0x2C,R30
000637 e0e0      	LDI  R30,LOW(0)
000638 bded      	OUT  0x2D,R30
000639 ef2f      	LDI  R18,LOW(255)
                 _0x2020080:
00063a e00a      	LDI  R16,LOW(10)
                 _0x2020083:
00063b efef      	LDI  R30,LOW(255)
00063c bdee      	OUT  0x2E,R30
                 _0x2020085:
00063d b5ed      	IN   R30,0x2D
00063e ffe7      	SBRS R30,7
00063f cffd      	RJMP _0x2020085
000640 5001      	SUBI R16,LOW(1)
000641 f7c9      	BRNE _0x2020083
000642 e4e0      	LDI  R30,LOW(64)
000643 93ea      	ST   -Y,R30
                +
000644 e0a0     +LDI R26 , LOW ( 0x0 )
000645 e0b0     +LDI R27 , HIGH ( 0x0 )
000646 e080     +LDI R24 , BYTE3 ( 0x0 )
000647 e090     +LDI R25 , BYTE4 ( 0x0 )
                 	__GETD2N 0x0
000648 df4e      	RCALL _send_cmd_G101
000649 2f1e      	MOV  R17,R30
00064a 5021      	SUBI R18,LOW(1)
00064b 3011      	CPI  R17,1
00064c f011      	BREQ _0x2020088
00064d 3020      	CPI  R18,0
00064e f409      	BRNE _0x2020089
                 _0x2020088:
00064f c001      	RJMP _0x2020081
                 _0x2020089:
000650 cfe9      	RJMP _0x2020080
                 _0x2020081:
000651 e020      	LDI  R18,LOW(0)
000652 3011      	CPI  R17,1
000653 f009      	BREQ PC+2
000654 c068      	RJMP _0x202008A
000655 e6e4      	LDI  R30,LOW(100)
000656 93e0 0e37 	STS  _timer1_G101,R30
000658 e4e8      	LDI  R30,LOW(72)
000659 93ea      	ST   -Y,R30
                +
00065a eaaa     +LDI R26 , LOW ( 0x1AA )
00065b e0b1     +LDI R27 , HIGH ( 0x1AA )
00065c e080     +LDI R24 , BYTE3 ( 0x1AA )
00065d e090     +LDI R25 , BYTE4 ( 0x1AA )
                 	__GETD2N 0x1AA
00065e df38      	RCALL _send_cmd_G101
00065f 30e1      	CPI  R30,LOW(0x1)
000660 f591      	BRNE _0x202008B
000661 01de      	MOVW R26,R28
000662 9613      	ADIW R26,3
000663 df96      	RCALL _rx_spi4_G101
000664 81ad      	LDD  R26,Y+5
000665 30a1      	CPI  R26,LOW(0x1)
000666 f419      	BRNE _0x202008D
000667 81ae      	LDD  R26,Y+6
000668 3aaa      	CPI  R26,LOW(0xAA)
000669 f009      	BREQ _0x202008E
                 _0x202008D:
00066a c027      	RJMP _0x202008C
                 _0x202008E:
                 _0x202008F:
00066b 91e0 0e37 	LDS  R30,_timer1_G101
00066d 30e0      	CPI  R30,0
00066e f049      	BREQ _0x2020092
00066f eee9      	LDI  R30,LOW(233)
000670 93ea      	ST   -Y,R30
                +
000671 e0a0     +LDI R26 , LOW ( 0x40000000 )
000672 e0b0     +LDI R27 , HIGH ( 0x40000000 )
000673 e080     +LDI R24 , BYTE3 ( 0x40000000 )
000674 e490     +LDI R25 , BYTE4 ( 0x40000000 )
                 	__GETD2N 0x40000000
000675 df21      	RCALL _send_cmd_G101
000676 30e0      	CPI  R30,0
000677 f409      	BRNE _0x2020093
                 _0x2020092:
000678 c001      	RJMP _0x2020091
                 _0x2020093:
000679 cff1      	RJMP _0x202008F
                 _0x2020091:
00067a 91e0 0e37 	LDS  R30,_timer1_G101
00067c 30e0      	CPI  R30,0
00067d f049      	BREQ _0x2020095
00067e e7ea      	LDI  R30,LOW(122)
00067f 93ea      	ST   -Y,R30
                +
000680 e0a0     +LDI R26 , LOW ( 0x0 )
000681 e0b0     +LDI R27 , HIGH ( 0x0 )
000682 e080     +LDI R24 , BYTE3 ( 0x0 )
000683 e090     +LDI R25 , BYTE4 ( 0x0 )
                 	__GETD2N 0x0
000684 df12      	RCALL _send_cmd_G101
000685 30e0      	CPI  R30,0
000686 f009      	BREQ _0x2020096
                 _0x2020095:
000687 c00a      	RJMP _0x2020094
                 _0x2020096:
000688 01de      	MOVW R26,R28
000689 9613      	ADIW R26,3
00068a df6f      	RCALL _rx_spi4_G101
00068b 81eb      	LDD  R30,Y+3
00068c 74e0      	ANDI R30,LOW(0x40)
00068d f011      	BREQ _0x2020097
00068e e0ec      	LDI  R30,LOW(12)
00068f c001      	RJMP _0x2020098
                 _0x2020097:
000690 e0e4      	LDI  R30,LOW(4)
                 _0x2020098:
000691 2f2e      	MOV  R18,R30
                 _0x2020094:
                 _0x202008C:
000692 c02a      	RJMP _0x202009A
                 _0x202008B:
000693 eee9      	LDI  R30,LOW(233)
000694 93ea      	ST   -Y,R30
                +
000695 e0a0     +LDI R26 , LOW ( 0x0 )
000696 e0b0     +LDI R27 , HIGH ( 0x0 )
000697 e080     +LDI R24 , BYTE3 ( 0x0 )
000698 e090     +LDI R25 , BYTE4 ( 0x0 )
                 	__GETD2N 0x0
000699 defd      	RCALL _send_cmd_G101
00069a 30e2      	CPI  R30,LOW(0x2)
00069b f418      	BRSH _0x202009B
00069c e022      	LDI  R18,LOW(2)
00069d ee19      	LDI  R17,LOW(233)
00069e c002      	RJMP _0x202009C
                 _0x202009B:
00069f e021      	LDI  R18,LOW(1)
0006a0 e411      	LDI  R17,LOW(65)
                 _0x202009C:
                 _0x202009D:
0006a1 91e0 0e37 	LDS  R30,_timer1_G101
0006a3 30e0      	CPI  R30,0
0006a4 f041      	BREQ _0x20200A0
0006a5 931a      	ST   -Y,R17
                +
0006a6 e0a0     +LDI R26 , LOW ( 0x0 )
0006a7 e0b0     +LDI R27 , HIGH ( 0x0 )
0006a8 e080     +LDI R24 , BYTE3 ( 0x0 )
0006a9 e090     +LDI R25 , BYTE4 ( 0x0 )
                 	__GETD2N 0x0
0006aa deec      	RCALL _send_cmd_G101
0006ab 30e0      	CPI  R30,0
0006ac f409      	BRNE _0x20200A1
                 _0x20200A0:
0006ad c001      	RJMP _0x202009F
                 _0x20200A1:
0006ae cff2      	RJMP _0x202009D
                 _0x202009F:
0006af 91e0 0e37 	LDS  R30,_timer1_G101
0006b1 30e0      	CPI  R30,0
0006b2 f049      	BREQ _0x20200A3
0006b3 e5e0      	LDI  R30,LOW(80)
0006b4 93ea      	ST   -Y,R30
                +
0006b5 e0a0     +LDI R26 , LOW ( 0x200 )
0006b6 e0b2     +LDI R27 , HIGH ( 0x200 )
0006b7 e080     +LDI R24 , BYTE3 ( 0x200 )
0006b8 e090     +LDI R25 , BYTE4 ( 0x200 )
                 	__GETD2N 0x200
0006b9 dedd      	RCALL _send_cmd_G101
0006ba 30e0      	CPI  R30,0
0006bb f009      	BREQ _0x20200A2
                 _0x20200A3:
0006bc e020      	LDI  R18,LOW(0)
                 _0x20200A2:
                 _0x202009A:
                 _0x202008A:
0006bd 9320 0e39 	STS  _card_type_G101,R18
0006bf de28      	RCALL _deselect_card_G101
0006c0 3020      	CPI  R18,0
0006c1 f051      	BREQ _0x20200A5
0006c2 91e0 0e36 	LDS  R30,_status_G101
0006c4 7fee      	ANDI R30,0xFE
0006c5 93e0 0e36 	STS  _status_G101,R30
0006c7 e5e0      	LDI  R30,LOW(80)
0006c8 bdec      	OUT  0x2C,R30
0006c9 e0e1      	LDI  R30,LOW(1)
0006ca bded      	OUT  0x2D,R30
0006cb c011      	RJMP _0x20200A6
                 _0x20200A5:
0006cc 9828      	CBI  0x5,0
0006cd de01      	RCALL _wait_ready_G101
0006ce de19      	RCALL _deselect_card_G101
0006cf e0e0      	LDI  R30,LOW(0)
0006d0 bdec      	OUT  0x2C,R30
0006d1 b1e4      	IN   R30,0x4
0006d2 7fe0      	ANDI R30,LOW(0xF0)
0006d3 b9e4      	OUT  0x4,R30
0006d4 b1e5      	IN   R30,0x5
0006d5 7fe0      	ANDI R30,LOW(0xF0)
0006d6 b9e5      	OUT  0x5,R30
0006d7 9820      	CBI  0x4,0
0006d8 91e0 0e36 	LDS  R30,_status_G101
0006da 60e1      	ORI  R30,1
0006db 93e0 0e36 	STS  _status_G101,R30
                 _0x20200A6:
0006dd 91e0 0e36 	LDS  R30,_status_G101
0006df 940e 220c 	CALL __LOADLOCR3
0006e1 c0e3      	RJMP _0x20E0018
                 ; .FEND
                 _disk_status:
                 ; .FSTART _disk_status
0006e2 93aa      	ST   -Y,R26
0006e3 81e8      	LD   R30,Y
0006e4 30e0      	CPI  R30,0
0006e5 f011      	BREQ _0x20200A7
0006e6 e0e1      	LDI  R30,LOW(1)
0006e7 c002      	RJMP _0x20E0019
                 _0x20200A7:
0006e8 91e0 0e36 	LDS  R30,_status_G101
                 _0x20E0019:
0006ea 9621      	ADIW R28,1
0006eb 9508      	RET
                 ; .FEND
                 _disk_read:
                 ; .FSTART _disk_read
0006ec 93aa      	ST   -Y,R26
0006ed 81ef      	LDD  R30,Y+7
0006ee 30e0      	CPI  R30,0
0006ef f419      	BRNE _0x20200A9
0006f0 81e8      	LD   R30,Y
0006f1 30e0      	CPI  R30,0
0006f2 f411      	BRNE _0x20200A8
                 _0x20200A9:
0006f3 e0e4      	LDI  R30,LOW(4)
0006f4 c0d0      	RJMP _0x20E0018
                 _0x20200A8:
0006f5 91e0 0e36 	LDS  R30,_status_G101
0006f7 70e1      	ANDI R30,LOW(0x1)
0006f8 f011      	BREQ _0x20200AB
0006f9 e0e3      	LDI  R30,LOW(3)
0006fa c0ca      	RJMP _0x20E0018
                 _0x20200AB:
0006fb 91e0 0e39 	LDS  R30,_card_type_G101
0006fd 70e8      	ANDI R30,LOW(0x8)
0006fe f471      	BRNE _0x20200AC
                +
0006ff 81e9     +LDD R30 , Y + 1
000700 81fa     +LDD R31 , Y + 1 + 1
000701 816b     +LDD R22 , Y + 1 + 2
000702 817c     +LDD R23 , Y + 1 + 3
                 	__GETD1S 1
                +
000703 e0a0     +LDI R26 , LOW ( 0x200 )
000704 e0b2     +LDI R27 , HIGH ( 0x200 )
000705 e080     +LDI R24 , BYTE3 ( 0x200 )
000706 e090     +LDI R25 , BYTE4 ( 0x200 )
                 	__GETD2N 0x200
000707 940e 2135 	CALL __MULD12U
                +
000709 83e9     +STD Y + 1 , R30
00070a 83fa     +STD Y + 1 + 1 , R31
00070b 836b     +STD Y + 1 + 2 , R22
00070c 837c     +STD Y + 1 + 3 , R23
                 	__PUTD1S 1
                 _0x20200AC:
00070d 81a8      	LD   R26,Y
00070e 30a1      	CPI  R26,LOW(0x1)
00070f f4a9      	BRNE _0x20200AD
000710 e5e1      	LDI  R30,LOW(81)
000711 93ea      	ST   -Y,R30
                +
000712 81aa     +LDD R26 , Y + 2
000713 81bb     +LDD R27 , Y + 2 + 1
000714 818c     +LDD R24 , Y + 2 + 2
000715 819d     +LDD R25 , Y + 2 + 3
                 	__GETD2S 2
000716 de80      	RCALL _send_cmd_G101
000717 30e0      	CPI  R30,0
000718 f459      	BRNE _0x20200AE
000719 81ed      	LDD  R30,Y+5
00071a 81fe      	LDD  R31,Y+5+1
00071b 93fa      	ST   -Y,R31
00071c 93ea      	ST   -Y,R30
00071d e0a0      	LDI  R26,LOW(512)
00071e e0b2      	LDI  R27,HIGH(512)
00071f ddcf      	RCALL _rx_datablock_G101
000720 30e0      	CPI  R30,0
000721 f011      	BREQ _0x20200AF
000722 e0e0      	LDI  R30,LOW(0)
000723 83e8      	ST   Y,R30
                 _0x20200AF:
                 _0x20200AE:
000724 c023      	RJMP _0x20200B0
                 _0x20200AD:
000725 e5e2      	LDI  R30,LOW(82)
000726 93ea      	ST   -Y,R30
                +
000727 81aa     +LDD R26 , Y + 2
000728 81bb     +LDD R27 , Y + 2 + 1
000729 818c     +LDD R24 , Y + 2 + 2
00072a 819d     +LDD R25 , Y + 2 + 3
                 	__GETD2S 2
00072b de6b      	RCALL _send_cmd_G101
00072c 30e0      	CPI  R30,0
00072d f4d1      	BRNE _0x20200B1
                 _0x20200B3:
00072e 81ed      	LDD  R30,Y+5
00072f 81fe      	LDD  R31,Y+5+1
000730 93fa      	ST   -Y,R31
000731 93ea      	ST   -Y,R30
000732 e0a0      	LDI  R26,LOW(512)
000733 e0b2      	LDI  R27,HIGH(512)
000734 ddba      	RCALL _rx_datablock_G101
000735 30e0      	CPI  R30,0
000736 f051      	BREQ _0x20200B4
000737 81ed      	LDD  R30,Y+5
000738 81fe      	LDD  R31,Y+5+1
000739 50e0      	SUBI R30,LOW(-512)
00073a 4ffe      	SBCI R31,HIGH(-512)
00073b 83ed      	STD  Y+5,R30
00073c 83fe      	STD  Y+5+1,R31
00073d 81e8      	LD   R30,Y
00073e 50e1      	SUBI R30,LOW(1)
00073f 83e8      	ST   Y,R30
000740 f769      	BRNE _0x20200B3
                 _0x20200B4:
000741 e4ec      	LDI  R30,LOW(76)
000742 93ea      	ST   -Y,R30
                +
000743 e0a0     +LDI R26 , LOW ( 0x0 )
000744 e0b0     +LDI R27 , HIGH ( 0x0 )
000745 e080     +LDI R24 , BYTE3 ( 0x0 )
000746 e090     +LDI R25 , BYTE4 ( 0x0 )
                 	__GETD2N 0x0
000747 de4f      	RCALL _send_cmd_G101
                 _0x20200B1:
                 _0x20200B0:
000748 dd9f      	RCALL _deselect_card_G101
000749 81e8      	LD   R30,Y
00074a 30e0      	CPI  R30,0
00074b f011      	BREQ _0x20200B6
00074c e0e1      	LDI  R30,LOW(1)
00074d c001      	RJMP _0x20200B7
                 _0x20200B6:
00074e e0e0      	LDI  R30,LOW(0)
                 _0x20200B7:
00074f c075      	RJMP _0x20E0018
                 ; .FEND
                 _disk_write:
                 ; .FSTART _disk_write
000750 93aa      	ST   -Y,R26
000751 81ef      	LDD  R30,Y+7
000752 30e0      	CPI  R30,0
000753 f419      	BRNE _0x20200BA
000754 81e8      	LD   R30,Y
000755 30e0      	CPI  R30,0
000756 f411      	BRNE _0x20200B9
                 _0x20200BA:
000757 e0e4      	LDI  R30,LOW(4)
000758 c06c      	RJMP _0x20E0018
                 _0x20200B9:
000759 91e0 0e36 	LDS  R30,_status_G101
00075b 70e1      	ANDI R30,LOW(0x1)
00075c f011      	BREQ _0x20200BC
00075d e0e3      	LDI  R30,LOW(3)
00075e c066      	RJMP _0x20E0018
                 _0x20200BC:
00075f 91e0 0e36 	LDS  R30,_status_G101
000761 70e4      	ANDI R30,LOW(0x4)
000762 f011      	BREQ _0x20200BD
000763 e0e2      	LDI  R30,LOW(2)
000764 c060      	RJMP _0x20E0018
                 _0x20200BD:
000765 91e0 0e39 	LDS  R30,_card_type_G101
000767 70e8      	ANDI R30,LOW(0x8)
000768 f471      	BRNE _0x20200BE
                +
000769 81e9     +LDD R30 , Y + 1
00076a 81fa     +LDD R31 , Y + 1 + 1
00076b 816b     +LDD R22 , Y + 1 + 2
00076c 817c     +LDD R23 , Y + 1 + 3
                 	__GETD1S 1
                +
00076d e0a0     +LDI R26 , LOW ( 0x200 )
00076e e0b2     +LDI R27 , HIGH ( 0x200 )
00076f e080     +LDI R24 , BYTE3 ( 0x200 )
000770 e090     +LDI R25 , BYTE4 ( 0x200 )
                 	__GETD2N 0x200
000771 940e 2135 	CALL __MULD12U
                +
000773 83e9     +STD Y + 1 , R30
000774 83fa     +STD Y + 1 + 1 , R31
000775 836b     +STD Y + 1 + 2 , R22
000776 837c     +STD Y + 1 + 3 , R23
                 	__PUTD1S 1
                 _0x20200BE:
000777 81a8      	LD   R26,Y
000778 30a1      	CPI  R26,LOW(0x1)
000779 f4a1      	BRNE _0x20200BF
00077a e5e8      	LDI  R30,LOW(88)
00077b 93ea      	ST   -Y,R30
                +
00077c 81aa     +LDD R26 , Y + 2
00077d 81bb     +LDD R27 , Y + 2 + 1
00077e 818c     +LDD R24 , Y + 2 + 2
00077f 819d     +LDD R25 , Y + 2 + 3
                 	__GETD2S 2
000780 de16      	RCALL _send_cmd_G101
000781 30e0      	CPI  R30,0
000782 f451      	BRNE _0x20200C0
000783 81ed      	LDD  R30,Y+5
000784 81fe      	LDD  R31,Y+5+1
000785 93fa      	ST   -Y,R31
000786 93ea      	ST   -Y,R30
000787 efae      	LDI  R26,LOW(254)
000788 ddcb      	RCALL _tx_datablock_G101
000789 30e0      	CPI  R30,0
00078a f011      	BREQ _0x20200C1
00078b e0e0      	LDI  R30,LOW(0)
00078c 83e8      	ST   Y,R30
                 _0x20200C1:
                 _0x20200C0:
00078d c030      	RJMP _0x20200C2
                 _0x20200BF:
00078e 91e0 0e39 	LDS  R30,_card_type_G101
000790 70e6      	ANDI R30,LOW(0x6)
000791 f039      	BREQ _0x20200C3
000792 ede7      	LDI  R30,LOW(215)
000793 93ea      	ST   -Y,R30
000794 81a9      	LDD  R26,Y+1
000795 27bb      	CLR  R27
000796 2788      	CLR  R24
000797 2799      	CLR  R25
000798 ddfe      	RCALL _send_cmd_G101
                 _0x20200C3:
000799 e5e9      	LDI  R30,LOW(89)
00079a 93ea      	ST   -Y,R30
                +
00079b 81aa     +LDD R26 , Y + 2
00079c 81bb     +LDD R27 , Y + 2 + 1
00079d 818c     +LDD R24 , Y + 2 + 2
00079e 819d     +LDD R25 , Y + 2 + 3
                 	__GETD2S 2
00079f ddf7      	RCALL _send_cmd_G101
0007a0 30e0      	CPI  R30,0
0007a1 f4e1      	BRNE _0x20200C4
                 _0x20200C6:
0007a2 81ed      	LDD  R30,Y+5
0007a3 81fe      	LDD  R31,Y+5+1
0007a4 93fa      	ST   -Y,R31
0007a5 93ea      	ST   -Y,R30
0007a6 efac      	LDI  R26,LOW(252)
0007a7 ddac      	RCALL _tx_datablock_G101
0007a8 30e0      	CPI  R30,0
0007a9 f051      	BREQ _0x20200C7
0007aa 81ed      	LDD  R30,Y+5
0007ab 81fe      	LDD  R31,Y+5+1
0007ac 50e0      	SUBI R30,LOW(-512)
0007ad 4ffe      	SBCI R31,HIGH(-512)
0007ae 83ed      	STD  Y+5,R30
0007af 83fe      	STD  Y+5+1,R31
0007b0 81e8      	LD   R30,Y
0007b1 50e1      	SUBI R30,LOW(1)
0007b2 83e8      	ST   Y,R30
0007b3 f771      	BRNE _0x20200C6
                 _0x20200C7:
0007b4 e0e0      	LDI  R30,LOW(0)
0007b5 e0f0      	LDI  R31,HIGH(0)
0007b6 93fa      	ST   -Y,R31
0007b7 93ea      	ST   -Y,R30
0007b8 efad      	LDI  R26,LOW(253)
0007b9 dd9a      	RCALL _tx_datablock_G101
0007ba 30e0      	CPI  R30,0
0007bb f411      	BRNE _0x20200C9
0007bc e0e1      	LDI  R30,LOW(1)
0007bd 83e8      	ST   Y,R30
                 _0x20200C9:
                 _0x20200C4:
                 _0x20200C2:
0007be dd29      	RCALL _deselect_card_G101
0007bf 81e8      	LD   R30,Y
0007c0 30e0      	CPI  R30,0
0007c1 f011      	BREQ _0x20200CA
0007c2 e0e1      	LDI  R30,LOW(1)
0007c3 c001      	RJMP _0x20200CB
                 _0x20200CA:
0007c4 e0e0      	LDI  R30,LOW(0)
                 _0x20200CB:
                 _0x20E0018:
0007c5 9628      	ADIW R28,8
0007c6 9508      	RET
                 ; .FEND
                 _disk_ioctl:
                 ; .FSTART _disk_ioctl
0007c7 93ba      	ST   -Y,R27
0007c8 93aa      	ST   -Y,R26
0007c9 9760      	SBIW R28,16
0007ca 940e 2204 	CALL __SAVELOCR4
0007cc 89ef      	LDD  R30,Y+23
0007cd 30e0      	CPI  R30,0
0007ce f011      	BREQ _0x20200CD
0007cf e0e4      	LDI  R30,LOW(4)
0007d0 c187      	RJMP _0x20E0017
                 _0x20200CD:
0007d1 91e0 0e36 	LDS  R30,_status_G101
0007d3 70e1      	ANDI R30,LOW(0x1)
0007d4 f011      	BREQ _0x20200CE
0007d5 e0e3      	LDI  R30,LOW(3)
0007d6 c181      	RJMP _0x20E0017
                 _0x20200CE:
0007d7 e001      	LDI  R16,LOW(1)
0007d8 89ee      	LDD  R30,Y+22
0007d9 30e0      	CPI  R30,0
0007da f431      	BRNE _0x20200D2
0007db 9828      	CBI  0x5,0
0007dc dcf2      	RCALL _wait_ready_G101
0007dd 3fef      	CPI  R30,LOW(0xFF)
0007de f409      	BRNE _0x20200D3
0007df e000      	LDI  R16,LOW(0)
                 _0x20200D3:
0007e0 c175      	RJMP _0x20200D1
                 _0x20200D2:
0007e1 30e1      	CPI  R30,LOW(0x1)
0007e2 f009      	BREQ PC+2
0007e3 c05f      	RJMP _0x20200D4
0007e4 e4e9      	LDI  R30,LOW(73)
0007e5 93ea      	ST   -Y,R30
                +
0007e6 e0a0     +LDI R26 , LOW ( 0x0 )
0007e7 e0b0     +LDI R27 , HIGH ( 0x0 )
0007e8 e080     +LDI R24 , BYTE3 ( 0x0 )
0007e9 e090     +LDI R25 , BYTE4 ( 0x0 )
                 	__GETD2N 0x0
0007ea ddac      	RCALL _send_cmd_G101
0007eb 30e0      	CPI  R30,0
0007ec f449      	BRNE _0x20200D6
0007ed 01fe      	MOVW R30,R28
0007ee 9634      	ADIW R30,4
0007ef 93fa      	ST   -Y,R31
0007f0 93ea      	ST   -Y,R30
0007f1 e1a0      	LDI  R26,LOW(16)
0007f2 e0b0      	LDI  R27,0
0007f3 dcfb      	RCALL _rx_datablock_G101
0007f4 30e0      	CPI  R30,0
0007f5 f409      	BRNE _0x20200D7
                 _0x20200D6:
0007f6 c04b      	RJMP _0x20200D5
                 _0x20200D7:
0007f7 81ec      	LDD  R30,Y+4
0007f8 95e2      	SWAP R30
0007f9 70ef      	ANDI R30,0xF
0007fa 95e6      	LSR  R30
0007fb 95e6      	LSR  R30
0007fc 30e1      	CPI  R30,LOW(0x1)
0007fd f479      	BRNE _0x20200D8
0007fe e0e0      	LDI  R30,0
0007ff 85fc      	LDD  R31,Y+12
000800 85ad      	LDD  R26,Y+13
000801 e0b0      	LDI  R27,0
000802 0fea      	ADD  R30,R26
000803 1ffb      	ADC  R31,R27
000804 9631      	ADIW R30,1
                +
000805 2f1e     +MOV R17 , R30
000806 2f2f     +MOV R18 , R31
                 	__PUTW1R 17,18
                +
000807 2fa1     +MOV R26 , R17
000808 2fb2     +MOV R27 , R18
                 	__GETW2R 17,18
000809 2788      	CLR  R24
00080a 2799      	CLR  R25
00080b e0ea      	LDI  R30,LOW(10)
00080c c02e      	RJMP _0x2020109
                 _0x20200D8:
00080d 85e9      	LDD  R30,Y+9
00080e 70ef      	ANDI R30,LOW(0xF)
00080f 2fae      	MOV  R26,R30
000810 85ee      	LDD  R30,Y+14
000811 78e0      	ANDI R30,LOW(0x80)
000812 1fee      	ROL  R30
000813 e0e0      	LDI  R30,0
000814 1fee      	ROL  R30
000815 0fae      	ADD  R26,R30
000816 85ed      	LDD  R30,Y+13
000817 70e3      	ANDI R30,LOW(0x3)
000818 0fee      	LSL  R30
000819 0fea      	ADD  R30,R26
00081a 5fee      	SUBI R30,-LOW(2)
00081b 2f3e      	MOV  R19,R30
00081c 85ec      	LDD  R30,Y+12
00081d 95e2      	SWAP R30
00081e 70ef      	ANDI R30,0xF
00081f 95e6      	LSR  R30
000820 95e6      	LSR  R30
000821 2fae      	MOV  R26,R30
000822 85eb      	LDD  R30,Y+11
000823 e0f0      	LDI  R31,0
000824 940e 210e 	CALL __LSLW2
000826 e0b0      	LDI  R27,0
000827 0fae      	ADD  R26,R30
000828 1fbf      	ADC  R27,R31
000829 85ea      	LDD  R30,Y+10
00082a 70e3      	ANDI R30,LOW(0x3)
00082b e0f0      	LDI  R31,0
00082c 940e 210e 	CALL __LSLW2
00082e 2ffe      	MOV  R31,R30
00082f e0e0      	LDI  R30,0
000830 0fea      	ADD  R30,R26
000831 1ffb      	ADC  R31,R27
000832 9631      	ADIW R30,1
                +
000833 2f1e     +MOV R17 , R30
000834 2f2f     +MOV R18 , R31
                 	__PUTW1R 17,18
                +
000835 2fa1     +MOV R26 , R17
000836 2fb2     +MOV R27 , R18
                 	__GETW2R 17,18
000837 2788      	CLR  R24
000838 2799      	CLR  R25
000839 2fe3      	MOV  R30,R19
00083a 50e9      	SUBI R30,LOW(9)
                 _0x2020109:
00083b 940e 20f2 	CALL __LSLD12
00083d 89ac      	LDD  R26,Y+20
00083e 89bd      	LDD  R27,Y+20+1
00083f 940e 21b5 	CALL __PUTDP1
000841 e000      	LDI  R16,LOW(0)
                 _0x20200D5:
000842 c113      	RJMP _0x20200D1
                 _0x20200D4:
000843 30e2      	CPI  R30,LOW(0x2)
000844 f441      	BRNE _0x20200DA
000845 89ac      	LDD  R26,Y+20
000846 89bd      	LDD  R27,Y+20+1
000847 e0e0      	LDI  R30,LOW(512)
000848 e0f2      	LDI  R31,HIGH(512)
000849 93ed      	ST   X+,R30
00084a 93fc      	ST   X,R31
00084b e000      	LDI  R16,LOW(0)
00084c c109      	RJMP _0x20200D1
                 _0x20200DA:
00084d 30e3      	CPI  R30,LOW(0x3)
00084e f009      	BREQ PC+2
00084f c0ab      	RJMP _0x20200DB
000850 91e0 0e39 	LDS  R30,_card_type_G101
000852 70e4      	ANDI R30,LOW(0x4)
000853 f181      	BREQ _0x20200DC
000854 eced      	LDI  R30,LOW(205)
000855 93ea      	ST   -Y,R30
                +
000856 e0a0     +LDI R26 , LOW ( 0x0 )
000857 e0b0     +LDI R27 , HIGH ( 0x0 )
000858 e080     +LDI R24 , BYTE3 ( 0x0 )
000859 e090     +LDI R25 , BYTE4 ( 0x0 )
                 	__GETD2N 0x0
00085a dd3c      	RCALL _send_cmd_G101
00085b 30e0      	CPI  R30,0
00085c f531      	BRNE _0x20200DD
00085d efef      	LDI  R30,LOW(255)
00085e bdee      	OUT  0x2E,R30
                 _0x20200DE:
00085f b5ed      	IN   R30,0x2D
000860 ffe7      	SBRS R30,7
000861 cffd      	RJMP _0x20200DE
000862 01fe      	MOVW R30,R28
000863 9634      	ADIW R30,4
000864 93fa      	ST   -Y,R31
000865 93ea      	ST   -Y,R30
000866 e1a0      	LDI  R26,LOW(16)
000867 e0b0      	LDI  R27,0
000868 dc86      	RCALL _rx_datablock_G101
000869 30e0      	CPI  R30,0
00086a f0c1      	BREQ _0x20200E1
00086b e330      	LDI  R19,LOW(48)
                 _0x20200E3:
00086c 3030      	CPI  R19,0
00086d f039      	BREQ _0x20200E4
00086e efef      	LDI  R30,LOW(255)
00086f bdee      	OUT  0x2E,R30
                 _0x20200E5:
000870 b5ed      	IN   R30,0x2D
000871 ffe7      	SBRS R30,7
000872 cffd      	RJMP _0x20200E5
000873 5031      	SUBI R19,1
000874 cff7      	RJMP _0x20200E3
                 _0x20200E4:
000875 85ee      	LDD  R30,Y+14
000876 95e2      	SWAP R30
000877 70ef      	ANDI R30,0xF
                +
000878 e1a0     +LDI R26 , LOW ( 0x10 )
000879 e0b0     +LDI R27 , HIGH ( 0x10 )
00087a e080     +LDI R24 , BYTE3 ( 0x10 )
00087b e090     +LDI R25 , BYTE4 ( 0x10 )
                 	__GETD2N 0x10
00087c 940e 20f2 	CALL __LSLD12
00087e 89ac      	LDD  R26,Y+20
00087f 89bd      	LDD  R27,Y+20+1
000880 940e 21b5 	CALL __PUTDP1
000882 e000      	LDI  R16,LOW(0)
                 _0x20200E1:
                 _0x20200DD:
000883 c076      	RJMP _0x20200E8
                 _0x20200DC:
000884 e4e9      	LDI  R30,LOW(73)
000885 93ea      	ST   -Y,R30
                +
000886 e0a0     +LDI R26 , LOW ( 0x0 )
000887 e0b0     +LDI R27 , HIGH ( 0x0 )
000888 e080     +LDI R24 , BYTE3 ( 0x0 )
000889 e090     +LDI R25 , BYTE4 ( 0x0 )
                 	__GETD2N 0x0
00088a dd0c      	RCALL _send_cmd_G101
00088b 30e0      	CPI  R30,0
00088c f009      	BREQ PC+2
00088d c06c      	RJMP _0x20200E9
00088e 01fe      	MOVW R30,R28
00088f 9634      	ADIW R30,4
000890 93fa      	ST   -Y,R31
000891 93ea      	ST   -Y,R30
000892 e1a0      	LDI  R26,LOW(16)
000893 e0b0      	LDI  R27,0
000894 dc5a      	RCALL _rx_datablock_G101
000895 30e0      	CPI  R30,0
000896 f409      	BRNE PC+2
000897 c062      	RJMP _0x20200EA
000898 91e0 0e39 	LDS  R30,_card_type_G101
00089a 70e2      	ANDI R30,LOW(0x2)
00089b f151      	BREQ _0x20200EB
00089c 85ee      	LDD  R30,Y+14
00089d 73ef      	ANDI R30,LOW(0x3F)
00089e 27ff      	CLR  R31
00089f 2766      	CLR  R22
0008a0 2777      	CLR  R23
0008a1 940e 211c 	CALL __LSLD1
0008a3 937f      	PUSH R23
0008a4 936f      	PUSH R22
0008a5 93ff      	PUSH R31
0008a6 93ef      	PUSH R30
0008a7 85ef      	LDD  R30,Y+15
0008a8 78e0      	ANDI R30,LOW(0x80)
0008a9 27ff      	CLR  R31
0008aa 2766      	CLR  R22
0008ab 2777      	CLR  R23
0008ac 01df      	MOVW R26,R30
0008ad 01cb      	MOVW R24,R22
0008ae e0e7      	LDI  R30,LOW(7)
0008af 940e 20fe 	CALL __LSRD12
0008b1 91af      	POP  R26
0008b2 91bf      	POP  R27
0008b3 918f      	POP  R24
0008b4 919f      	POP  R25
0008b5 940e 20c8 	CALL __ADDD12
                +
0008b7 5fef     +SUBI R30 , LOW ( - 1 )
0008b8 4fff     +SBCI R31 , HIGH ( - 1 )
0008b9 4f6f     +SBCI R22 , BYTE3 ( - 1 )
0008ba 4f7f     +SBCI R23 , BYTE4 ( - 1 )
                 	__ADDD1N 1
0008bb 01df      	MOVW R26,R30
0008bc 01cb      	MOVW R24,R22
0008bd 89e9      	LDD  R30,Y+17
0008be 95e2      	SWAP R30
0008bf 70ef      	ANDI R30,0xF
0008c0 95e6      	LSR  R30
0008c1 95e6      	LSR  R30
0008c2 50e1      	SUBI R30,LOW(1)
0008c3 940e 20f2 	CALL __LSLD12
0008c5 c02f      	RJMP _0x202010A
                 _0x20200EB:
0008c6 85ee      	LDD  R30,Y+14
0008c7 77ec      	ANDI R30,LOW(0x7C)
0008c8 95e6      	LSR  R30
0008c9 95e6      	LSR  R30
0008ca 27ff      	CLR  R31
0008cb 2766      	CLR  R22
0008cc 2777      	CLR  R23
                +
0008cd 5fef     +SUBI R30 , LOW ( - 1 )
0008ce 4fff     +SBCI R31 , HIGH ( - 1 )
0008cf 4f6f     +SBCI R22 , BYTE3 ( - 1 )
0008d0 4f7f     +SBCI R23 , BYTE4 ( - 1 )
                 	__ADDD1N 1
0008d1 937f      	PUSH R23
0008d2 936f      	PUSH R22
0008d3 93ff      	PUSH R31
0008d4 93ef      	PUSH R30
0008d5 85ef      	LDD  R30,Y+15
0008d6 70e3      	ANDI R30,LOW(0x3)
0008d7 27ff      	CLR  R31
0008d8 2766      	CLR  R22
0008d9 2777      	CLR  R23
0008da 01df      	MOVW R26,R30
0008db 01cb      	MOVW R24,R22
0008dc e0e3      	LDI  R30,LOW(3)
0008dd 940e 20f2 	CALL __LSLD12
0008df 01df      	MOVW R26,R30
0008e0 01cb      	MOVW R24,R22
0008e1 85ef      	LDD  R30,Y+15
0008e2 7ee0      	ANDI R30,LOW(0xE0)
0008e3 95e2      	SWAP R30
0008e4 70ef      	ANDI R30,0xF
0008e5 95e6      	LSR  R30
0008e6 27ff      	CLR  R31
0008e7 2766      	CLR  R22
0008e8 2777      	CLR  R23
0008e9 940e 20c8 	CALL __ADDD12
                +
0008eb 5fef     +SUBI R30 , LOW ( - 1 )
0008ec 4fff     +SBCI R31 , HIGH ( - 1 )
0008ed 4f6f     +SBCI R22 , BYTE3 ( - 1 )
0008ee 4f7f     +SBCI R23 , BYTE4 ( - 1 )
                 	__ADDD1N 1
0008ef 91af      	POP  R26
0008f0 91bf      	POP  R27
0008f1 918f      	POP  R24
0008f2 919f      	POP  R25
0008f3 940e 2135 	CALL __MULD12U
                 _0x202010A:
0008f5 89ac      	LDD  R26,Y+20
0008f6 89bd      	LDD  R27,Y+20+1
0008f7 940e 21b5 	CALL __PUTDP1
0008f9 e000      	LDI  R16,LOW(0)
                 _0x20200EA:
                 _0x20200E9:
                 _0x20200E8:
0008fa c05b      	RJMP _0x20200D1
                 _0x20200DB:
0008fb 30ea      	CPI  R30,LOW(0xA)
0008fc f439      	BRNE _0x20200ED
0008fd 91e0 0e39 	LDS  R30,_card_type_G101
0008ff 89ac      	LDD  R26,Y+20
000900 89bd      	LDD  R27,Y+20+1
000901 93ec      	ST   X,R30
000902 e000      	LDI  R16,LOW(0)
000903 c052      	RJMP _0x20200D1
                 _0x20200ED:
000904 30eb      	CPI  R30,LOW(0xB)
000905 f411      	BRNE _0x20200EE
000906 e439      	LDI  R19,LOW(73)
000907 c003      	RJMP _0x20200EF
                 _0x20200EE:
000908 30ec      	CPI  R30,LOW(0xC)
000909 f501      	BRNE _0x20200F1
00090a e43a      	LDI  R19,LOW(74)
                 _0x20200EF:
00090b 933a      	ST   -Y,R19
                +
00090c e0a0     +LDI R26 , LOW ( 0x0 )
00090d e0b0     +LDI R27 , HIGH ( 0x0 )
00090e e080     +LDI R24 , BYTE3 ( 0x0 )
00090f e090     +LDI R25 , BYTE4 ( 0x0 )
                 	__GETD2N 0x0
000910 dc86      	RCALL _send_cmd_G101
000911 30e0      	CPI  R30,0
000912 f4b1      	BRNE _0x20200F2
000913 89ec      	LDD  R30,Y+20
000914 89fd      	LDD  R31,Y+20+1
000915 93fa      	ST   -Y,R31
000916 93ea      	ST   -Y,R30
000917 e1a0      	LDI  R26,LOW(16)
000918 e0b0      	LDI  R27,0
000919 dbd5      	RCALL _rx_datablock_G101
00091a 30e0      	CPI  R30,0
00091b f069      	BREQ _0x20200F3
00091c 89ec      	LDD  R30,Y+20
00091d 89fd      	LDD  R31,Y+20+1
00091e 93fa      	ST   -Y,R31
00091f 93ea      	ST   -Y,R30
000920 e0af      	LDI  R26,LOW(15)
000921 db90      	RCALL _crc7_G101
000922 2fae      	MOV  R26,R30
000923 89ec      	LDD  R30,Y+20
000924 89fd      	LDD  R31,Y+20+1
000925 85e7      	LDD  R30,Z+15
000926 17ea      	CP   R30,R26
000927 f409      	BRNE _0x20200F4
000928 e000      	LDI  R16,LOW(0)
                 _0x20200F4:
                 _0x20200F3:
                 _0x20200F2:
000929 c02c      	RJMP _0x20200D1
                 _0x20200F1:
00092a 30ed      	CPI  R30,LOW(0xD)
00092b f471      	BRNE _0x20200F5
00092c e7ea      	LDI  R30,LOW(122)
00092d 93ea      	ST   -Y,R30
                +
00092e e0a0     +LDI R26 , LOW ( 0x0 )
00092f e0b0     +LDI R27 , HIGH ( 0x0 )
000930 e080     +LDI R24 , BYTE3 ( 0x0 )
000931 e090     +LDI R25 , BYTE4 ( 0x0 )
                 	__GETD2N 0x0
000932 dc64      	RCALL _send_cmd_G101
000933 30e0      	CPI  R30,0
000934 f421      	BRNE _0x20200F6
000935 89ac      	LDD  R26,Y+20
000936 89bd      	LDD  R27,Y+20+1
000937 dcc2      	RCALL _rx_spi4_G101
000938 e000      	LDI  R16,LOW(0)
                 _0x20200F6:
000939 c01c      	RJMP _0x20200D1
                 _0x20200F5:
00093a 30ee      	CPI  R30,LOW(0xE)
00093b f4c9      	BRNE _0x20200FD
00093c eced      	LDI  R30,LOW(205)
00093d 93ea      	ST   -Y,R30
                +
00093e e0a0     +LDI R26 , LOW ( 0x0 )
00093f e0b0     +LDI R27 , HIGH ( 0x0 )
000940 e080     +LDI R24 , BYTE3 ( 0x0 )
000941 e090     +LDI R25 , BYTE4 ( 0x0 )
                 	__GETD2N 0x0
000942 dc54      	RCALL _send_cmd_G101
000943 30e0      	CPI  R30,0
000944 f479      	BRNE _0x20200F8
000945 efef      	LDI  R30,LOW(255)
000946 bdee      	OUT  0x2E,R30
                 _0x20200F9:
000947 b5ed      	IN   R30,0x2D
000948 ffe7      	SBRS R30,7
000949 cffd      	RJMP _0x20200F9
00094a 89ec      	LDD  R30,Y+20
00094b 89fd      	LDD  R31,Y+20+1
00094c 93fa      	ST   -Y,R31
00094d 93ea      	ST   -Y,R30
00094e e4a0      	LDI  R26,LOW(64)
00094f e0b0      	LDI  R27,0
000950 db9e      	RCALL _rx_datablock_G101
000951 30e0      	CPI  R30,0
000952 f009      	BREQ _0x20200FC
000953 e000      	LDI  R16,LOW(0)
                 _0x20200FC:
                 _0x20200F8:
000954 c001      	RJMP _0x20200D1
                 _0x20200FD:
000955 e004      	LDI  R16,LOW(4)
                 _0x20200D1:
000956 db91      	RCALL _deselect_card_G101
000957 2fe0      	MOV  R30,R16
                 _0x20E0017:
000958 940e 220b 	CALL __LOADLOCR4
00095a 9668      	ADIW R28,24
00095b 9508      	RET
                 ; .FEND
                 _disk_timerproc:
                 ; .FSTART _disk_timerproc
                 
                 	.DSEG
                 
                 	.CSEG
00095c 930a      	ST   -Y,R16
00095d 9100 0e37 	LDS  R16,_timer1_G101
00095f 3000      	CPI  R16,0
000960 f019      	BREQ _0x20200FF
000961 5001      	SUBI R16,LOW(1)
000962 9300 0e37 	STS  _timer1_G101,R16
                 _0x20200FF:
000964 9100 0e38 	LDS  R16,_timer2_G101
000966 3000      	CPI  R16,0
000967 f019      	BREQ _0x2020100
000968 5001      	SUBI R16,LOW(1)
000969 9300 0e38 	STS  _timer2_G101,R16
                 _0x2020100:
00096b 9100 0e3a 	LDS  R16,_flags_S101000C000
00096d e0e0      	LDI  R30,LOW(0)
00096e 93e0 0e3a 	STS  _flags_S101000C000,R30
000970 991c      	SBIC 0x3,4
000971 c003      	RJMP _0x2020101
000972 e0e1      	LDI  R30,LOW(1)
000973 93e0 0e3a 	STS  _flags_S101000C000,R30
                 _0x2020101:
000975 9b1d      	SBIS 0x3,5
000976 c005      	RJMP _0x2020102
000977 91e0 0e3a 	LDS  R30,_flags_S101000C000
000979 60e2      	ORI  R30,2
00097a 93e0 0e3a 	STS  _flags_S101000C000,R30
                 _0x2020102:
00097c 91e0 0e3a 	LDS  R30,_flags_S101000C000
00097e 17e0      	CP   R30,R16
00097f f481      	BRNE _0x2020103
000980 9100 0e36 	LDS  R16,_status_G101
000982 70e1      	ANDI R30,LOW(0x1)
000983 f011      	BREQ _0x2020104
000984 7f0d      	ANDI R16,LOW(253)
000985 c001      	RJMP _0x2020105
                 _0x2020104:
000986 6003      	ORI  R16,LOW(3)
                 _0x2020105:
000987 91e0 0e3a 	LDS  R30,_flags_S101000C000
000989 70e2      	ANDI R30,LOW(0x2)
00098a f011      	BREQ _0x2020106
00098b 6004      	ORI  R16,LOW(4)
00098c c001      	RJMP _0x2020107
                 _0x2020106:
00098d 7f0b      	ANDI R16,LOW(251)
                 _0x2020107:
00098e 9300 0e36 	STS  _status_G101,R16
                 _0x2020103:
                 _0x20E0016:
000990 9109      	LD   R16,Y+
000991 9508      	RET
                 ; .FEND
                 
                 	.CSEG
                 _get_fattime:
                 ; .FSTART _get_fattime
000992 9727      	SBIW R28,7
000993 91a0 0901 	LDS  R26,_prtc_get_time
000995 91b0 0902 	LDS  R27,_prtc_get_time+1
000997 9710      	SBIW R26,0
000998 f031      	BREQ _0x2040004
000999 91a0 0903 	LDS  R26,_prtc_get_date
00099b 91b0 0904 	LDS  R27,_prtc_get_date+1
00099d 9710      	SBIW R26,0
00099e f429      	BRNE _0x2040003
                 _0x2040004:
                +
00099f e0e0     +LDI R30 , LOW ( 0x3A210000 )
0009a0 e0f0     +LDI R31 , HIGH ( 0x3A210000 )
0009a1 e261     +LDI R22 , BYTE3 ( 0x3A210000 )
0009a2 e37a     +LDI R23 , BYTE4 ( 0x3A210000 )
                 	__GETD1N 0x3A210000
0009a3 c06d      	RJMP _0x20E0015
                 _0x2040003:
0009a4 01fe      	MOVW R30,R28
0009a5 9636      	ADIW R30,6
0009a6 93fa      	ST   -Y,R31
0009a7 93ea      	ST   -Y,R30
0009a8 01fe      	MOVW R30,R28
0009a9 9637      	ADIW R30,7
0009aa 93fa      	ST   -Y,R31
0009ab 93ea      	ST   -Y,R30
0009ac 01de      	MOVW R26,R28
0009ad 9618      	ADIW R26,8
                +
0009ae 91e0 0901+LDS R30 , _prtc_get_time + ( 0 )
0009b0 91f0 0902+LDS R31 , _prtc_get_time + ( 0 ) + 1
0009b2 9509     +ICALL
                 	__CALL1MN _prtc_get_time,0
0009b3 01fe      	MOVW R30,R28
0009b4 9633      	ADIW R30,3
0009b5 93fa      	ST   -Y,R31
0009b6 93ea      	ST   -Y,R30
0009b7 01fe      	MOVW R30,R28
0009b8 9634      	ADIW R30,4
0009b9 93fa      	ST   -Y,R31
0009ba 93ea      	ST   -Y,R30
0009bb 01de      	MOVW R26,R28
0009bc 9614      	ADIW R26,4
                +
0009bd 91e0 0903+LDS R30 , _prtc_get_date + ( 0 )
0009bf 91f0 0904+LDS R31 , _prtc_get_date + ( 0 ) + 1
0009c1 9509     +ICALL
                 	__CALL1MN _prtc_get_date,0
0009c2 81e8      	LD   R30,Y
0009c3 81f9      	LDD  R31,Y+1
0009c4 5bec      	SUBI R30,LOW(1980)
0009c5 40f7      	SBCI R31,HIGH(1980)
0009c6 2766      	CLR  R22
0009c7 2777      	CLR  R23
0009c8 01df      	MOVW R26,R30
0009c9 01cb      	MOVW R24,R22
0009ca e1e9      	LDI  R30,LOW(25)
0009cb 940e 20f2 	CALL __LSLD12
0009cd 937f      	PUSH R23
0009ce 936f      	PUSH R22
0009cf 93ff      	PUSH R31
0009d0 93ef      	PUSH R30
0009d1 81ea      	LDD  R30,Y+2
0009d2 940e 1b65 	CALL SUBOPT_0x1F
0009d4 e1e5      	LDI  R30,LOW(21)
0009d5 940e 20f2 	CALL __LSLD12
0009d7 91af      	POP  R26
0009d8 91bf      	POP  R27
0009d9 918f      	POP  R24
0009da 919f      	POP  R25
0009db 940e 20e1 	CALL __ORD12
0009dd 01df      	MOVW R26,R30
0009de 01cb      	MOVW R24,R22
0009df 81eb      	LDD  R30,Y+3
0009e0 e0f0      	LDI  R31,0
0009e1 940e 212b 	CALL __CWD1
0009e3 940e 2126 	CALL __LSLD16
0009e5 940e 20e1 	CALL __ORD12
0009e7 937f      	PUSH R23
0009e8 936f      	PUSH R22
0009e9 93ff      	PUSH R31
0009ea 93ef      	PUSH R30
0009eb 81ee      	LDD  R30,Y+6
0009ec 940e 1b65 	CALL SUBOPT_0x1F
0009ee e0eb      	LDI  R30,LOW(11)
0009ef 940e 20f2 	CALL __LSLD12
0009f1 91af      	POP  R26
0009f2 91bf      	POP  R27
0009f3 918f      	POP  R24
0009f4 919f      	POP  R25
0009f5 940e 20e1 	CALL __ORD12
0009f7 937f      	PUSH R23
0009f8 936f      	PUSH R22
0009f9 93ff      	PUSH R31
0009fa 93ef      	PUSH R30
0009fb 81ed      	LDD  R30,Y+5
0009fc 940e 1b65 	CALL SUBOPT_0x1F
0009fe e0e5      	LDI  R30,LOW(5)
0009ff 940e 20f2 	CALL __LSLD12
000a01 91af      	POP  R26
000a02 91bf      	POP  R27
000a03 918f      	POP  R24
000a04 919f      	POP  R25
000a05 940e 20e1 	CALL __ORD12
000a07 01df      	MOVW R26,R30
000a08 01cb      	MOVW R24,R22
000a09 81ec      	LDD  R30,Y+4
000a0a e0f0      	LDI  R31,0
000a0b 95f5      	ASR  R31
000a0c 95e7      	ROR  R30
000a0d 940e 212b 	CALL __CWD1
000a0f 940e 20e1 	CALL __ORD12
                 _0x20E0015:
000a11 9627      	ADIW R28,7
000a12 9508      	RET
                 ; .FEND
                 _chk_chrf_G102:
                 ; .FSTART _chk_chrf_G102
000a13 93aa      	ST   -Y,R26
000a14 930a      	ST   -Y,R16
                 _0x2040006:
000a15 81ea      	LDD  R30,Y+2
000a16 81fb      	LDD  R31,Y+2+1
000a17 91e4      	LPM  R30,Z
000a18 2f0e      	MOV  R16,R30
000a19 30e0      	CPI  R30,0
000a1a f019      	BREQ _0x2040009
000a1b 81e9      	LDD  R30,Y+1
000a1c 17e0      	CP   R30,R16
000a1d f409      	BRNE _0x204000A
                 _0x2040009:
000a1e c006      	RJMP _0x2040008
                 _0x204000A:
000a1f 81ea      	LDD  R30,Y+2
000a20 81fb      	LDD  R31,Y+2+1
000a21 9631      	ADIW R30,1
000a22 83ea      	STD  Y+2,R30
000a23 83fb      	STD  Y+2+1,R31
000a24 cff0      	RJMP _0x2040006
                 _0x2040008:
000a25 2fe0      	MOV  R30,R16
000a26 e0f0      	LDI  R31,0
000a27 8108      	LDD  R16,Y+0
000a28 9624      	ADIW R28,4
000a29 9508      	RET
                 ; .FEND
                 _move_window_G102:
                 ; .FSTART _move_window_G102
000a2a 940e 21dc 	CALL __PUTPARD2
000a2c 9724      	SBIW R28,4
000a2d 930a      	ST   -Y,R16
000a2e 85a9      	LDD  R26,Y+9
000a2f 85ba      	LDD  R27,Y+9+1
000a30 969e      	ADIW R26,46
000a31 940e 1b6b 	CALL SUBOPT_0x20
000a33 940e 1b72 	CALL SUBOPT_0x21
000a35 940e 1b77 	CALL SUBOPT_0x22
000a37 940e 21f8 	CALL __CPD12
000a39 f409      	BRNE PC+2
000a3a c050      	RJMP _0x204000B
000a3b 85e9      	LDD  R30,Y+9
000a3c 85fa      	LDD  R31,Y+9+1
000a3d 81e4      	LDD  R30,Z+4
000a3e 30e0      	CPI  R30,0
000a3f f199      	BREQ _0x204000C
000a40 940e 1b7c 	CALL SUBOPT_0x23
000a42 30e0      	CPI  R30,0
000a43 f011      	BREQ _0x204000D
000a44 e0e1      	LDI  R30,LOW(1)
000a45 c21b      	RJMP _0x20E0012
                 _0x204000D:
000a46 85a9      	LDD  R26,Y+9
000a47 85ba      	LDD  R27,Y+9+1
000a48 9614      	ADIW R26,4
000a49 e0e0      	LDI  R30,LOW(0)
000a4a 93ec      	ST   X,R30
000a4b 85e9      	LDD  R30,Y+9
000a4c 85fa      	LDD  R31,Y+9+1
000a4d 940e 1b8e 	CALL SUBOPT_0x24
000a4f 010d      	MOVW R0,R26
000a50 85a9      	LDD  R26,Y+9
000a51 85ba      	LDD  R27,Y+9+1
000a52 965a      	ADIW R26,26
000a53 940e 21aa 	CALL __GETD1P
000a55 01d0      	MOVW R26,R0
000a56 940e 20c8 	CALL __ADDD12
000a58 940e 1b77 	CALL SUBOPT_0x22
000a5a 940e 21fd 	CALL __CPD21
000a5c f4b0      	BRSH _0x204000E
000a5d 85e9      	LDD  R30,Y+9
000a5e 85fa      	LDD  R31,Y+9+1
000a5f 8103      	LDD  R16,Z+3
                 _0x2040010:
000a60 3002      	CPI  R16,2
000a61 f088      	BRLO _0x2040011
000a62 85a9      	LDD  R26,Y+9
000a63 85ba      	LDD  R27,Y+9+1
000a64 965a      	ADIW R26,26
000a65 940e 21aa 	CALL __GETD1P
000a67 940e 1b77 	CALL SUBOPT_0x22
000a69 940e 20c8 	CALL __ADDD12
                +
000a6b 83e9     +STD Y + 1 , R30
000a6c 83fa     +STD Y + 1 + 1 , R31
000a6d 836b     +STD Y + 1 + 2 , R22
000a6e 837c     +STD Y + 1 + 3 , R23
                 	__PUTD1S 1
000a6f 940e 1b7c 	CALL SUBOPT_0x23
000a71 5001      	SUBI R16,1
000a72 cfed      	RJMP _0x2040010
                 _0x2040011:
                 _0x204000E:
                 _0x204000C:
000a73 940e 1b72 	CALL SUBOPT_0x21
000a75 940e 21ee 	CALL __CPD10
000a77 f099      	BREQ _0x2040012
000a78 85e9      	LDD  R30,Y+9
000a79 85fa      	LDD  R31,Y+9+1
000a7a 81a1      	LDD  R26,Z+1
000a7b 93aa      	ST   -Y,R26
000a7c 85ea      	LDD  R30,Y+10
000a7d 85fb      	LDD  R31,Y+10+1
000a7e 96f2      	ADIW R30,50
000a7f 940e 1b93 	CALL SUBOPT_0x25
000a81 f011      	BREQ _0x2040013
000a82 e0e1      	LDI  R30,LOW(1)
000a83 c1dd      	RJMP _0x20E0012
                 _0x2040013:
000a84 940e 1b72 	CALL SUBOPT_0x21
                +
000a86 85a9     +LDD R26 , Y + 9
000a87 85ba     +LDD R27 , Y + 9 + 1
000a88 969e     +ADIW R26 , 46
000a89 940e 21b5+CALL __PUTDP1
                 	__PUTD1SNS 9,46
                 _0x2040012:
                 _0x204000B:
000a8b e0e0      	LDI  R30,LOW(0)
000a8c c1d4      	RJMP _0x20E0012
                 ; .FEND
                 _sync_G102:
                 ; .FSTART _sync_G102
000a8d 93ba      	ST   -Y,R27
000a8e 93aa      	ST   -Y,R26
000a8f 930a      	ST   -Y,R16
000a90 81e9      	LDD  R30,Y+1
000a91 81fa      	LDD  R31,Y+1+1
000a92 940e 1ba0 	CALL SUBOPT_0x26
000a94 2f0e      	MOV  R16,R30
000a95 3000      	CPI  R16,0
000a96 f009      	BREQ PC+2
000a97 c05b      	RJMP _0x2040014
000a98 81a9      	LDD  R26,Y+1
000a99 81ba      	LDD  R27,Y+1+1
000a9a 91ac      	LD   R26,X
000a9b 30a3      	CPI  R26,LOW(0x3)
000a9c f429      	BRNE _0x2040016
000a9d 81e9      	LDD  R30,Y+1
000a9e 81fa      	LDD  R31,Y+1+1
000a9f 81e5      	LDD  R30,Z+5
000aa0 30e0      	CPI  R30,0
000aa1 f409      	BRNE _0x2040017
                 _0x2040016:
000aa2 c044      	RJMP _0x2040015
                 _0x2040017:
000aa3 81a9      	LDD  R26,Y+1
000aa4 81ba      	LDD  R27,Y+1+1
000aa5 940e 1ba8 	CALL SUBOPT_0x27
000aa7 81e9      	LDD  R30,Y+1
000aa8 81fa      	LDD  R31,Y+1+1
000aa9 940e 1bb0 	CALL SUBOPT_0x28
000aab 81e9      	LDD  R30,Y+1
000aac 81fa      	LDD  R31,Y+1+1
000aad 96f2      	ADIW R30,50
000aae 50e2      	SUBI R30,LOW(-510)
000aaf 4ffe      	SBCI R31,HIGH(-510)
000ab0 e5a5      	LDI  R26,LOW(43605)
000ab1 eaba      	LDI  R27,HIGH(43605)
000ab2 83a0      	STD  Z+0,R26
000ab3 83b1      	STD  Z+1,R27
000ab4 81e9      	LDD  R30,Y+1
000ab5 81fa      	LDD  R31,Y+1+1
000ab6 96f2      	ADIW R30,50
                +
000ab7 e5a2     +LDI R26 , LOW ( 0x41615252 )
000ab8 e5b2     +LDI R27 , HIGH ( 0x41615252 )
000ab9 e681     +LDI R24 , BYTE3 ( 0x41615252 )
000aba e491     +LDI R25 , BYTE4 ( 0x41615252 )
                 	__GETD2N 0x41615252
000abb 940e 1bb9 	CALL SUBOPT_0x29
000abd 51ec      	SUBI R30,LOW(-484)
000abe 4ffe      	SBCI R31,HIGH(-484)
                +
000abf e7a2     +LDI R26 , LOW ( 0x61417272 )
000ac0 e7b2     +LDI R27 , HIGH ( 0x61417272 )
000ac1 e481     +LDI R24 , BYTE3 ( 0x61417272 )
000ac2 e691     +LDI R25 , BYTE4 ( 0x61417272 )
                 	__GETD2N 0x61417272
000ac3 940e 1bb9 	CALL SUBOPT_0x29
000ac5 51e8      	SUBI R30,LOW(-488)
000ac6 4ffe      	SBCI R31,HIGH(-488)
000ac7 010f      	MOVW R0,R30
000ac8 81a9      	LDD  R26,Y+1
000ac9 81ba      	LDD  R27,Y+1+1
000aca 961e      	ADIW R26,14
000acb 940e 1bbf 	CALL SUBOPT_0x2A
000acd 96f2      	ADIW R30,50
000ace 51e4      	SUBI R30,LOW(-492)
000acf 4ffe      	SBCI R31,HIGH(-492)
000ad0 010f      	MOVW R0,R30
000ad1 81a9      	LDD  R26,Y+1
000ad2 81ba      	LDD  R27,Y+1+1
000ad3 961a      	ADIW R26,10
000ad4 940e 1bbf 	CALL SUBOPT_0x2A
000ad6 81a1      	LDD  R26,Z+1
000ad7 93aa      	ST   -Y,R26
000ad8 81ea      	LDD  R30,Y+2
000ad9 81fb      	LDD  R31,Y+2+1
000ada 96f2      	ADIW R30,50
000adb 93fa      	ST   -Y,R31
000adc 93ea      	ST   -Y,R30
000add 81ec      	LDD  R30,Y+4
000ade 81fd      	LDD  R31,Y+4+1
000adf 940e 1bc7 	CALL SUBOPT_0x2B
000ae1 dc6e      	RCALL _disk_write
000ae2 81a9      	LDD  R26,Y+1
000ae3 81ba      	LDD  R27,Y+1+1
000ae4 9615      	ADIW R26,5
000ae5 e0e0      	LDI  R30,LOW(0)
000ae6 93ec      	ST   X,R30
                 _0x2040015:
000ae7 81e9      	LDD  R30,Y+1
000ae8 81fa      	LDD  R31,Y+1+1
000ae9 81a1      	LDD  R26,Z+1
000aea 93aa      	ST   -Y,R26
000aeb e0e0      	LDI  R30,LOW(0)
000aec 93ea      	ST   -Y,R30
000aed e0a0      	LDI  R26,LOW(0)
000aee e0b0      	LDI  R27,HIGH(0)
000aef dcd7      	RCALL _disk_ioctl
000af0 30e0      	CPI  R30,0
000af1 f009      	BREQ _0x2040018
000af2 e001      	LDI  R16,LOW(1)
                 _0x2040018:
                 _0x2040014:
000af3 2fe0      	MOV  R30,R16
                 _0x20E0014:
000af4 8108      	LDD  R16,Y+0
000af5 9623      	ADIW R28,3
000af6 9508      	RET
                 ; .FEND
                 _get_fat:
                 ; .FSTART _get_fat
000af7 940e 21dc 	CALL __PUTPARD2
000af9 9724      	SBIW R28,4
000afa 940e 2204 	CALL __SAVELOCR4
000afc 940e 1bcf 	CALL SUBOPT_0x2C
000afe 940e 1bd4 	CALL SUBOPT_0x2D
000b00 f050      	BRLO _0x204001A
000b01 85ac      	LDD  R26,Y+12
000b02 85bd      	LDD  R27,Y+12+1
000b03 965e      	ADIW R26,30
000b04 940e 21aa 	CALL __GETD1P
000b06 940e 1bcf 	CALL SUBOPT_0x2C
000b08 940e 21fd 	CALL __CPD21
000b0a f018      	BRLO _0x2040019
                 _0x204001A:
000b0b 940e 1bdc 	CALL SUBOPT_0x2E
000b0d c060      	RJMP _0x20E0013
                 _0x2040019:
000b0e 85ac      	LDD  R26,Y+12
000b0f 85bd      	LDD  R27,Y+12+1
000b10 9692      	ADIW R26,34
000b11 940e 1be1 	CALL SUBOPT_0x2F
000b13 85ac      	LDD  R26,Y+12
000b14 85bd      	LDD  R27,Y+12+1
000b15 91ec      	LD   R30,X
000b16 e0f0      	LDI  R31,0
000b17 30e1      	CPI  R30,LOW(0x1)
000b18 e0a0      	LDI  R26,HIGH(0x1)
000b19 07fa      	CPC  R31,R26
000b1a f539      	BRNE _0x204001F
                +
000b1b 8528     +LDD R18 , Y + 8
000b1c 8539     +LDD R19 , Y + 8 + 1
                 	__GETWRS 18,19,8
000b1d 01f9      	MOVW R30,R18
000b1e 95f6      	LSR  R31
000b1f 95e7      	ROR  R30
                +
000b20 0f2e     +ADD R18 , R30
000b21 1f3f     +ADC R19 , R31
                 	__ADDWRR 18,19,30,31
000b22 940e 1be8 	CALL SUBOPT_0x30
000b24 f009      	BREQ _0x2040020
000b25 c046      	RJMP _0x204001E
                 _0x2040020:
000b26 940e 1bfd 	CALL SUBOPT_0x31
000b28 910c      	LD   R16,X
000b29 2711      	CLR  R17
                +
000b2a 5f2f     +SUBI R18 , LOW ( - 1 )
000b2b 4f3f     +SBCI R19 , HIGH ( - 1 )
                 	__ADDWRN 18,19,1
000b2c 940e 1be8 	CALL SUBOPT_0x30
000b2e f5e9      	BRNE _0x204001E
000b2f 940e 1bfd 	CALL SUBOPT_0x31
000b31 91ec      	LD   R30,X
000b32 2ffe      	MOV  R31,R30
000b33 e0e0      	LDI  R30,0
                +
000b34 2b0e     +OR R16 , R30
000b35 2b1f     +OR R17 , R31
                 	__ORWRR 16,17,30,31
000b36 85e8      	LDD  R30,Y+8
000b37 70e1      	ANDI R30,LOW(0x1)
000b38 f021      	BREQ _0x2040022
000b39 01f8      	MOVW R30,R16
000b3a 940e 2113 	CALL __LSRW4
000b3c c002      	RJMP _0x204027A
                 _0x2040022:
000b3d 01f8      	MOVW R30,R16
000b3e 70ff      	ANDI R31,HIGH(0xFFF)
                 _0x204027A:
000b3f 2766      	CLR  R22
000b40 2777      	CLR  R23
000b41 c02c      	RJMP _0x20E0013
                 _0x204001F:
000b42 30e2      	CPI  R30,LOW(0x2)
000b43 e0a0      	LDI  R26,HIGH(0x2)
000b44 07fa      	CPC  R31,R26
000b45 f479      	BRNE _0x2040025
000b46 940e 1c05 	CALL SUBOPT_0x32
000b48 940e 1c0e 	CALL SUBOPT_0x33
000b4a 940e 1c15 	CALL SUBOPT_0x34
000b4c f4f9      	BRNE _0x204001E
000b4d 85a8      	LDD  R26,Y+8
000b4e 85b9      	LDD  R27,Y+8+1
000b4f e0e2      	LDI  R30,LOW(2)
000b50 940e 1c1f 	CALL SUBOPT_0x35
000b52 940e 1c28 	CALL SUBOPT_0x36
000b54 c019      	RJMP _0x20E0013
                 _0x2040025:
000b55 30e3      	CPI  R30,LOW(0x3)
000b56 e0a0      	LDI  R26,HIGH(0x3)
000b57 07fa      	CPC  R31,R26
000b58 f499      	BRNE _0x204001E
000b59 940e 1c05 	CALL SUBOPT_0x32
000b5b 940e 1c2d 	CALL SUBOPT_0x37
000b5d 940e 1c15 	CALL SUBOPT_0x34
000b5f f461      	BRNE _0x204001E
000b60 85a8      	LDD  R26,Y+8
000b61 85b9      	LDD  R27,Y+8+1
000b62 e0e4      	LDI  R30,LOW(4)
000b63 940e 1c1f 	CALL SUBOPT_0x35
000b65 940e 21aa 	CALL __GETD1P
                +
000b67 7fef     +ANDI R30 , LOW ( 0xFFFFFFF )
000b68 7fff     +ANDI R31 , HIGH ( 0xFFFFFFF )
000b69 7f6f     +ANDI R22 , BYTE3 ( 0xFFFFFFF )
000b6a 707f     +ANDI R23 , BYTE4 ( 0xFFFFFFF )
                 	__ANDD1N 0xFFFFFFF
000b6b c002      	RJMP _0x20E0013
                 _0x204001E:
000b6c 940e 1c34 	CALL SUBOPT_0x38
                 _0x20E0013:
000b6e 940e 220b 	CALL __LOADLOCR4
000b70 962e      	ADIW R28,14
000b71 9508      	RET
                 ; .FEND
                 _put_fat:
                 ; .FSTART _put_fat
000b72 940e 21dc 	CALL __PUTPARD2
000b74 9724      	SBIW R28,4
000b75 940e 2203 	CALL __SAVELOCR5
000b77 940e 1c39 	CALL SUBOPT_0x39
000b79 940e 1bd4 	CALL SUBOPT_0x2D
000b7b f030      	BRLO _0x204002A
000b7c 89a9      	LDD  R26,Y+17
000b7d 89ba      	LDD  R27,Y+17+1
000b7e 965e      	ADIW R26,30
000b7f 940e 1c3e 	CALL SUBOPT_0x3A
000b81 f010      	BRLO _0x2040029
                 _0x204002A:
000b82 e042      	LDI  R20,LOW(2)
000b83 c083      	RJMP _0x204002C
                 _0x2040029:
000b84 89a9      	LDD  R26,Y+17
000b85 89ba      	LDD  R27,Y+17+1
000b86 9692      	ADIW R26,34
000b87 940e 21aa 	CALL __GETD1P
000b89 940e 1c44 	CALL SUBOPT_0x3B
000b8b 89a9      	LDD  R26,Y+17
000b8c 89ba      	LDD  R27,Y+17+1
000b8d 91ec      	LD   R30,X
000b8e e0f0      	LDI  R31,0
000b8f 30e1      	CPI  R30,LOW(0x1)
000b90 e0a0      	LDI  R26,HIGH(0x1)
000b91 07fa      	CPC  R31,R26
000b92 f009      	BREQ PC+2
000b93 c043      	RJMP _0x2040030
                +
000b94 850d     +LDD R16 , Y + 13
000b95 851e     +LDD R17 , Y + 13 + 1
                 	__GETWRS 16,17,13
000b96 01f8      	MOVW R30,R16
000b97 95f6      	LSR  R31
000b98 95e7      	ROR  R30
                +
000b99 0f0e     +ADD R16 , R30
000b9a 1f1f     +ADC R17 , R31
                 	__ADDWRR 16,17,30,31
000b9b 940e 1c49 	CALL SUBOPT_0x3C
000b9d f009      	BREQ _0x2040031
000b9e c063      	RJMP _0x204002F
                 _0x2040031:
000b9f 940e 1c5f 	CALL SUBOPT_0x3D
000ba1 f051      	BREQ _0x2040032
000ba2 01d9      	MOVW R26,R18
000ba3 91ec      	LD   R30,X
000ba4 70ef      	ANDI R30,LOW(0xF)
000ba5 2fae      	MOV  R26,R30
000ba6 85e9      	LDD  R30,Y+9
000ba7 e0f0      	LDI  R31,0
000ba8 940e 210a 	CALL __LSLW4
000baa 2bea      	OR   R30,R26
000bab c001      	RJMP _0x2040033
                 _0x2040032:
000bac 85e9      	LDD  R30,Y+9
                 _0x2040033:
000bad 01d9      	MOVW R26,R18
000bae 93ec      	ST   X,R30
                +
000baf 5f0f     +SUBI R16 , LOW ( - 1 )
000bb0 4f1f     +SBCI R17 , HIGH ( - 1 )
                 	__ADDWRN 16,17,1
000bb1 89a9      	LDD  R26,Y+17
000bb2 89ba      	LDD  R27,Y+17+1
000bb3 9614      	ADIW R26,4
000bb4 e0e1      	LDI  R30,LOW(1)
000bb5 93ec      	ST   X,R30
000bb6 940e 1c49 	CALL SUBOPT_0x3C
000bb8 f009      	BREQ _0x2040035
000bb9 c048      	RJMP _0x204002F
                 _0x2040035:
000bba 940e 1c5f 	CALL SUBOPT_0x3D
000bbc f049      	BREQ _0x2040036
000bbd 940e 1c6a 	CALL SUBOPT_0x3E
000bbf e0e4      	LDI  R30,LOW(4)
000bc0 940e 20fe 	CALL __LSRD12
000bc2 27ff      	CLR  R31
000bc3 2766      	CLR  R22
000bc4 2777      	CLR  R23
000bc5 c00e      	RJMP _0x2040037
                 _0x2040036:
000bc6 01d9      	MOVW R26,R18
000bc7 91ec      	LD   R30,X
000bc8 7fe0      	ANDI R30,LOW(0xF0)
000bc9 2e1e      	MOV  R1,R30
000bca 940e 1c6a 	CALL SUBOPT_0x3E
000bcc e0e8      	LDI  R30,LOW(8)
000bcd 940e 20fe 	CALL __LSRD12
000bcf 27ff      	CLR  R31
000bd0 2766      	CLR  R22
000bd1 2777      	CLR  R23
000bd2 70ef      	ANDI R30,LOW(0xF)
000bd3 29e1      	OR   R30,R1
                 _0x2040037:
000bd4 01d9      	MOVW R26,R18
000bd5 93ec      	ST   X,R30
000bd6 c02b      	RJMP _0x204002F
                 _0x2040030:
000bd7 30e2      	CPI  R30,LOW(0x2)
000bd8 e0a0      	LDI  R26,HIGH(0x2)
000bd9 07fa      	CPC  R31,R26
000bda f489      	BRNE _0x2040039
000bdb 940e 1c6f 	CALL SUBOPT_0x3F
000bdd 940e 1c0e 	CALL SUBOPT_0x33
000bdf 940e 1c78 	CALL SUBOPT_0x40
000be1 f501      	BRNE _0x204002F
000be2 85ad      	LDD  R26,Y+13
000be3 85be      	LDD  R27,Y+13+1
000be4 e0e2      	LDI  R30,LOW(2)
000be5 940e 1c83 	CALL SUBOPT_0x41
000be7 85a9      	LDD  R26,Y+9
000be8 85ba      	LDD  R27,Y+9+1
000be9 83a0      	STD  Z+0,R26
000bea 83b1      	STD  Z+1,R27
000beb c016      	RJMP _0x204002F
                 _0x2040039:
000bec 30e3      	CPI  R30,LOW(0x3)
000bed e0a0      	LDI  R26,HIGH(0x3)
000bee 07fa      	CPC  R31,R26
000bef f489      	BRNE _0x204003D
000bf0 940e 1c6f 	CALL SUBOPT_0x3F
000bf2 940e 1c2d 	CALL SUBOPT_0x37
000bf4 940e 1c78 	CALL SUBOPT_0x40
000bf6 f459      	BRNE _0x204002F
000bf7 85ad      	LDD  R26,Y+13
000bf8 85be      	LDD  R27,Y+13+1
000bf9 e0e4      	LDI  R30,LOW(4)
000bfa 940e 1c83 	CALL SUBOPT_0x41
000bfc 940e 1c6a 	CALL SUBOPT_0x3E
000bfe 940e 21d2 	CALL __PUTDZ20
000c00 c001      	RJMP _0x204002F
                 _0x204003D:
000c01 e042      	LDI  R20,LOW(2)
                 _0x204002F:
000c02 89a9      	LDD  R26,Y+17
000c03 89ba      	LDD  R27,Y+17+1
000c04 9614      	ADIW R26,4
000c05 e0e1      	LDI  R30,LOW(1)
000c06 93ec      	ST   X,R30
                 _0x204002C:
000c07 2fe4      	MOV  R30,R20
000c08 940e 220a 	CALL __LOADLOCR5
000c0a 9663      	ADIW R28,19
000c0b 9508      	RET
                 ; .FEND
                 _remove_chain_G102:
                 ; .FSTART _remove_chain_G102
000c0c 940e 21dc 	CALL __PUTPARD2
000c0e 9724      	SBIW R28,4
000c0f 930a      	ST   -Y,R16
000c10 940e 1c8c 	CALL SUBOPT_0x42
000c12 940e 1bd4 	CALL SUBOPT_0x2D
000c14 f018      	BRLO _0x204003F
000c15 940e 1c91 	CALL SUBOPT_0x43
000c17 f010      	BRLO _0x204003E
                 _0x204003F:
000c18 e002      	LDI  R16,LOW(2)
000c19 c046      	RJMP _0x2040041
                 _0x204003E:
000c1a e000      	LDI  R16,LOW(0)
                 _0x2040042:
000c1b 940e 1c91 	CALL SUBOPT_0x43
000c1d f008      	BRLO PC+2
000c1e c041      	RJMP _0x2040044
000c1f 85e9      	LDD  R30,Y+9
000c20 85fa      	LDD  R31,Y+9+1
000c21 93fa      	ST   -Y,R31
000c22 93ea      	ST   -Y,R30
                +
000c23 81af     +LDD R26 , Y + 7
000c24 85b8     +LDD R27 , Y + 7 + 1
000c25 8589     +LDD R24 , Y + 7 + 2
000c26 859a     +LDD R25 , Y + 7 + 3
                 	__GETD2S 7
000c27 decf      	RCALL _get_fat
                +
000c28 83e9     +STD Y + 1 , R30
000c29 83fa     +STD Y + 1 + 1 , R31
000c2a 836b     +STD Y + 1 + 2 , R22
000c2b 837c     +STD Y + 1 + 3 , R23
                 	__PUTD1S 1
000c2c 940e 1c9a 	CALL SUBOPT_0x44
000c2e 940e 21ee 	CALL __CPD10
000c30 f179      	BREQ _0x2040044
000c31 940e 1b77 	CALL SUBOPT_0x22
000c33 940e 1c9f 	CALL SUBOPT_0x45
000c35 f411      	BRNE _0x2040046
000c36 e002      	LDI  R16,LOW(2)
000c37 c028      	RJMP _0x2040044
                 _0x2040046:
000c38 940e 1b77 	CALL SUBOPT_0x22
000c3a 940e 1ca7 	CALL SUBOPT_0x46
000c3c f411      	BRNE _0x2040047
000c3d e001      	LDI  R16,LOW(1)
000c3e c021      	RJMP _0x2040044
                 _0x2040047:
000c3f 85e9      	LDD  R30,Y+9
000c40 85fa      	LDD  R31,Y+9+1
000c41 93fa      	ST   -Y,R31
000c42 93ea      	ST   -Y,R30
000c43 940e 1caf 	CALL SUBOPT_0x47
000c45 940e 21d7 	CALL __PUTPARD1
000c47 940e 1cb4 	CALL SUBOPT_0x48
000c49 df28      	RCALL _put_fat
000c4a 2f0e      	MOV  R16,R30
000c4b 3000      	CPI  R16,0
000c4c f499      	BRNE _0x2040044
000c4d 85e9      	LDD  R30,Y+9
000c4e 85fa      	LDD  R31,Y+9+1
000c4f 940e 1cb9 	CALL SUBOPT_0x49
000c51 f049      	BREQ _0x2040049
000c52 85a9      	LDD  R26,Y+9
000c53 85ba      	LDD  R27,Y+9+1
000c54 940e 1cbe 	CALL SUBOPT_0x4A
000c56 85a9      	LDD  R26,Y+9
000c57 85ba      	LDD  R27,Y+9+1
000c58 9615      	ADIW R26,5
000c59 e0e1      	LDI  R30,LOW(1)
000c5a 93ec      	ST   X,R30
                 _0x2040049:
000c5b 940e 1c9a 	CALL SUBOPT_0x44
000c5d 940e 1c44 	CALL SUBOPT_0x3B
000c5f cfbb      	RJMP _0x2040042
                 _0x2040044:
                 _0x2040041:
000c60 2fe0      	MOV  R30,R16
                 _0x20E0012:
000c61 8108      	LDD  R16,Y+0
000c62 962b      	ADIW R28,11
000c63 9508      	RET
                 ; .FEND
                 _create_chain_G102:
                 ; .FSTART _create_chain_G102
000c64 940e 21dc 	CALL __PUTPARD2
000c66 9760      	SBIW R28,16
000c67 89ac      	LDD  R26,Y+20
000c68 89bd      	LDD  R27,Y+20+1
000c69 965e      	ADIW R26,30
000c6a 940e 21aa 	CALL __GETD1P
000c6c 940e 1cc8 	CALL SUBOPT_0x4B
000c6e 940e 1ccb 	CALL SUBOPT_0x4C
000c70 940e 21ee 	CALL __CPD10
000c72 f4b1      	BRNE _0x204004A
000c73 89ac      	LDD  R26,Y+20
000c74 89bd      	LDD  R27,Y+20+1
000c75 961a      	ADIW R26,10
000c76 940e 1be1 	CALL SUBOPT_0x2F
000c78 940e 1cd0 	CALL SUBOPT_0x4D
000c7a 940e 21f2 	CALL __CPD02
000c7c f039      	BREQ _0x204004C
000c7d 940e 1cd5 	CALL SUBOPT_0x4E
000c7f 940e 1cd0 	CALL SUBOPT_0x4D
000c81 940e 21fd 	CALL __CPD21
000c83 f020      	BRLO _0x204004B
                 _0x204004C:
000c84 940e 1bdc 	CALL SUBOPT_0x2E
000c86 940e 1cd8 	CALL SUBOPT_0x4F
                 _0x204004B:
000c88 c01e      	RJMP _0x204004E
                 _0x204004A:
000c89 940e 1cdd 	CALL SUBOPT_0x50
                +
000c8b 89aa     +LDD R26 , Y + 18
000c8c 89bb     +LDD R27 , Y + 18 + 1
000c8d 898c     +LDD R24 , Y + 18 + 2
000c8e 899d     +LDD R25 , Y + 18 + 3
                 	__GETD2S 18
000c8f 940e 1ce2 	CALL SUBOPT_0x51
000c91 940e 1ce9 	CALL SUBOPT_0x52
000c93 940e 1bd4 	CALL SUBOPT_0x2D
000c95 f418      	BRSH _0x204004F
000c96 940e 1bdc 	CALL SUBOPT_0x2E
000c98 c090      	RJMP _0x20E0011
                 _0x204004F:
000c99 940e 1cd5 	CALL SUBOPT_0x4E
000c9b 940e 1ce9 	CALL SUBOPT_0x52
000c9d 940e 21fd 	CALL __CPD21
000c9f f418      	BRSH _0x2040050
000ca0 940e 1cee 	CALL SUBOPT_0x53
000ca2 c086      	RJMP _0x20E0011
                 _0x2040050:
000ca3 940e 1ccb 	CALL SUBOPT_0x4C
000ca5 940e 1cd8 	CALL SUBOPT_0x4F
                 _0x204004E:
000ca7 940e 1cf3 	CALL SUBOPT_0x54
000ca9 940e 1cf8 	CALL SUBOPT_0x55
                 _0x2040052:
000cab 940e 1cfd 	CALL SUBOPT_0x56
                +
000cad 5fef     +SUBI R30 , LOW ( - 1 )
000cae 4fff     +SBCI R31 , HIGH ( - 1 )
000caf 4f6f     +SBCI R22 , BYTE3 ( - 1 )
000cb0 4f7f     +SBCI R23 , BYTE4 ( - 1 )
                 	__SUBD1N -1
000cb1 940e 1cf8 	CALL SUBOPT_0x55
000cb3 940e 1cd5 	CALL SUBOPT_0x4E
000cb5 940e 1bcf 	CALL SUBOPT_0x2C
000cb7 940e 21fd 	CALL __CPD21
000cb9 f060      	BRLO _0x2040054
                +
000cba e0e2     +LDI R30 , LOW ( 0x2 )
000cbb e0f0     +LDI R31 , HIGH ( 0x2 )
000cbc e060     +LDI R22 , BYTE3 ( 0x2 )
000cbd e070     +LDI R23 , BYTE4 ( 0x2 )
                 	__GETD1N 0x2
000cbe 940e 1cf8 	CALL SUBOPT_0x55
000cc0 940e 1d02 	CALL SUBOPT_0x57
000cc2 f418      	BRSH _0x2040055
000cc3 940e 1d07 	CALL SUBOPT_0x58
000cc5 c063      	RJMP _0x20E0011
                 _0x2040055:
                 _0x2040054:
000cc6 940e 1cdd 	CALL SUBOPT_0x50
                +
000cc8 85aa     +LDD R26 , Y + 10
000cc9 85bb     +LDD R27 , Y + 10 + 1
000cca 858c     +LDD R24 , Y + 10 + 2
000ccb 859d     +LDD R25 , Y + 10 + 3
                 	__GETD2S 10
000ccc 940e 1ce2 	CALL SUBOPT_0x51
000cce 940e 1cee 	CALL SUBOPT_0x53
000cd0 940e 21ee 	CALL __CPD10
000cd2 f0a1      	BREQ _0x2040053
000cd3 940e 1ce9 	CALL SUBOPT_0x52
000cd5 940e 1ca7 	CALL SUBOPT_0x46
000cd7 f029      	BREQ _0x2040058
000cd8 940e 1ce9 	CALL SUBOPT_0x52
000cda 940e 1c9f 	CALL SUBOPT_0x45
000cdc f419      	BRNE _0x2040057
                 _0x2040058:
000cdd 940e 1cee 	CALL SUBOPT_0x53
000cdf c049      	RJMP _0x20E0011
                 _0x2040057:
000ce0 940e 1d02 	CALL SUBOPT_0x57
000ce2 f419      	BRNE _0x204005A
000ce3 940e 1d07 	CALL SUBOPT_0x58
000ce5 c043      	RJMP _0x20E0011
                 _0x204005A:
000ce6 cfc4      	RJMP _0x2040052
                 _0x2040053:
000ce7 940e 1cdd 	CALL SUBOPT_0x50
000ce9 940e 1d0c 	CALL SUBOPT_0x59
                +
000ceb efaf     +LDI R26 , LOW ( 0xFFFFFFF )
000cec efbf     +LDI R27 , HIGH ( 0xFFFFFFF )
000ced ef8f     +LDI R24 , BYTE3 ( 0xFFFFFFF )
000cee e09f     +LDI R25 , BYTE4 ( 0xFFFFFFF )
                 	__GETD2N 0xFFFFFFF
000cef de82      	RCALL _put_fat
000cf0 30e0      	CPI  R30,0
000cf1 f019      	BREQ _0x204005B
000cf2 940e 1c34 	CALL SUBOPT_0x38
000cf4 c034      	RJMP _0x20E0011
                 _0x204005B:
000cf5 940e 1ccb 	CALL SUBOPT_0x4C
000cf7 940e 21ee 	CALL __CPD10
000cf9 f091      	BREQ _0x204005C
000cfa 940e 1cdd 	CALL SUBOPT_0x50
                +
000cfc 89ea     +LDD R30 , Y + 18
000cfd 89fb     +LDD R31 , Y + 18 + 1
000cfe 896c     +LDD R22 , Y + 18 + 2
000cff 897d     +LDD R23 , Y + 18 + 3
                 	__GETD1S 18
000d00 940e 21d7 	CALL __PUTPARD1
                +
000d02 85ae     +LDD R26 , Y + 14
000d03 85bf     +LDD R27 , Y + 14 + 1
000d04 8988     +LDD R24 , Y + 14 + 2
000d05 8999     +LDD R25 , Y + 14 + 3
                 	__GETD2S 14
000d06 de6b      	RCALL _put_fat
000d07 30e0      	CPI  R30,0
000d08 f019      	BREQ _0x204005D
000d09 940e 1c34 	CALL SUBOPT_0x38
000d0b c01d      	RJMP _0x20E0011
                 _0x204005D:
                 _0x204005C:
000d0c 940e 1cfd 	CALL SUBOPT_0x56
                +
000d0e 89ac     +LDD R26 , Y + 20
000d0f 89bd     +LDD R27 , Y + 20 + 1
000d10 961a     +ADIW R26 , 10
000d11 940e 21b5+CALL __PUTDP1
                 	__PUTD1SNS 20,10
000d13 89ec      	LDD  R30,Y+20
000d14 89fd      	LDD  R31,Y+20+1
000d15 940e 1cb9 	CALL SUBOPT_0x49
000d17 f079      	BREQ _0x204005E
000d18 89ac      	LDD  R26,Y+20
000d19 89bd      	LDD  R27,Y+20+1
000d1a 961e      	ADIW R26,14
000d1b 940e 21b0 	CALL __GETD1P_INC
000d1d 9731      	SBIW R30,1
000d1e 4060      	SBCI R22,0
000d1f 4070      	SBCI R23,0
000d20 940e 21ba 	CALL __PUTDP1_DEC
000d22 89ac      	LDD  R26,Y+20
000d23 89bd      	LDD  R27,Y+20+1
000d24 9615      	ADIW R26,5
000d25 e0e1      	LDI  R30,LOW(1)
000d26 93ec      	ST   X,R30
                 _0x204005E:
000d27 940e 1cfd 	CALL SUBOPT_0x56
                 _0x20E0011:
000d29 9666      	ADIW R28,22
000d2a 9508      	RET
                 ; .FEND
                 _clust2sect:
                 ; .FSTART _clust2sect
000d2b 940e 21dc 	CALL __PUTPARD2
000d2d 940e 1cd5 	CALL SUBOPT_0x4E
                +
000d2f 50e2     +SUBI R30 , LOW ( 2 )
000d30 40f0     +SBCI R31 , HIGH ( 2 )
000d31 4060     +SBCI R22 , BYTE3 ( 2 )
000d32 4070     +SBCI R23 , BYTE4 ( 2 )
                 	__SUBD1N 2
000d33 940e 1cc8 	CALL SUBOPT_0x4B
000d35 81ec      	LDD  R30,Y+4
000d36 81fd      	LDD  R31,Y+4+1
                +
000d37 8da6     +LDD R26 , Z + 30
000d38 8db7     +LDD R27 , Z + 30 + 1
000d39 a180     +LDD R24 , Z + 30 + 2
000d3a a191     +LDD R25 , Z + 30 + 3
                 	__GETD2Z 30
                +
000d3b e0e2     +LDI R30 , LOW ( 0x2 )
000d3c e0f0     +LDI R31 , HIGH ( 0x2 )
000d3d e060     +LDI R22 , BYTE3 ( 0x2 )
000d3e e070     +LDI R23 , BYTE4 ( 0x2 )
                 	__GETD1N 0x2
000d3f 940e 1d13 	CALL SUBOPT_0x5A
000d41 940e 21c8 	CALL __GETD2S0
000d43 940e 21fd 	CALL __CPD21
000d45 f018      	BRLO _0x204005F
000d46 940e 1d07 	CALL SUBOPT_0x58
000d48 c370      	RJMP _0x20E000C
                 _0x204005F:
000d49 81ec      	LDD  R30,Y+4
000d4a 81fd      	LDD  R31,Y+4+1
000d4b 81e2      	LDD  R30,Z+2
000d4c e0f0      	LDI  R31,0
000d4d 940e 21c8 	CALL __GETD2S0
000d4f 940e 212b 	CALL __CWD1
000d51 940e 2135 	CALL __MULD12U
000d53 937f      	PUSH R23
000d54 936f      	PUSH R22
000d55 93ff      	PUSH R31
000d56 93ef      	PUSH R30
000d57 81ac      	LDD  R26,Y+4
000d58 81bd      	LDD  R27,Y+4+1
000d59 969a      	ADIW R26,42
000d5a 940e 21aa 	CALL __GETD1P
000d5c 91af      	POP  R26
000d5d 91bf      	POP  R27
000d5e 918f      	POP  R24
000d5f 919f      	POP  R25
000d60 940e 20c8 	CALL __ADDD12
000d62 c356      	RJMP _0x20E000C
                 ; .FEND
                 _dir_seek_G102:
                 ; .FSTART _dir_seek_G102
000d63 93ba      	ST   -Y,R27
000d64 93aa      	ST   -Y,R26
000d65 9724      	SBIW R28,4
000d66 931a      	ST   -Y,R17
000d67 930a      	ST   -Y,R16
000d68 81ee      	LDD  R30,Y+6
000d69 81ff      	LDD  R31,Y+6+1
000d6a 940e 1d18 	CALL SUBOPT_0x5B
000d6c 9616      	ADIW R26,6
000d6d 940e 1d20 	CALL SUBOPT_0x5C
000d6f 940e 1d27 	CALL SUBOPT_0x5D
000d71 940e 1c9f 	CALL SUBOPT_0x45
000d73 f029      	BREQ _0x2040061
000d74 940e 1d2c 	CALL SUBOPT_0x5E
000d76 940e 1d31 	CALL SUBOPT_0x5F
000d78 f020      	BRLO _0x2040060
                 _0x2040061:
000d79 e0e2      	LDI  R30,LOW(2)
000d7a 8119      	LDD  R17,Y+1
000d7b 8108      	LDD  R16,Y+0
000d7c c15f      	RJMP _0x20E0010
                 _0x2040060:
000d7d 940e 1d39 	CALL SUBOPT_0x60
000d7f f429      	BRNE _0x2040064
000d80 940e 1d2c 	CALL SUBOPT_0x5E
000d82 81a0      	LD   R26,Z
000d83 30a3      	CPI  R26,LOW(0x3)
000d84 f009      	BREQ _0x2040065
                 _0x2040064:
000d85 c006      	RJMP _0x2040063
                 _0x2040065:
000d86 940e 1d2c 	CALL SUBOPT_0x5E
000d88 96b6      	ADIW R30,38
000d89 01df      	MOVW R26,R30
000d8a 940e 1d20 	CALL SUBOPT_0x5C
                 _0x2040063:
000d8c 940e 1d39 	CALL SUBOPT_0x60
000d8e f4b1      	BRNE _0x2040066
000d8f 940e 1d40 	CALL SUBOPT_0x61
000d91 9638      	ADIW R30,8
000d92 01df      	MOVW R26,R30
000d93 940e 21a6 	CALL __GETW1P
000d95 81ae      	LDD  R26,Y+6
000d96 81bf      	LDD  R27,Y+6+1
000d97 17ae      	CP   R26,R30
000d98 07bf      	CPC  R27,R31
000d99 f020      	BRLO _0x2040067
000d9a e0e2      	LDI  R30,LOW(2)
000d9b 8119      	LDD  R17,Y+1
000d9c 8108      	LDD  R16,Y+0
000d9d c13e      	RJMP _0x20E0010
                 _0x2040067:
000d9e 940e 1d2c 	CALL SUBOPT_0x5E
000da0 96b6      	ADIW R30,38
000da1 01df      	MOVW R26,R30
000da2 940e 21aa 	CALL __GETD1P
000da4 c03b      	RJMP _0x204027B
                 _0x2040066:
000da5 940e 1d2c 	CALL SUBOPT_0x5E
000da7 81e2      	LDD  R30,Z+2
000da8 e1a0      	LDI  R26,LOW(16)
000da9 9fea      	MUL  R30,R26
000daa 0180      	MOVW R16,R0
                 _0x2040069:
000dab 81ae      	LDD  R26,Y+6
000dac 81bf      	LDD  R27,Y+6+1
000dad 17a0      	CP   R26,R16
000dae 07b1      	CPC  R27,R17
000daf f148      	BRLO _0x204006B
000db0 940e 1d2c 	CALL SUBOPT_0x5E
000db2 93fa      	ST   -Y,R31
000db3 93ea      	ST   -Y,R30
000db4 940e 1cd0 	CALL SUBOPT_0x4D
000db6 dd40      	RCALL _get_fat
                +
000db7 83ea     +STD Y + 2 , R30
000db8 83fb     +STD Y + 2 + 1 , R31
000db9 836c     +STD Y + 2 + 2 , R22
000dba 837d     +STD Y + 2 + 3 , R23
                 	__PUTD1S 2
000dbb 940e 1d27 	CALL SUBOPT_0x5D
000dbd 940e 1ca7 	CALL SUBOPT_0x46
000dbf f421      	BRNE _0x204006C
000dc0 e0e1      	LDI  R30,LOW(1)
000dc1 8119      	LDD  R17,Y+1
000dc2 8108      	LDD  R16,Y+0
000dc3 c118      	RJMP _0x20E0010
                 _0x204006C:
000dc4 940e 1d27 	CALL SUBOPT_0x5D
000dc6 940e 1bd4 	CALL SUBOPT_0x2D
000dc8 f028      	BRLO _0x204006E
000dc9 940e 1d2c 	CALL SUBOPT_0x5E
000dcb 940e 1d31 	CALL SUBOPT_0x5F
000dcd f020      	BRLO _0x204006D
                 _0x204006E:
000dce e0e2      	LDI  R30,LOW(2)
000dcf 8119      	LDD  R17,Y+1
000dd0 8108      	LDD  R16,Y+0
000dd1 c10a      	RJMP _0x20E0010
                 _0x204006D:
000dd2 81ee      	LDD  R30,Y+6
000dd3 81ff      	LDD  R31,Y+6+1
000dd4 1be0      	SUB  R30,R16
000dd5 0bf1      	SBC  R31,R17
000dd6 83ee      	STD  Y+6,R30
000dd7 83ff      	STD  Y+6+1,R31
000dd8 cfd2      	RJMP _0x2040069
                 _0x204006B:
000dd9 940e 1d40 	CALL SUBOPT_0x61
000ddb 93fa      	ST   -Y,R31
000ddc 93ea      	ST   -Y,R30
000ddd 940e 1cd0 	CALL SUBOPT_0x4D
000ddf df4b      	RCALL _clust2sect
                 _0x204027B:
000de0 01df      	MOVW R26,R30
000de1 01cb      	MOVW R24,R22
000de2 81ee      	LDD  R30,Y+6
000de3 81ff      	LDD  R31,Y+6+1
000de4 940e 2113 	CALL __LSRW4
000de6 940e 1d4a 	CALL SUBOPT_0x62
000de8 940e 1d4f 	CALL SUBOPT_0x63
000dea 940e 1d2c 	CALL SUBOPT_0x5E
000dec 96f2      	ADIW R30,50
000ded 01df      	MOVW R26,R30
000dee 81ee      	LDD  R30,Y+6
000def 81ff      	LDD  R31,Y+6+1
000df0 940e 1d55 	CALL SUBOPT_0x64
000df2 8119      	LDD  R17,Y+1
000df3 8108      	LDD  R16,Y+0
000df4 c0e7      	RJMP _0x20E0010
                 ; .FEND
                 _dir_next_G102:
                 ; .FSTART _dir_next_G102
000df5 93aa      	ST   -Y,R26
000df6 9724      	SBIW R28,4
000df7 940e 2205 	CALL __SAVELOCR3
000df9 85a8      	LDD  R26,Y+8
000dfa 85b9      	LDD  R27,Y+8+1
000dfb 9614      	ADIW R26,4
000dfc 940e 21a6 	CALL __GETW1P
000dfe 9631      	ADIW R30,1
000dff 018f      	MOVW R16,R30
000e00 2e00      	MOV  R0,R16
000e01 2a01      	OR   R0,R17
000e02 f031      	BREQ _0x2040071
000e03 85a8      	LDD  R26,Y+8
000e04 85b9      	LDD  R27,Y+8+1
000e05 961e      	ADIW R26,14
000e06 940e 1d63 	CALL SUBOPT_0x65
000e08 f411      	BRNE _0x2040070
                 _0x2040071:
000e09 e0e4      	LDI  R30,LOW(4)
000e0a c0cf      	RJMP _0x20E000F
                 _0x2040070:
000e0b 01f8      	MOVW R30,R16
000e0c 70ef      	ANDI R30,LOW(0xF)
000e0d f009      	BREQ PC+2
000e0e c0c1      	RJMP _0x2040073
000e0f 85a8      	LDD  R26,Y+8
000e10 85b9      	LDD  R27,Y+8+1
000e11 940e 1cbe 	CALL SUBOPT_0x4A
000e13 85a8      	LDD  R26,Y+8
000e14 85b9      	LDD  R27,Y+8+1
000e15 961a      	ADIW R26,10
000e16 940e 1d63 	CALL SUBOPT_0x65
000e18 f461      	BRNE _0x2040074
000e19 940e 1d2c 	CALL SUBOPT_0x5E
000e1b 9638      	ADIW R30,8
000e1c 01df      	MOVW R26,R30
000e1d 940e 21a6 	CALL __GETW1P
000e1f 170e      	CP   R16,R30
000e20 071f      	CPC  R17,R31
000e21 f010      	BRLO _0x2040075
000e22 e0e4      	LDI  R30,LOW(4)
000e23 c0b6      	RJMP _0x20E000F
                 _0x2040075:
000e24 c0ab      	RJMP _0x2040076
                 _0x2040074:
000e25 01f8      	MOVW R30,R16
000e26 940e 2113 	CALL __LSRW4
000e28 010f      	MOVW R0,R30
000e29 940e 1d2c 	CALL SUBOPT_0x5E
000e2b 81e2      	LDD  R30,Z+2
000e2c e0f0      	LDI  R31,0
000e2d 9731      	SBIW R30,1
000e2e 21e0      	AND  R30,R0
000e2f 21f1      	AND  R31,R1
000e30 9730      	SBIW R30,0
000e31 f009      	BREQ PC+2
000e32 c09d      	RJMP _0x2040077
000e33 940e 1d2c 	CALL SUBOPT_0x5E
000e35 940e 1d68 	CALL SUBOPT_0x66
000e37 dcbf      	RCALL _get_fat
000e38 940e 1d71 	CALL SUBOPT_0x67
000e3a 940e 1d76 	CALL SUBOPT_0x68
000e3c 940e 1bd4 	CALL SUBOPT_0x2D
000e3e f410      	BRSH _0x2040078
000e3f e0e2      	LDI  R30,LOW(2)
000e40 c099      	RJMP _0x20E000F
                 _0x2040078:
000e41 940e 1d76 	CALL SUBOPT_0x68
000e43 940e 1ca7 	CALL SUBOPT_0x46
000e45 f411      	BRNE _0x2040079
000e46 e0e1      	LDI  R30,LOW(1)
000e47 c092      	RJMP _0x20E000F
                 _0x2040079:
000e48 940e 1d2c 	CALL SUBOPT_0x5E
000e4a 967e      	ADIW R30,30
000e4b 01df      	MOVW R26,R30
000e4c 940e 21aa 	CALL __GETD1P
000e4e 940e 1d76 	CALL SUBOPT_0x68
000e50 940e 21fd 	CALL __CPD21
000e52 f408      	BRSH PC+2
000e53 c06d      	RJMP _0x204007A
000e54 81ef      	LDD  R30,Y+7
000e55 30e0      	CPI  R30,0
000e56 f411      	BRNE _0x204007B
000e57 e0e4      	LDI  R30,LOW(4)
000e58 c081      	RJMP _0x20E000F
                 _0x204007B:
000e59 940e 1d2c 	CALL SUBOPT_0x5E
000e5b 940e 1d68 	CALL SUBOPT_0x66
000e5d de06      	RCALL _create_chain_G102
000e5e 940e 1d7b 	CALL SUBOPT_0x69
000e60 940e 21ee 	CALL __CPD10
000e62 f411      	BRNE _0x204007C
000e63 e0e7      	LDI  R30,LOW(7)
000e64 c075      	RJMP _0x20E000F
                 _0x204007C:
000e65 940e 1d76 	CALL SUBOPT_0x68
000e67 940e 1c9f 	CALL SUBOPT_0x45
000e69 f411      	BRNE _0x204007D
000e6a e0e2      	LDI  R30,LOW(2)
000e6b c06e      	RJMP _0x20E000F
                 _0x204007D:
000e6c 940e 1d76 	CALL SUBOPT_0x68
000e6e 940e 1ca7 	CALL SUBOPT_0x46
000e70 f411      	BRNE _0x204007E
000e71 e0e1      	LDI  R30,LOW(1)
000e72 c067      	RJMP _0x20E000F
                 _0x204007E:
000e73 940e 1d2c 	CALL SUBOPT_0x5E
000e75 940e 1ba0 	CALL SUBOPT_0x26
000e77 30e0      	CPI  R30,0
000e78 f011      	BREQ _0x204007F
000e79 e0e1      	LDI  R30,LOW(1)
000e7a c05f      	RJMP _0x20E000F
                 _0x204007F:
000e7b 940e 1d2c 	CALL SUBOPT_0x5E
000e7d 940e 1bb0 	CALL SUBOPT_0x28
000e7f 940e 1d2c 	CALL SUBOPT_0x5E
000e81 01df      	MOVW R26,R30
000e82 96be      	ADIW R30,46
000e83 93ff      	PUSH R31
000e84 93ef      	PUSH R30
000e85 01fd      	MOVW R30,R26
000e86 940e 1d81 	CALL SUBOPT_0x6A
000e88 91af      	POP  R26
000e89 91bf      	POP  R27
000e8a 940e 21b5 	CALL __PUTDP1
000e8c e020      	LDI  R18,LOW(0)
                 _0x2040081:
000e8d 940e 1d2c 	CALL SUBOPT_0x5E
000e8f 81e2      	LDD  R30,Z+2
000e90 172e      	CP   R18,R30
000e91 f4d8      	BRSH _0x2040082
000e92 940e 1d2c 	CALL SUBOPT_0x5E
000e94 9634      	ADIW R30,4
000e95 e0a1      	LDI  R26,LOW(1)
000e96 83a0      	STD  Z+0,R26
000e97 940e 1d2c 	CALL SUBOPT_0x5E
000e99 940e 1ba0 	CALL SUBOPT_0x26
000e9b 30e0      	CPI  R30,0
000e9c f011      	BREQ _0x2040083
000e9d e0e1      	LDI  R30,LOW(1)
000e9e c03b      	RJMP _0x20E000F
                 _0x2040083:
000e9f 940e 1d2c 	CALL SUBOPT_0x5E
000ea1 96be      	ADIW R30,46
000ea2 01df      	MOVW R26,R30
000ea3 940e 21b0 	CALL __GETD1P_INC
                +
000ea5 5fef     +SUBI R30 , LOW ( - 1 )
000ea6 4fff     +SBCI R31 , HIGH ( - 1 )
000ea7 4f6f     +SBCI R22 , BYTE3 ( - 1 )
000ea8 4f7f     +SBCI R23 , BYTE4 ( - 1 )
                 	__SUBD1N -1
000ea9 940e 21ba 	CALL __PUTDP1_DEC
000eab 5f2f      	SUBI R18,-1
000eac cfe0      	RJMP _0x2040081
                 _0x2040082:
000ead 940e 1d2c 	CALL SUBOPT_0x5E
000eaf 96be      	ADIW R30,46
000eb0 93ff      	PUSH R31
000eb1 93ef      	PUSH R30
000eb2 01df      	MOVW R26,R30
000eb3 940e 21aa 	CALL __GETD1P
000eb5 01df      	MOVW R26,R30
000eb6 01cb      	MOVW R24,R22
000eb7 2fe2      	MOV  R30,R18
000eb8 e0f0      	LDI  R31,0
000eb9 940e 212b 	CALL __CWD1
000ebb 940e 1d13 	CALL SUBOPT_0x5A
000ebd 91af      	POP  R26
000ebe 91bf      	POP  R27
000ebf 940e 21b5 	CALL __PUTDP1
                 _0x204007A:
                +
000ec1 81eb     +LDD R30 , Y + 3
000ec2 81fc     +LDD R31 , Y + 3 + 1
000ec3 816d     +LDD R22 , Y + 3 + 2
000ec4 817e     +LDD R23 , Y + 3 + 3
                 	__GETD1S 3
                +
000ec5 85a8     +LDD R26 , Y + 8
000ec6 85b9     +LDD R27 , Y + 8 + 1
000ec7 961a     +ADIW R26 , 10
000ec8 940e 21b5+CALL __PUTDP1
                 	__PUTD1SNS 8,10
000eca 940e 1d2c 	CALL SUBOPT_0x5E
000ecc 940e 1d81 	CALL SUBOPT_0x6A
000ece 940e 1d4f 	CALL SUBOPT_0x63
                 _0x2040077:
                 _0x2040076:
                 _0x2040073:
000ed0 01f8      	MOVW R30,R16
000ed1 940e 1d18 	CALL SUBOPT_0x5B
000ed3 940e 21a6 	CALL __GETW1P
000ed5 96f2      	ADIW R30,50
000ed6 01df      	MOVW R26,R30
000ed7 01f8      	MOVW R30,R16
000ed8 940e 1d55 	CALL SUBOPT_0x64
                 _0x20E000F:
000eda 940e 220c 	CALL __LOADLOCR3
                 _0x20E0010:
000edc 962a      	ADIW R28,10
000edd 9508      	RET
                 ; .FEND
                 _dir_find_G102:
                 ; .FSTART _dir_find_G102
000ede 940e 1d86 	CALL SUBOPT_0x6B
000ee0 f021      	BREQ _0x2040084
000ee1 2fe0      	MOV  R30,R16
000ee2 940e 220b 	CALL __LOADLOCR4
000ee4 c1d4      	RJMP _0x20E000C
                 _0x2040084:
                 _0x2040086:
000ee5 940e 1d95 	CALL SUBOPT_0x6C
000ee7 f501      	BRNE _0x2040087
000ee8 81ac      	LDD  R26,Y+4
000ee9 81bd      	LDD  R27,Y+4+1
000eea 9652      	ADIW R26,18
000eeb 912d      	LD   R18,X+
000eec 913c      	LD   R19,X
000eed 01d9      	MOVW R26,R18
000eee 911c      	LD   R17,X
000eef 3010      	CPI  R17,0
000ef0 f411      	BRNE _0x2040089
000ef1 e004      	LDI  R16,LOW(4)
000ef2 c015      	RJMP _0x2040087
                 _0x2040089:
000ef3 01f9      	MOVW R30,R18
000ef4 85e3      	LDD  R30,Z+11
000ef5 70e8      	ANDI R30,LOW(0x8)
000ef6 f431      	BRNE _0x204008B
000ef7 940e 1da6 	CALL SUBOPT_0x6D
000ef9 940e 19f1 	CALL _memcmp
000efb 30e0      	CPI  R30,0
000efc f009      	BREQ _0x204008C
                 _0x204008B:
000efd c001      	RJMP _0x204008A
                 _0x204008C:
000efe c009      	RJMP _0x2040087
                 _0x204008A:
000eff 81ec      	LDD  R30,Y+4
000f00 81fd      	LDD  R31,Y+4+1
000f01 93fa      	ST   -Y,R31
000f02 93ea      	ST   -Y,R30
000f03 e0a0      	LDI  R26,LOW(0)
000f04 def0      	RCALL _dir_next_G102
000f05 2f0e      	MOV  R16,R30
000f06 3000      	CPI  R16,0
000f07 f2e9      	BREQ _0x2040086
                 _0x2040087:
000f08 2fe0      	MOV  R30,R16
000f09 940e 220b 	CALL __LOADLOCR4
000f0b c1ad      	RJMP _0x20E000C
                 ; .FEND
                 _dir_register_G102:
                 ; .FSTART _dir_register_G102
000f0c 940e 1d86 	CALL SUBOPT_0x6B
000f0e f4b1      	BRNE _0x2040099
                 _0x204009B:
000f0f 940e 1d95 	CALL SUBOPT_0x6C
000f11 f499      	BRNE _0x204009C
000f12 81ec      	LDD  R30,Y+4
000f13 81fd      	LDD  R31,Y+4+1
000f14 89a2      	LDD  R26,Z+18
000f15 89b3      	LDD  R27,Z+19
000f16 911c      	LD   R17,X
000f17 3e15      	CPI  R17,229
000f18 f011      	BREQ _0x204009F
000f19 3010      	CPI  R17,0
000f1a f409      	BRNE _0x204009E
                 _0x204009F:
000f1b c009      	RJMP _0x204009C
                 _0x204009E:
000f1c 81ec      	LDD  R30,Y+4
000f1d 81fd      	LDD  R31,Y+4+1
000f1e 93fa      	ST   -Y,R31
000f1f 93ea      	ST   -Y,R30
000f20 e0a1      	LDI  R26,LOW(1)
000f21 ded3      	RCALL _dir_next_G102
000f22 2f0e      	MOV  R16,R30
000f23 3000      	CPI  R16,0
000f24 f351      	BREQ _0x204009B
                 _0x204009C:
                 _0x2040099:
000f25 3000      	CPI  R16,0
000f26 f529      	BRNE _0x20400A1
000f27 940e 1d95 	CALL SUBOPT_0x6C
000f29 f511      	BRNE _0x20400A2
000f2a 81ac      	LDD  R26,Y+4
000f2b 81bd      	LDD  R27,Y+4+1
000f2c 9652      	ADIW R26,18
000f2d 912d      	LD   R18,X+
000f2e 913c      	LD   R19,X
000f2f 933a      	ST   -Y,R19
000f30 932a      	ST   -Y,R18
000f31 e0e0      	LDI  R30,LOW(0)
000f32 93ea      	ST   -Y,R30
000f33 e2a0      	LDI  R26,LOW(32)
000f34 e0b0      	LDI  R27,0
000f35 940e 1a1c 	CALL _memset
000f37 940e 1da6 	CALL SUBOPT_0x6D
000f39 940e 1a0a 	CALL _memcpy
000f3b 81ac      	LDD  R26,Y+4
000f3c 81bd      	LDD  R27,Y+4+1
000f3d 9654      	ADIW R26,20
000f3e 940e 21a6 	CALL __GETW1P
000f40 85e3      	LDD  R30,Z+11
000f41 71e8      	ANDI R30,LOW(0x18)
                +
000f42 01d9     +MOVW R26 , R18
000f43 961c     +ADIW R26 , 12
000f44 93ec     +ST X , R30
                 	__PUTB1RNS 18,12
000f45 81ac      	LDD  R26,Y+4
000f46 81bd      	LDD  R27,Y+4+1
000f47 940e 21a6 	CALL __GETW1P
000f49 9634      	ADIW R30,4
000f4a e0a1      	LDI  R26,LOW(1)
000f4b 83a0      	STD  Z+0,R26
                 _0x20400A2:
                 _0x20400A1:
000f4c 2fe0      	MOV  R30,R16
000f4d 940e 220b 	CALL __LOADLOCR4
000f4f c169      	RJMP _0x20E000C
                 ; .FEND
                 _create_name_G102:
                 ; .FSTART _create_name_G102
000f50 93ba      	ST   -Y,R27
000f51 93aa      	ST   -Y,R26
000f52 9725      	SBIW R28,5
000f53 940e 2202 	CALL __SAVELOCR6
000f55 85ad      	LDD  R26,Y+13
000f56 85be      	LDD  R27,Y+13+1
000f57 9654      	ADIW R26,20
000f58 913d      	LD   R19,X+
000f59 914c      	LD   R20,X
000f5a 934a      	ST   -Y,R20
000f5b 933a      	ST   -Y,R19
000f5c e2e0      	LDI  R30,LOW(32)
000f5d 93ea      	ST   -Y,R30
000f5e e0ab      	LDI  R26,LOW(11)
000f5f e0b0      	LDI  R27,0
000f60 940e 1a1c 	CALL _memset
000f62 e0e0      	LDI  R30,LOW(0)
000f63 87e8      	STD  Y+8,R30
000f64 87e9      	STD  Y+8+1,R30
000f65 2f0e      	MOV  R16,R30
000f66 2f5e      	MOV  R21,R30
000f67 e0e8      	LDI  R30,LOW(8)
000f68 87ea      	STD  Y+10,R30
000f69 85ab      	LDD  R26,Y+11
000f6a 85bc      	LDD  R27,Y+11+1
000f6b 940e 1db1 	CALL SUBOPT_0x6E
000f6d 940e 1db6 	CALL SUBOPT_0x6F
000f6f 0fae      	ADD  R26,R30
000f70 1fbf      	ADC  R27,R31
000f71 91ac      	LD   R26,X
000f72 32ae      	CPI  R26,LOW(0x2E)
000f73 f511      	BRNE _0x20400A5
                 _0x20400A7:
000f74 940e 1dbb 	CALL SUBOPT_0x70
000f76 321e      	CPI  R17,46
000f77 f421      	BRNE _0x20400AA
000f78 85a8      	LDD  R26,Y+8
000f79 85b9      	LDD  R27,Y+8+1
000f7a 9713      	SBIW R26,3
000f7b f00c      	BRLT _0x20400A9
                 _0x20400AA:
000f7c c003      	RJMP _0x20400A8
                 _0x20400A9:
000f7d 940e 1dc7 	CALL SUBOPT_0x71
000f7f cff4      	RJMP _0x20400A7
                 _0x20400A8:
000f80 321f      	CPI  R17,47
000f81 f021      	BREQ _0x20400AD
000f82 351c      	CPI  R17,92
000f83 f011      	BREQ _0x20400AD
000f84 3211      	CPI  R17,33
000f85 f408      	BRSH _0x20400AE
                 _0x20400AD:
000f86 c002      	RJMP _0x20400AC
                 _0x20400AE:
000f87 e0e6      	LDI  R30,LOW(6)
000f88 c071      	RJMP _0x20E000D
                 _0x20400AC:
000f89 940e 1db6 	CALL SUBOPT_0x6F
000f8b 940e 1dce 	CALL SUBOPT_0x72
000f8d f410      	BRSH _0x20400AF
000f8e e2e4      	LDI  R30,LOW(36)
000f8f c001      	RJMP _0x20400B0
                 _0x20400AF:
000f90 e2e0      	LDI  R30,LOW(32)
                 _0x20400B0:
                +
000f91 2fa3     +MOV R26 , R19
000f92 2fb4     +MOV R27 , R20
000f93 961b     +ADIW R26 , 11
000f94 93ec     +ST X , R30
                 	__PUTB1RONS 19,20,11
000f95 c063      	RJMP _0x20E000E
                 _0x20400A5:
                 _0x20400B3:
000f96 940e 1dbb 	CALL SUBOPT_0x70
000f98 3211      	CPI  R17,33
000f99 f020      	BRLO _0x20400B6
000f9a 321f      	CPI  R17,47
000f9b f011      	BREQ _0x20400B6
000f9c 351c      	CPI  R17,92
000f9d f409      	BRNE _0x20400B5
                 _0x20400B6:
000f9e c032      	RJMP _0x20400B4
                 _0x20400B5:
000f9f 321e      	CPI  R17,46
000fa0 f019      	BREQ _0x20400B9
000fa1 85ea      	LDD  R30,Y+10
000fa2 175e      	CP   R21,R30
000fa3 f068      	BRLO _0x20400B8
                 _0x20400B9:
000fa4 85aa      	LDD  R26,Y+10
000fa5 30a8      	CPI  R26,LOW(0x8)
000fa6 f411      	BRNE _0x20400BC
000fa7 321e      	CPI  R17,46
000fa8 f011      	BREQ _0x20400BB
                 _0x20400BC:
000fa9 e0e6      	LDI  R30,LOW(6)
000faa c04f      	RJMP _0x20E000D
                 _0x20400BB:
000fab e058      	LDI  R21,LOW(8)
000fac e0eb      	LDI  R30,LOW(11)
000fad 87ea      	STD  Y+10,R30
000fae 0f00      	LSL  R16
000faf 0f00      	LSL  R16
000fb0 c01f      	RJMP _0x20400B2
                 _0x20400B8:
000fb1 3810      	CPI  R17,128
000fb2 f018      	BRLO _0x20400BE
000fb3 6003      	ORI  R16,LOW(3)
000fb4 e0e6      	LDI  R30,LOW(6)
000fb5 c044      	RJMP _0x20E000D
                 _0x20400BE:
000fb6 e9e8      	LDI  R30,LOW(_k1*2)
000fb7 e0f0      	LDI  R31,HIGH(_k1*2)
000fb8 93fa      	ST   -Y,R31
000fb9 93ea      	ST   -Y,R30
000fba 2fa1      	MOV  R26,R17
000fbb da57      	RCALL _chk_chrf_G102
000fbc 9730      	SBIW R30,0
000fbd f011      	BREQ _0x20400C4
000fbe e0e6      	LDI  R30,LOW(6)
000fbf c03a      	RJMP _0x20E000D
                 _0x20400C4:
000fc0 3411      	CPI  R17,65
000fc1 f010      	BRLO _0x20400C6
000fc2 351b      	CPI  R17,91
000fc3 f008      	BRLO _0x20400C7
                 _0x20400C6:
000fc4 c002      	RJMP _0x20400C5
                 _0x20400C7:
000fc5 6002      	ORI  R16,LOW(2)
000fc6 c007      	RJMP _0x20400C8
                 _0x20400C5:
000fc7 3611      	CPI  R17,97
000fc8 f010      	BRLO _0x20400CA
000fc9 371b      	CPI  R17,123
000fca f008      	BRLO _0x20400CB
                 _0x20400CA:
000fcb c002      	RJMP _0x20400C9
                 _0x20400CB:
000fcc 6001      	ORI  R16,LOW(1)
000fcd 5210      	SUBI R17,LOW(32)
                 _0x20400C9:
                 _0x20400C8:
000fce 940e 1dc7 	CALL SUBOPT_0x71
                 _0x20400B2:
000fd0 cfc5      	RJMP _0x20400B3
                 _0x20400B4:
000fd1 940e 1db6 	CALL SUBOPT_0x6F
000fd3 940e 1dce 	CALL SUBOPT_0x72
000fd5 f410      	BRSH _0x20400CC
000fd6 e0e4      	LDI  R30,LOW(4)
000fd7 c001      	RJMP _0x20400CD
                 _0x20400CC:
000fd8 e0e0      	LDI  R30,LOW(0)
                 _0x20400CD:
000fd9 2f1e      	MOV  R17,R30
000fda 3050      	CPI  R21,0
000fdb f411      	BRNE _0x20400CF
000fdc e0e6      	LDI  R30,LOW(6)
000fdd c01c      	RJMP _0x20E000D
                 _0x20400CF:
                +
000fde 2fa3     +MOV R26 , R19
000fdf 2fb4     +MOV R27 , R20
                 	__GETW2R 19,20
000fe0 91ac      	LD   R26,X
000fe1 3ea5      	CPI  R26,LOW(0xE5)
000fe2 f421      	BRNE _0x20400D0
                +
000fe3 2fa3     +MOV R26 , R19
000fe4 2fb4     +MOV R27 , R20
                 	__GETW2R 19,20
000fe5 e0e5      	LDI  R30,LOW(5)
000fe6 93ec      	ST   X,R30
                 _0x20400D0:
000fe7 85aa      	LDD  R26,Y+10
000fe8 30a8      	CPI  R26,LOW(0x8)
000fe9 f411      	BRNE _0x20400D1
000fea 0f00      	LSL  R16
000feb 0f00      	LSL  R16
                 _0x20400D1:
000fec 2fe0      	MOV  R30,R16
000fed 70e3      	ANDI R30,LOW(0x3)
000fee 30e1      	CPI  R30,LOW(0x1)
000fef f409      	BRNE _0x20400D2
000ff0 6110      	ORI  R17,LOW(16)
                 _0x20400D2:
000ff1 2fe0      	MOV  R30,R16
000ff2 70ec      	ANDI R30,LOW(0xC)
000ff3 30e4      	CPI  R30,LOW(0x4)
000ff4 f409      	BRNE _0x20400D3
000ff5 6018      	ORI  R17,LOW(8)
                 _0x20400D3:
                +
000ff6 2fe3     +MOV R30 , R19
000ff7 2ff4     +MOV R31 , R20
                 	__GETW1R 19,20
                +
000ff8 8713     +STD Z + 11 , R17
                 	__PUTBZR 17,11
                 _0x20E000E:
000ff9 e0e0      	LDI  R30,LOW(0)
                 _0x20E000D:
000ffa 940e 2209 	CALL __LOADLOCR6
000ffc 962f      	ADIW R28,15
000ffd 9508      	RET
                 ; .FEND
                 _follow_path_G102:
                 ; .FSTART _follow_path_G102
000ffe 93ba      	ST   -Y,R27
000fff 93aa      	ST   -Y,R26
001000 940e 2204 	CALL __SAVELOCR4
                 _0x20400E9:
001002 e0e1      	LDI  R30,LOW(1)
001003 30e0      	CPI  R30,0
001004 f029      	BREQ _0x20400EC
001005 81ac      	LDD  R26,Y+4
001006 81bd      	LDD  R27,Y+4+1
001007 91ac      	LD   R26,X
001008 32a0      	CPI  R26,LOW(0x20)
001009 f009      	BREQ _0x20400ED
                 _0x20400EC:
00100a c006      	RJMP _0x20400EB
                 _0x20400ED:
00100b 81ec      	LDD  R30,Y+4
00100c 81fd      	LDD  R31,Y+4+1
00100d 9631      	ADIW R30,1
00100e 83ec      	STD  Y+4,R30
00100f 83fd      	STD  Y+4+1,R31
001010 cff1      	RJMP _0x20400E9
                 _0x20400EB:
001011 81ac      	LDD  R26,Y+4
001012 81bd      	LDD  R27,Y+4+1
001013 91ac      	LD   R26,X
001014 32af      	CPI  R26,LOW(0x2F)
001015 f029      	BREQ _0x20400EF
001016 81ac      	LDD  R26,Y+4
001017 81bd      	LDD  R27,Y+4+1
001018 91ac      	LD   R26,X
001019 35ac      	CPI  R26,LOW(0x5C)
00101a f459      	BRNE _0x20400EE
                 _0x20400EF:
00101b 81ec      	LDD  R30,Y+4
00101c 81fd      	LDD  R31,Y+4+1
00101d 9631      	ADIW R30,1
00101e 83ec      	STD  Y+4,R30
00101f 83fd      	STD  Y+4+1,R31
001020 81ae      	LDD  R26,Y+6
001021 81bf      	LDD  R27,Y+6+1
001022 9616      	ADIW R26,6
001023 940e 1dd6 	CALL SUBOPT_0x73
001025 c00a      	RJMP _0x20400F1
                 _0x20400EE:
001026 81ae      	LDD  R26,Y+6
001027 81bf      	LDD  R27,Y+6+1
001028 940e 21a6 	CALL __GETW1P
00102a 9676      	ADIW R30,22
00102b 01df      	MOVW R26,R30
00102c 940e 21aa 	CALL __GETD1P
00102e 940e 1dda 	CALL SUBOPT_0x74
                 _0x20400F1:
001030 81ac      	LDD  R26,Y+4
001031 81bd      	LDD  R27,Y+4+1
001032 91ac      	LD   R26,X
001033 27bb      	CLR  R27
001034 9790      	SBIW R26,32
001035 f460      	BRSH _0x20400F2
001036 940e 1de0 	CALL SUBOPT_0x75
001038 e0a0      	LDI  R26,LOW(0)
001039 e0b0      	LDI  R27,0
00103a dd28      	RCALL _dir_seek_G102
00103b 2f0e      	MOV  R16,R30
00103c 81ae      	LDD  R26,Y+6
00103d 81bf      	LDD  R27,Y+6+1
00103e 9652      	ADIW R26,18
00103f 940e 1de5 	CALL SUBOPT_0x76
001041 c03e      	RJMP _0x20400F3
                 _0x20400F2:
                 _0x20400F5:
001042 940e 1de0 	CALL SUBOPT_0x75
001044 01de      	MOVW R26,R28
001045 9616      	ADIW R26,6
001046 df09      	RCALL _create_name_G102
001047 2f0e      	MOV  R16,R30
001048 3000      	CPI  R16,0
001049 f5b1      	BRNE _0x20400F6
00104a 81ae      	LDD  R26,Y+6
00104b 81bf      	LDD  R27,Y+6+1
00104c de91      	RCALL _dir_find_G102
00104d 2f0e      	MOV  R16,R30
00104e 81ae      	LDD  R26,Y+6
00104f 81bf      	LDD  R27,Y+6+1
001050 9654      	ADIW R26,20
001051 940e 21a6 	CALL __GETW1P
001053 85e3      	LDD  R30,Z+11
001054 70e4      	ANDI R30,LOW(0x4)
001055 2f3e      	MOV  R19,R30
001056 3000      	CPI  R16,0
001057 f039      	BREQ _0x20400F8
001058 3004      	CPI  R16,4
001059 f411      	BRNE _0x20400FA
00105a 3030      	CPI  R19,0
00105b f009      	BREQ _0x20400FB
                 _0x20400FA:
00105c c001      	RJMP _0x20400F9
                 _0x20400FB:
00105d e005      	LDI  R16,LOW(5)
                 _0x20400F9:
00105e c021      	RJMP _0x20400F6
                 _0x20400F8:
00105f 3030      	CPI  R19,0
001060 f4f9      	BRNE _0x20400F6
001061 81ae      	LDD  R26,Y+6
001062 81bf      	LDD  R27,Y+6+1
001063 9652      	ADIW R26,18
001064 911d      	LD   R17,X+
001065 912c      	LD   R18,X
                +
001066 2fe1     +MOV R30 , R17
001067 2ff2     +MOV R31 , R18
                 	__GETW1R 17,18
001068 85e3      	LDD  R30,Z+11
001069 71e0      	ANDI R30,LOW(0x10)
00106a f411      	BRNE _0x20400FD
00106b e005      	LDI  R16,LOW(5)
00106c c013      	RJMP _0x20400F6
                 _0x20400FD:
00106d 940e 1dea 	CALL SUBOPT_0x77
00106f 940e 2126 	CALL __LSLD16
001071 937f      	PUSH R23
001072 936f      	PUSH R22
001073 93ff      	PUSH R31
001074 93ef      	PUSH R30
001075 940e 1dee 	CALL SUBOPT_0x78
001077 91af      	POP  R26
001078 91bf      	POP  R27
001079 918f      	POP  R24
00107a 919f      	POP  R25
00107b 940e 1df4 	CALL SUBOPT_0x79
00107d 940e 1dda 	CALL SUBOPT_0x74
00107f cfc2      	RJMP _0x20400F5
                 _0x20400F6:
                 _0x20400F3:
001080 2fe0      	MOV  R30,R16
001081 940e 220b 	CALL __LOADLOCR4
001083 9628      	ADIW R28,8
001084 9508      	RET
                 ; .FEND
                 _check_fs_G102:
                 ; .FSTART _check_fs_G102
001085 940e 21dc 	CALL __PUTPARD2
001087 81ec      	LDD  R30,Y+4
001088 81fd      	LDD  R31,Y+4+1
001089 81a1      	LDD  R26,Z+1
00108a 93aa      	ST   -Y,R26
00108b 81ed      	LDD  R30,Y+5
00108c 81fe      	LDD  R31,Y+5+1
00108d 96f2      	ADIW R30,50
00108e 93fa      	ST   -Y,R31
00108f 93ea      	ST   -Y,R30
                +
001090 81eb     +LDD R30 , Y + 3
001091 81fc     +LDD R31 , Y + 3 + 1
001092 816d     +LDD R22 , Y + 3 + 2
001093 817e     +LDD R23 , Y + 3 + 3
                 	__GETD1S 3
001094 940e 21d7 	CALL __PUTPARD1
001096 e0a1      	LDI  R26,LOW(1)
001097 940e 06ec 	CALL _disk_read
001099 30e0      	CPI  R30,0
00109a f011      	BREQ _0x20400FE
00109b e0e3      	LDI  R30,LOW(3)
00109c c01c      	RJMP _0x20E000C
                 _0x20400FE:
00109d 81ec      	LDD  R30,Y+4
00109e 81fd      	LDD  R31,Y+4+1
00109f 940e 1df9 	CALL SUBOPT_0x7A
0010a1 f011      	BREQ _0x20400FF
0010a2 e0e2      	LDI  R30,LOW(2)
0010a3 c015      	RJMP _0x20E000C
                 _0x20400FF:
0010a4 81ac      	LDD  R26,Y+4
0010a5 81bd      	LDD  R27,Y+4+1
0010a6 59a8      	SUBI R26,LOW(-104)
0010a7 4fbf      	SBCI R27,HIGH(-104)
0010a8 940e 1e03 	CALL SUBOPT_0x7B
0010aa f411      	BRNE _0x2040100
0010ab e0e0      	LDI  R30,LOW(0)
0010ac c00c      	RJMP _0x20E000C
                 _0x2040100:
0010ad 81ec      	LDD  R30,Y+4
0010ae 81fd      	LDD  R31,Y+4+1
0010af 96f2      	ADIW R30,50
0010b0 5aee      	SUBI R30,LOW(-82)
0010b1 4fff      	SBCI R31,HIGH(-82)
0010b2 01df      	MOVW R26,R30
0010b3 940e 1e03 	CALL SUBOPT_0x7B
0010b5 f411      	BRNE _0x2040101
0010b6 e0e0      	LDI  R30,LOW(0)
0010b7 c001      	RJMP _0x20E000C
                 _0x2040101:
0010b8 e0e1      	LDI  R30,LOW(1)
                 _0x20E000C:
0010b9 9626      	ADIW R28,6
0010ba 9508      	RET
                 ; .FEND
                 _chk_mounted:
                 ; .FSTART _chk_mounted
0010bb 93aa      	ST   -Y,R26
0010bc 9764      	SBIW R28,20
0010bd 940e 2203 	CALL __SAVELOCR5
0010bf 8dac      	LDD  R26,Y+28
0010c0 8dbd      	LDD  R27,Y+28+1
0010c1 940e 21a6 	CALL __GETW1P
0010c3 83ef      	STD  Y+7,R30
0010c4 87f8      	STD  Y+7+1,R31
0010c5 81af      	LDD  R26,Y+7
0010c6 85b8      	LDD  R27,Y+7+1
0010c7 91ec      	LD   R30,X
0010c8 53e0      	SUBI R30,LOW(48)
0010c9 2f3e      	MOV  R19,R30
0010ca 303a      	CPI  R19,10
0010cb f420      	BRSH _0x2040103
0010cc 9611      	ADIW R26,1
0010cd 91ac      	LD   R26,X
0010ce 33aa      	CPI  R26,LOW(0x3A)
0010cf f009      	BREQ _0x2040104
                 _0x2040103:
0010d0 c00a      	RJMP _0x2040102
                 _0x2040104:
0010d1 81ef      	LDD  R30,Y+7
0010d2 85f8      	LDD  R31,Y+7+1
0010d3 9632      	ADIW R30,2
0010d4 83ef      	STD  Y+7,R30
0010d5 87f8      	STD  Y+7+1,R31
0010d6 8dac      	LDD  R26,Y+28
0010d7 8dbd      	LDD  R27,Y+28+1
0010d8 93ed      	ST   X+,R30
0010d9 93fc      	ST   X,R31
0010da c002      	RJMP _0x2040105
                 _0x2040102:
0010db 9130 0e3f 	LDS  R19,_Drive_G102
                 _0x2040105:
0010dd 3031      	CPI  R19,1
0010de f010      	BRLO _0x2040106
0010df e0eb      	LDI  R30,LOW(11)
0010e0 c1c2      	RJMP _0x20E000A
                 _0x2040106:
0010e1 2fe3      	MOV  R30,R19
0010e2 940e 1e11 	CALL SUBOPT_0x7C
0010e4 940e 21a6 	CALL __GETW1P
0010e6 83ed      	STD  Y+5,R30
0010e7 83fe      	STD  Y+5+1,R31
0010e8 8daa      	LDD  R26,Y+26
0010e9 8dbb      	LDD  R27,Y+26+1
0010ea 93ed      	ST   X+,R30
0010eb 93fc      	ST   X,R31
0010ec 9730      	SBIW R30,0
0010ed f411      	BRNE _0x2040107
0010ee e0ec      	LDI  R30,LOW(12)
0010ef c1b3      	RJMP _0x20E000A
                 _0x2040107:
0010f0 81ad      	LDD  R26,Y+5
0010f1 81be      	LDD  R27,Y+5+1
0010f2 91ec      	LD   R30,X
0010f3 30e0      	CPI  R30,0
0010f4 f089      	BREQ _0x2040108
0010f5 81ed      	LDD  R30,Y+5
0010f6 81fe      	LDD  R31,Y+5+1
0010f7 81a1      	LDD  R26,Z+1
0010f8 940e 06e2 	CALL _disk_status
0010fa 2f4e      	MOV  R20,R30
0010fb fd40      	SBRC R20,0
0010fc c009      	RJMP _0x2040109
0010fd 8de9      	LDD  R30,Y+25
0010fe 30e0      	CPI  R30,0
0010ff f011      	BREQ _0x204010B
001100 fd42      	SBRC R20,2
001101 c001      	RJMP _0x204010C
                 _0x204010B:
001102 c002      	RJMP _0x204010A
                 _0x204010C:
001103 e0ea      	LDI  R30,LOW(10)
001104 c19e      	RJMP _0x20E000A
                 _0x204010A:
001105 c19c      	RJMP _0x20E000B
                 _0x2040109:
                 _0x2040108:
001106 81ad      	LDD  R26,Y+5
001107 81be      	LDD  R27,Y+5+1
001108 e0e0      	LDI  R30,LOW(0)
001109 93ec      	ST   X,R30
00110a 2fe3      	MOV  R30,R19
                +
00110b 81ad     +LDD R26 , Y + 5
00110c 81be     +LDD R27 , Y + 5 + 1
00110d 9611     +ADIW R26 , 1
00110e 93ec     +ST X , R30
                 	__PUTB1SNS 5,1
00110f 81ed      	LDD  R30,Y+5
001110 81fe      	LDD  R31,Y+5+1
001111 81a1      	LDD  R26,Z+1
001112 940e 060e 	CALL _disk_initialize
001114 2f4e      	MOV  R20,R30
001115 ff40      	SBRS R20,0
001116 c002      	RJMP _0x204010D
001117 e0e3      	LDI  R30,LOW(3)
001118 c18a      	RJMP _0x20E000A
                 _0x204010D:
001119 8de9      	LDD  R30,Y+25
00111a 30e0      	CPI  R30,0
00111b f011      	BREQ _0x204010F
00111c fd42      	SBRC R20,2
00111d c001      	RJMP _0x2040110
                 _0x204010F:
00111e c002      	RJMP _0x204010E
                 _0x2040110:
00111f e0ea      	LDI  R30,LOW(10)
001120 c182      	RJMP _0x20E000A
                 _0x204010E:
001121 940e 1a8c 	CALL SUBOPT_0x9
001123 940e 1d07 	CALL SUBOPT_0x58
                +
001125 8bef     +STD Y + 23 , R30
001126 8ff8     +STD Y + 23 + 1 , R31
001127 8f69     +STD Y + 23 + 2 , R22
001128 8f7a     +STD Y + 23 + 3 , R23
                 	__PUTD1S 23
001129 01df      	MOVW R26,R30
00112a 01cb      	MOVW R24,R22
00112b df59      	RCALL _check_fs_G102
00112c 2f0e      	MOV  R16,R30
00112d 3001      	CPI  R16,1
00112e f4d9      	BRNE _0x2040111
00112f 81ed      	LDD  R30,Y+5
001130 81fe      	LDD  R31,Y+5+1
001131 96f2      	ADIW R30,50
001132 54e2      	SUBI R30,LOW(-446)
001133 4ffe      	SBCI R31,HIGH(-446)
                +
001134 2f1e     +MOV R17 , R30
001135 2f2f     +MOV R18 , R31
                 	__PUTW1R 17,18
001136 81e4      	LDD  R30,Z+4
001137 30e0      	CPI  R30,0
001138 f089      	BREQ _0x2040112
                +
001139 2fa1     +MOV R26 , R17
00113a 2fb2     +MOV R27 , R18
                 	__GETW2R 17,18
00113b 9618      	ADIW R26,8
00113c 940e 21aa 	CALL __GETD1P
                +
00113e 8bed     +STD Y + 21 , R30
00113f 8bfe     +STD Y + 21 + 1 , R31
001140 8b6f     +STD Y + 21 + 2 , R22
001141 8f78     +STD Y + 21 + 3 , R23
                 	__PUTD1S 21
001142 940e 1a8c 	CALL SUBOPT_0x9
                +
001144 89af     +LDD R26 , Y + 23
001145 8db8     +LDD R27 , Y + 23 + 1
001146 8d89     +LDD R24 , Y + 23 + 2
001147 8d9a     +LDD R25 , Y + 23 + 3
                 	__GETD2S 23
001148 df3c      	RCALL _check_fs_G102
001149 2f0e      	MOV  R16,R30
                 _0x2040112:
                 _0x2040111:
00114a 3003      	CPI  R16,3
00114b f411      	BRNE _0x2040113
00114c e0e1      	LDI  R30,LOW(1)
00114d c155      	RJMP _0x20E000A
                 _0x2040113:
00114e 3000      	CPI  R16,0
00114f f449      	BRNE _0x2040115
001150 81ad      	LDD  R26,Y+5
001151 81be      	LDD  R27,Y+5+1
001152 96dd      	ADIW R26,61
001153 940e 21a6 	CALL __GETW1P
001155 30e0      	CPI  R30,LOW(0x200)
001156 e0a2      	LDI  R26,HIGH(0x200)
001157 07fa      	CPC  R31,R26
001158 f011      	BREQ _0x2040114
                 _0x2040115:
001159 e0ed      	LDI  R30,LOW(13)
00115a c148      	RJMP _0x20E000A
                 _0x2040114:
00115b 81ad      	LDD  R26,Y+5
00115c 81be      	LDD  R27,Y+5+1
00115d 5ba8      	SUBI R26,LOW(-72)
00115e 4fbf      	SBCI R27,HIGH(-72)
00115f 940e 1c28 	CALL SUBOPT_0x36
001161 940e 1e19 	CALL SUBOPT_0x7D
001163 940e 1e1e 	CALL SUBOPT_0x7E
001165 940e 21ee 	CALL __CPD10
001167 f441      	BRNE _0x2040117
001168 81ad      	LDD  R26,Y+5
001169 81be      	LDD  R27,Y+5+1
00116a 5aaa      	SUBI R26,LOW(-86)
00116b 4fbf      	SBCI R27,HIGH(-86)
00116c 940e 21aa 	CALL __GETD1P
00116e 940e 1e19 	CALL SUBOPT_0x7D
                 _0x2040117:
001170 940e 1e1e 	CALL SUBOPT_0x7E
                +
001172 81ad     +LDD R26 , Y + 5
001173 81be     +LDD R27 , Y + 5 + 1
001174 965a     +ADIW R26 , 26
001175 940e 21b5+CALL __PUTDP1
                 	__PUTD1SNS 5,26
001177 81ed      	LDD  R30,Y+5
001178 81fe      	LDD  R31,Y+5+1
001179 5bee      	SUBI R30,LOW(-66)
00117a 4fff      	SBCI R31,HIGH(-66)
00117b 81e0      	LD   R30,Z
                +
00117c 81ad     +LDD R26 , Y + 5
00117d 81be     +LDD R27 , Y + 5 + 1
00117e 9613     +ADIW R26 , 3
00117f 93ec     +ST X , R30
                 	__PUTB1SNS 5,3
001180 81ed      	LDD  R30,Y+5
001181 81fe      	LDD  R31,Y+5+1
001182 81e3      	LDD  R30,Z+3
001183 e0f0      	LDI  R31,0
001184 940e 1e23 	CALL SUBOPT_0x7F
001186 940e 212b 	CALL __CWD1
001188 940e 2135 	CALL __MULD12U
00118a 940e 1e19 	CALL SUBOPT_0x7D
00118c 940e 1e28 	CALL SUBOPT_0x80
00118e 940e 1e2f 	CALL SUBOPT_0x81
                +
001190 81ad     +LDD R26 , Y + 5
001191 81be     +LDD R27 , Y + 5 + 1
001192 9692     +ADIW R26 , 34
001193 940e 21b5+CALL __PUTDP1
                 	__PUTD1SNS 5,34
001195 81ed      	LDD  R30,Y+5
001196 81fe      	LDD  R31,Y+5+1
001197 ade7      	LDD  R30,Z+63
                +
001198 81ad     +LDD R26 , Y + 5
001199 81be     +LDD R27 , Y + 5 + 1
00119a 9612     +ADIW R26 , 2
00119b 93ec     +ST X , R30
                 	__PUTB1SNS 5,2
00119c 81ad      	LDD  R26,Y+5
00119d 81be      	LDD  R27,Y+5+1
00119e 5bad      	SUBI R26,LOW(-67)
00119f 4fbf      	SBCI R27,HIGH(-67)
0011a0 940e 21a6 	CALL __GETW1P
                +
0011a2 81ad     +LDD R26 , Y + 5
0011a3 81be     +LDD R27 , Y + 5 + 1
0011a4 9618     +ADIW R26 , 8
0011a5 93ed     +ST X + , R30
0011a6 93fc     +ST X , R31
                 	__PUTW1SNS 5,8
0011a7 81ad      	LDD  R26,Y+5
0011a8 81be      	LDD  R27,Y+5+1
0011a9 5bab      	SUBI R26,LOW(-69)
0011aa 4fbf      	SBCI R27,HIGH(-69)
0011ab 940e 1c28 	CALL SUBOPT_0x36
0011ad 940e 1e34 	CALL SUBOPT_0x82
0011af 940e 1e39 	CALL SUBOPT_0x83
0011b1 f431      	BRNE _0x2040118
0011b2 81ad      	LDD  R26,Y+5
0011b3 81be      	LDD  R27,Y+5+1
0011b4 5aae      	SUBI R26,LOW(-82)
0011b5 4fbf      	SBCI R27,HIGH(-82)
0011b6 940e 1e40 	CALL SUBOPT_0x84
                 _0x2040118:
0011b8 940e 1e28 	CALL SUBOPT_0x80
0011ba 940e 1c39 	CALL SUBOPT_0x39
0011bc 2766      	CLR  R22
0011bd 2777      	CLR  R23
0011be 940e 1d13 	CALL SUBOPT_0x5A
0011c0 940e 1e23 	CALL SUBOPT_0x7F
0011c2 940e 20d2 	CALL __SUBD12
0011c4 937f      	PUSH R23
0011c5 936f      	PUSH R22
0011c6 93ff      	PUSH R31
0011c7 93ef      	PUSH R30
0011c8 940e 1e43 	CALL SUBOPT_0x85
0011ca 91af      	POP  R26
0011cb 91bf      	POP  R27
0011cc 918f      	POP  R24
0011cd 919f      	POP  R25
0011ce 2766      	CLR  R22
0011cf 2777      	CLR  R23
0011d0 940e 20d7 	CALL __SUBD21
0011d2 81ed      	LDD  R30,Y+5
0011d3 81fe      	LDD  R31,Y+5+1
0011d4 81e2      	LDD  R30,Z+2
0011d5 e0f0      	LDI  R31,0
0011d6 940e 212b 	CALL __CWD1
0011d8 940e 2173 	CALL __DIVD21U
                +
0011da 5fee     +SUBI R30 , LOW ( - 2 )
0011db 4fff     +SBCI R31 , HIGH ( - 2 )
0011dc 4f6f     +SBCI R22 , BYTE3 ( - 2 )
0011dd 4f7f     +SBCI R23 , BYTE4 ( - 2 )
                 	__ADDD1N 2
                +
0011de 87e9     +STD Y + 9 , R30
0011df 87fa     +STD Y + 9 + 1 , R31
0011e0 876b     +STD Y + 9 + 2 , R22
0011e1 877c     +STD Y + 9 + 3 , R23
                 	__PUTD1S 9
                +
0011e2 81ad     +LDD R26 , Y + 5
0011e3 81be     +LDD R27 , Y + 5 + 1
0011e4 965e     +ADIW R26 , 30
0011e5 940e 21b5+CALL __PUTDP1
                 	__PUTD1SNS 5,30
0011e7 e001      	LDI  R16,LOW(1)
0011e8 940e 1c6a 	CALL SUBOPT_0x3E
                +
0011ea 3fa7     +CPI R26 , LOW ( 0xFF7 )
0011eb e0ef     +LDI R30 , HIGH ( 0xFF7 )
0011ec 07be     +CPC R27 , R30
0011ed e0e0     +LDI R30 , BYTE3 ( 0xFF7 )
0011ee 078e     +CPC R24 , R30
0011ef e0e0     +LDI R30 , BYTE4 ( 0xFF7 )
0011f0 079e     +CPC R25 , R30
                 	__CPD2N 0xFF7
0011f1 f008      	BRLO _0x2040119
0011f2 e002      	LDI  R16,LOW(2)
                 _0x2040119:
0011f3 940e 1c6a 	CALL SUBOPT_0x3E
                +
0011f5 3fa7     +CPI R26 , LOW ( 0xFFF7 )
0011f6 efef     +LDI R30 , HIGH ( 0xFFF7 )
0011f7 07be     +CPC R27 , R30
0011f8 e0e0     +LDI R30 , BYTE3 ( 0xFFF7 )
0011f9 078e     +CPC R24 , R30
0011fa e0e0     +LDI R30 , BYTE4 ( 0xFFF7 )
0011fb 079e     +CPC R25 , R30
                 	__CPD2N 0xFFF7
0011fc f008      	BRLO _0x204011A
0011fd e003      	LDI  R16,LOW(3)
                 _0x204011A:
0011fe 3003      	CPI  R16,3
0011ff f439      	BRNE _0x204011B
001200 81ad      	LDD  R26,Y+5
001201 81be      	LDD  R27,Y+5+1
001202 5aa2      	SUBI R26,LOW(-94)
001203 4fbf      	SBCI R27,HIGH(-94)
001204 940e 21aa 	CALL __GETD1P
001206 c002      	RJMP _0x204027C
                 _0x204011B:
001207 940e 1e4b 	CALL SUBOPT_0x86
                 _0x204027C:
                +
001209 81ad     +LDD R26 , Y + 5
00120a 81be     +LDD R27 , Y + 5 + 1
00120b 9696     +ADIW R26 , 38
00120c 940e 21b5+CALL __PUTDP1
                 	__PUTD1SNS 5,38
00120e 940e 1e4b 	CALL SUBOPT_0x86
001210 937f      	PUSH R23
001211 936f      	PUSH R22
001212 93ff      	PUSH R31
001213 93ef      	PUSH R30
001214 940e 1e43 	CALL SUBOPT_0x85
001216 91af      	POP  R26
001217 91bf      	POP  R27
001218 918f      	POP  R24
001219 919f      	POP  R25
00121a 940e 1d4a 	CALL SUBOPT_0x62
                +
00121c 81ad     +LDD R26 , Y + 5
00121d 81be     +LDD R27 , Y + 5 + 1
00121e 969a     +ADIW R26 , 42
00121f 940e 21b5+CALL __PUTDP1
                 	__PUTD1SNS 5,42
001221 81ad      	LDD  R26,Y+5
001222 81be      	LDD  R27,Y+5+1
001223 961e      	ADIW R26,14
001224 940e 1c34 	CALL SUBOPT_0x38
001226 940e 21b5 	CALL __PUTDP1
001228 81ad      	LDD  R26,Y+5
001229 81be      	LDD  R27,Y+5+1
00122a 9614      	ADIW R26,4
00122b e0e0      	LDI  R30,LOW(0)
00122c 93ec      	ST   X,R30
00122d 3003      	CPI  R16,3
00122e f009      	BREQ PC+2
00122f c05f      	RJMP _0x204011D
001230 81ad      	LDD  R26,Y+5
001231 81be      	LDD  R27,Y+5+1
001232 9615      	ADIW R26,5
001233 93ec      	ST   X,R30
001234 81ad      	LDD  R26,Y+5
001235 81be      	LDD  R27,Y+5+1
001236 59ae      	SUBI R26,LOW(-98)
001237 4fbf      	SBCI R27,HIGH(-98)
001238 940e 21a6 	CALL __GETW1P
00123a 940e 1e2f 	CALL SUBOPT_0x81
                +
00123c 81ad     +LDD R26 , Y + 5
00123d 81be     +LDD R27 , Y + 5 + 1
00123e 9652     +ADIW R26 , 18
00123f 940e 21b5+CALL __PUTDP1
                 	__PUTD1SNS 5,18
001241 81ed      	LDD  R30,Y+5
001242 81fe      	LDD  R31,Y+5+1
001243 81a1      	LDD  R26,Z+1
001244 93aa      	ST   -Y,R26
001245 81ee      	LDD  R30,Y+6
001246 81ff      	LDD  R31,Y+6+1
001247 96f2      	ADIW R30,50
001248 93fa      	ST   -Y,R31
001249 93ea      	ST   -Y,R30
00124a 85e8      	LDD  R30,Y+8
00124b 85f9      	LDD  R31,Y+8+1
00124c 940e 1bc7 	CALL SUBOPT_0x2B
00124e 940e 06ec 	CALL _disk_read
001250 30e0      	CPI  R30,0
001251 f511      	BRNE _0x204011F
001252 81ed      	LDD  R30,Y+5
001253 81fe      	LDD  R31,Y+5+1
001254 940e 1df9 	CALL SUBOPT_0x7A
001256 f4e9      	BRNE _0x204011F
001257 81ad      	LDD  R26,Y+5
001258 81be      	LDD  R27,Y+5+1
001259 96d2      	ADIW R26,50
00125a 940e 21aa 	CALL __GETD1P
                +
00125c 35e2     +CPI R30 , LOW ( 0x41615252 )
00125d e5a2     +LDI R26 , HIGH ( 0x41615252 )
00125e 07fa     +CPC R31 , R26
00125f e6a1     +LDI R26 , BYTE3 ( 0x41615252 )
001260 076a     +CPC R22 , R26
001261 e4a1     +LDI R26 , BYTE4 ( 0x41615252 )
001262 077a     +CPC R23 , R26
                 	__CPD1N 0x41615252
001263 f481      	BRNE _0x204011F
001264 81ed      	LDD  R30,Y+5
001265 81fe      	LDD  R31,Y+5+1
001266 96f2      	ADIW R30,50
001267 51ec      	SUBI R30,LOW(-484)
001268 4ffe      	SBCI R31,HIGH(-484)
001269 01df      	MOVW R26,R30
00126a 940e 21aa 	CALL __GETD1P
                +
00126c 37e2     +CPI R30 , LOW ( 0x61417272 )
00126d e7a2     +LDI R26 , HIGH ( 0x61417272 )
00126e 07fa     +CPC R31 , R26
00126f e4a1     +LDI R26 , BYTE3 ( 0x61417272 )
001270 076a     +CPC R22 , R26
001271 e6a1     +LDI R26 , BYTE4 ( 0x61417272 )
001272 077a     +CPC R23 , R26
                 	__CPD1N 0x61417272
001273 f009      	BREQ _0x2040120
                 _0x204011F:
001274 c01a      	RJMP _0x204011E
                 _0x2040120:
001275 81ed      	LDD  R30,Y+5
001276 81fe      	LDD  R31,Y+5+1
001277 96f2      	ADIW R30,50
001278 51e4      	SUBI R30,LOW(-492)
001279 4ffe      	SBCI R31,HIGH(-492)
00127a 01df      	MOVW R26,R30
00127b 940e 21aa 	CALL __GETD1P
                +
00127d 81ad     +LDD R26 , Y + 5
00127e 81be     +LDD R27 , Y + 5 + 1
00127f 961a     +ADIW R26 , 10
001280 940e 21b5+CALL __PUTDP1
                 	__PUTD1SNS 5,10
001282 81ed      	LDD  R30,Y+5
001283 81fe      	LDD  R31,Y+5+1
001284 96f2      	ADIW R30,50
001285 51e8      	SUBI R30,LOW(-488)
001286 4ffe      	SBCI R31,HIGH(-488)
001287 01df      	MOVW R26,R30
001288 940e 21aa 	CALL __GETD1P
                +
00128a 81ad     +LDD R26 , Y + 5
00128b 81be     +LDD R27 , Y + 5 + 1
00128c 961e     +ADIW R26 , 14
00128d 940e 21b5+CALL __PUTDP1
                 	__PUTD1SNS 5,14
                 _0x204011E:
                 _0x204011D:
00128f 81ad      	LDD  R26,Y+5
001290 81be      	LDD  R27,Y+5+1
001291 930c      	ST   X,R16
001292 940e 1ba8 	CALL SUBOPT_0x27
001294 81ad      	LDD  R26,Y+5
001295 81be      	LDD  R27,Y+5+1
001296 9656      	ADIW R26,22
001297 940e 1dd6 	CALL SUBOPT_0x73
001299 e3ad      	LDI  R26,LOW(_Fsid_G102)
00129a e0be      	LDI  R27,HIGH(_Fsid_G102)
00129b 940e 1e52 	CALL SUBOPT_0x87
                +
00129d 81ad     +LDD R26 , Y + 5
00129e 81be     +LDD R27 , Y + 5 + 1
00129f 9616     +ADIW R26 , 6
0012a0 93ed     +ST X + , R30
0012a1 93fc     +ST X , R31
                 	__PUTW1SNS 5,6
                 _0x20E000B:
0012a2 e0e0      	LDI  R30,LOW(0)
                 _0x20E000A:
0012a3 940e 220a 	CALL __LOADLOCR5
0012a5 966e      	ADIW R28,30
0012a6 9508      	RET
                 ; .FEND
                 _validate_G102:
                 ; .FSTART _validate_G102
0012a7 93ba      	ST   -Y,R27
0012a8 93aa      	ST   -Y,R26
0012a9 81ea      	LDD  R30,Y+2
0012aa 81fb      	LDD  R31,Y+2+1
0012ab 9730      	SBIW R30,0
0012ac f071      	BREQ _0x2040122
0012ad 81aa      	LDD  R26,Y+2
0012ae 81bb      	LDD  R27,Y+2+1
0012af 91ec      	LD   R30,X
0012b0 30e0      	CPI  R30,0
0012b1 f049      	BREQ _0x2040122
0012b2 81ea      	LDD  R30,Y+2
0012b3 81fb      	LDD  R31,Y+2+1
0012b4 81a6      	LDD  R26,Z+6
0012b5 81b7      	LDD  R27,Z+7
0012b6 81e8      	LD   R30,Y
0012b7 81f9      	LDD  R31,Y+1
0012b8 17ea      	CP   R30,R26
0012b9 07fb      	CPC  R31,R27
0012ba f011      	BREQ _0x2040121
                 _0x2040122:
0012bb e0e9      	LDI  R30,LOW(9)
0012bc c00a      	RJMP _0x20E0009
                 _0x2040121:
0012bd 81ea      	LDD  R30,Y+2
0012be 81fb      	LDD  R31,Y+2+1
0012bf 81a1      	LDD  R26,Z+1
0012c0 940e 06e2 	CALL _disk_status
0012c2 70e1      	ANDI R30,LOW(0x1)
0012c3 f011      	BREQ _0x2040124
0012c4 e0e3      	LDI  R30,LOW(3)
0012c5 c001      	RJMP _0x20E0009
                 _0x2040124:
0012c6 e0e0      	LDI  R30,LOW(0)
                 _0x20E0009:
0012c7 9624      	ADIW R28,4
0012c8 9508      	RET
                 ; .FEND
                 _f_mount:
                 ; .FSTART _f_mount
0012c9 93ba      	ST   -Y,R27
0012ca 93aa      	ST   -Y,R26
0012cb 931a      	ST   -Y,R17
0012cc 930a      	ST   -Y,R16
0012cd 81ac      	LDD  R26,Y+4
0012ce 30a1      	CPI  R26,LOW(0x1)
0012cf f010      	BRLO _0x2040125
0012d0 e0eb      	LDI  R30,LOW(11)
0012d1 c020      	RJMP _0x20E0008
                 _0x2040125:
0012d2 81ec      	LDD  R30,Y+4
0012d3 940e 1e11 	CALL SUBOPT_0x7C
0012d5 910d      	LD   R16,X+
0012d6 911c      	LD   R17,X
0012d7 2e00      	MOV  R0,R16
0012d8 2a01      	OR   R0,R17
0012d9 f019      	BREQ _0x2040126
0012da 01d8      	MOVW R26,R16
0012db e0e0      	LDI  R30,LOW(0)
0012dc 93ec      	ST   X,R30
                 _0x2040126:
0012dd 81ea      	LDD  R30,Y+2
0012de 81fb      	LDD  R31,Y+2+1
0012df 9730      	SBIW R30,0
0012e0 f021      	BREQ _0x2040127
0012e1 81aa      	LDD  R26,Y+2
0012e2 81bb      	LDD  R27,Y+2+1
0012e3 e0e0      	LDI  R30,LOW(0)
0012e4 93ec      	ST   X,R30
                 _0x2040127:
0012e5 81ec      	LDD  R30,Y+4
0012e6 e3ab      	LDI  R26,LOW(_FatFs_G102)
0012e7 e0be      	LDI  R27,HIGH(_FatFs_G102)
0012e8 e0f0      	LDI  R31,0
0012e9 0fee      	LSL  R30
0012ea 1fff      	ROL  R31
0012eb 0fea      	ADD  R30,R26
0012ec 1ffb      	ADC  R31,R27
0012ed 81aa      	LDD  R26,Y+2
0012ee 81bb      	LDD  R27,Y+2+1
0012ef 83a0      	STD  Z+0,R26
0012f0 83b1      	STD  Z+1,R27
0012f1 e0e0      	LDI  R30,LOW(0)
                 _0x20E0008:
0012f2 8119      	LDD  R17,Y+1
0012f3 8108      	LDD  R16,Y+0
0012f4 9625      	ADIW R28,5
0012f5 9508      	RET
                 ; .FEND
                 _f_open:
                 ; .FSTART _f_open
0012f6 93aa      	ST   -Y,R26
0012f7 97a2      	SBIW R28,34
0012f8 940e 2205 	CALL __SAVELOCR3
0012fa a5a8      	LDD  R26,Y+40
0012fb a5b9      	LDD  R27,Y+40+1
0012fc 940e 1de5 	CALL SUBOPT_0x76
0012fe a1ed      	LDD  R30,Y+37
0012ff 71ef      	ANDI R30,LOW(0x1F)
001300 a3ed      	STD  Y+37,R30
001301 01fe      	MOVW R30,R28
001302 96b6      	ADIW R30,38
001303 93fa      	ST   -Y,R31
001304 93ea      	ST   -Y,R30
001305 01fe      	MOVW R30,R28
001306 9671      	ADIW R30,17
001307 93fa      	ST   -Y,R31
001308 93ea      	ST   -Y,R30
001309 a5e9      	LDD  R30,Y+41
00130a 71ee      	ANDI R30,LOW(0x1E)
00130b 2fae      	MOV  R26,R30
00130c ddae      	RCALL _chk_mounted
00130d 2f0e      	MOV  R16,R30
00130e 3000      	CPI  R16,0
00130f f009      	BREQ _0x2040128
001310 c11a      	RJMP _0x20E0007
                 _0x2040128:
001311 01fe      	MOVW R30,R28
001312 9633      	ADIW R30,3
001313 a3eb      	STD  Y+35,R30
001314 a3fc      	STD  Y+35+1,R31
001315 01fe      	MOVW R30,R28
001316 963f      	ADIW R30,15
001317 93fa      	ST   -Y,R31
001318 93ea      	ST   -Y,R30
001319 a5a8      	LDD  R26,Y+40
00131a a5b9      	LDD  R27,Y+40+1
00131b dce2      	RCALL _follow_path_G102
00131c 2f0e      	MOV  R16,R30
00131d a1ed      	LDD  R30,Y+37
00131e 71ec      	ANDI R30,LOW(0x1C)
00131f f409      	BRNE PC+2
001320 c09a      	RJMP _0x2040129
001321 9728      	SBIW R28,8
001322 3000      	CPI  R16,0
001323 f089      	BREQ _0x204012A
001324 3004      	CPI  R16,4
001325 f421      	BRNE _0x204012B
001326 01de      	MOVW R26,R28
001327 9657      	ADIW R26,23
001328 dbe3      	RCALL _dir_register_G102
001329 2f0e      	MOV  R16,R30
                 _0x204012B:
00132a 3000      	CPI  R16,0
00132b f019      	BREQ _0x204012C
00132c 2fe0      	MOV  R30,R16
00132d 9628      	ADIW R28,8
00132e c0fc      	RJMP _0x20E0007
                 _0x204012C:
00132f a5ed      	LDD  R30,Y+45
001330 60e8      	ORI  R30,8
001331 a7ed      	STD  Y+45,R30
                +
001332 a519     +LDD R17 , Y + 41
001333 a52a     +LDD R18 , Y + 41 + 1
                 	__GETWRS 17,18,41
001334 c069      	RJMP _0x204012D
                 _0x204012A:
001335 a5ed      	LDD  R30,Y+45
001336 70e4      	ANDI R30,LOW(0x4)
001337 f019      	BREQ _0x204012E
001338 e0e8      	LDI  R30,LOW(8)
001339 9628      	ADIW R28,8
00133a c0f0      	RJMP _0x20E0007
                 _0x204012E:
                +
00133b a519     +LDD R17 , Y + 41
00133c a52a     +LDD R18 , Y + 41 + 1
                 	__GETWRS 17,18,41
00133d 2e01      	MOV  R0,R17
00133e 2a02      	OR   R0,R18
00133f f029      	BREQ _0x2040130
                +
001340 2fe1     +MOV R30 , R17
001341 2ff2     +MOV R31 , R18
                 	__GETW1R 17,18
001342 85e3      	LDD  R30,Z+11
001343 71e1      	ANDI R30,LOW(0x11)
001344 f019      	BREQ _0x204012F
                 _0x2040130:
001345 e0e7      	LDI  R30,LOW(7)
001346 9628      	ADIW R28,8
001347 c0e3      	RJMP _0x20E0007
                 _0x204012F:
001348 a5ed      	LDD  R30,Y+45
001349 70e8      	ANDI R30,LOW(0x8)
00134a f409      	BRNE PC+2
00134b c052      	RJMP _0x2040132
00134c 940e 1dea 	CALL SUBOPT_0x77
00134e 940e 2126 	CALL __LSLD16
001350 937f      	PUSH R23
001351 936f      	PUSH R22
001352 93ff      	PUSH R31
001353 93ef      	PUSH R30
001354 940e 1dee 	CALL SUBOPT_0x78
001356 91af      	POP  R26
001357 91bf      	POP  R27
001358 918f      	POP  R24
001359 919f      	POP  R25
00135a 940e 1df4 	CALL SUBOPT_0x79
00135c 940e 1cc8 	CALL SUBOPT_0x4B
                +
00135e 2fe1     +MOV R30 , R17
00135f 2ff2     +MOV R31 , R18
                 	__GETW1R 17,18
001360 9674      	ADIW R30,20
001361 940e 1e58 	CALL SUBOPT_0x88
001363 967a      	ADIW R30,26
001364 940e 1e58 	CALL SUBOPT_0x88
001366 967c      	ADIW R30,28
001367 940e 1cb4 	CALL SUBOPT_0x48
001369 940e 21d2 	CALL __PUTDZ20
00136b 89af      	LDD  R26,Y+23
00136c 8db8      	LDD  R27,Y+23+1
00136d 9614      	ADIW R26,4
00136e e0e1      	LDI  R30,LOW(1)
00136f 93ec      	ST   X,R30
001370 89af      	LDD  R26,Y+23
001371 8db8      	LDD  R27,Y+23+1
001372 969e      	ADIW R26,46
001373 940e 1be1 	CALL SUBOPT_0x2F
001375 940e 1cd5 	CALL SUBOPT_0x4E
001377 940e 21ee 	CALL __CPD10
001379 f0a9      	BREQ _0x2040133
00137a 89ef      	LDD  R30,Y+23
00137b 8df8      	LDD  R31,Y+23+1
00137c 93fa      	ST   -Y,R31
00137d 93ea      	ST   -Y,R30
00137e 940e 1d27 	CALL SUBOPT_0x5D
001380 d88b      	RCALL _remove_chain_G102
001381 2f0e      	MOV  R16,R30
001382 3000      	CPI  R16,0
001383 f011      	BREQ _0x2040134
001384 9628      	ADIW R28,8
001385 c0a5      	RJMP _0x20E0007
                 _0x2040134:
001386 940e 1cd5 	CALL SUBOPT_0x4E
001388 940e 1e5f 	CALL SUBOPT_0x89
                +
00138a 89af     +LDD R26 , Y + 23
00138b 8db8     +LDD R27 , Y + 23 + 1
00138c 961a     +ADIW R26 , 10
00138d 940e 21b5+CALL __PUTDP1
                 	__PUTD1SNS 23,10
                 _0x2040133:
00138f 89ef      	LDD  R30,Y+23
001390 8df8      	LDD  R31,Y+23+1
001391 93fa      	ST   -Y,R31
001392 93ea      	ST   -Y,R30
                +
001393 81ae     +LDD R26 , Y + 6
001394 81bf     +LDD R27 , Y + 6 + 1
001395 8588     +LDD R24 , Y + 6 + 2
001396 8599     +LDD R25 , Y + 6 + 3
                 	__GETD2S 6
001397 940e 0a2a 	CALL _move_window_G102
001399 2f0e      	MOV  R16,R30
00139a 3000      	CPI  R16,0
00139b f011      	BREQ _0x2040135
00139c 9628      	ADIW R28,8
00139d c08d      	RJMP _0x20E0007
                 _0x2040135:
                 _0x2040132:
                 _0x204012D:
00139e a5ed      	LDD  R30,Y+45
00139f 70e8      	ANDI R30,LOW(0x8)
0013a0 f0c1      	BREQ _0x2040136
                +
0013a1 2fe1     +MOV R30 , R17
0013a2 2ff2     +MOV R31 , R18
                 	__GETW1R 17,18
0013a3 963b      	ADIW R30,11
0013a4 e0a0      	LDI  R26,LOW(0)
0013a5 83a0      	STD  Z+0,R26
0013a6 940e 0992 	CALL _get_fattime
0013a8 940e 1cd8 	CALL SUBOPT_0x4F
0013aa 940e 1cf3 	CALL SUBOPT_0x54
                +
0013ac 2fa1     +MOV R26 , R17
0013ad 2fb2     +MOV R27 , R18
0013ae 961e     +ADIW R26 , 14
0013af 940e 21b5+CALL __PUTDP1
                 	__PUTD1RONS 17,18,14
0013b1 89af      	LDD  R26,Y+23
0013b2 8db8      	LDD  R27,Y+23+1
0013b3 9614      	ADIW R26,4
0013b4 e0e1      	LDI  R30,LOW(1)
0013b5 93ec      	ST   X,R30
0013b6 a5ed      	LDD  R30,Y+45
0013b7 62e0      	ORI  R30,0x20
0013b8 a7ed      	STD  Y+45,R30
                 _0x2040136:
0013b9 9628      	ADIW R28,8
0013ba c01b      	RJMP _0x2040137
                 _0x2040129:
0013bb 3000      	CPI  R16,0
0013bc f011      	BREQ _0x2040138
0013bd 2fe0      	MOV  R30,R16
0013be c06c      	RJMP _0x20E0007
                 _0x2040138:
                +
0013bf a119     +LDD R17 , Y + 33
0013c0 a12a     +LDD R18 , Y + 33 + 1
                 	__GETWRS 17,18,33
0013c1 2e01      	MOV  R0,R17
0013c2 2a02      	OR   R0,R18
0013c3 f029      	BREQ _0x204013A
                +
0013c4 2fe1     +MOV R30 , R17
0013c5 2ff2     +MOV R31 , R18
                 	__GETW1R 17,18
0013c6 85e3      	LDD  R30,Z+11
0013c7 71e0      	ANDI R30,LOW(0x10)
0013c8 f011      	BREQ _0x2040139
                 _0x204013A:
0013c9 e0e4      	LDI  R30,LOW(4)
0013ca c060      	RJMP _0x20E0007
                 _0x2040139:
0013cb a1ed      	LDD  R30,Y+37
0013cc 70e2      	ANDI R30,LOW(0x2)
0013cd f029      	BREQ _0x204013D
                +
0013ce 2fe1     +MOV R30 , R17
0013cf 2ff2     +MOV R31 , R18
                 	__GETW1R 17,18
0013d0 85e3      	LDD  R30,Z+11
0013d1 70e1      	ANDI R30,LOW(0x1)
0013d2 f409      	BRNE _0x204013E
                 _0x204013D:
0013d3 c002      	RJMP _0x204013C
                 _0x204013E:
0013d4 e0e7      	LDI  R30,LOW(7)
0013d5 c055      	RJMP _0x20E0007
                 _0x204013C:
                 _0x2040137:
0013d6 85af      	LDD  R26,Y+15
0013d7 89b8      	LDD  R27,Y+15+1
0013d8 969e      	ADIW R26,46
0013d9 940e 21aa 	CALL __GETD1P
                +
0013db a5a8     +LDD R26 , Y + 40
0013dc a5b9     +LDD R27 , Y + 40 + 1
0013dd 965a     +ADIW R26 , 26
0013de 940e 21b5+CALL __PUTDP1
                 	__PUTD1SNS 40,26
0013e0 a1e9      	LDD  R30,Y+33
0013e1 a1fa      	LDD  R31,Y+33+1
                +
0013e2 a5a8     +LDD R26 , Y + 40
0013e3 a5b9     +LDD R27 , Y + 40 + 1
0013e4 965e     +ADIW R26 , 30
0013e5 93ed     +ST X + , R30
0013e6 93fc     +ST X , R31
                 	__PUTW1SNS 40,30
0013e7 a1ed      	LDD  R30,Y+37
                +
0013e8 a5a8     +LDD R26 , Y + 40
0013e9 a5b9     +LDD R27 , Y + 40 + 1
0013ea 9614     +ADIW R26 , 4
0013eb 93ec     +ST X , R30
                 	__PUTB1SNS 40,4
0013ec 940e 1dea 	CALL SUBOPT_0x77
0013ee 940e 2126 	CALL __LSLD16
0013f0 937f      	PUSH R23
0013f1 936f      	PUSH R22
0013f2 93ff      	PUSH R31
0013f3 93ef      	PUSH R30
0013f4 940e 1dee 	CALL SUBOPT_0x78
0013f6 91af      	POP  R26
0013f7 91bf      	POP  R27
0013f8 918f      	POP  R24
0013f9 919f      	POP  R25
0013fa 940e 1df4 	CALL SUBOPT_0x79
                +
0013fc a5a8     +LDD R26 , Y + 40
0013fd a5b9     +LDD R27 , Y + 40 + 1
0013fe 961e     +ADIW R26 , 14
0013ff 940e 21b5+CALL __PUTDP1
                 	__PUTD1SNS 40,14
                +
001401 2fa1     +MOV R26 , R17
001402 2fb2     +MOV R27 , R18
                 	__GETW2R 17,18
001403 965c      	ADIW R26,28
001404 940e 21aa 	CALL __GETD1P
                +
001406 a5a8     +LDD R26 , Y + 40
001407 a5b9     +LDD R27 , Y + 40 + 1
001408 961a     +ADIW R26 , 10
001409 940e 21b5+CALL __PUTDP1
                 	__PUTD1SNS 40,10
00140b a5a8      	LDD  R26,Y+40
00140c a5b9      	LDD  R27,Y+40+1
00140d 9616      	ADIW R26,6
00140e 940e 1dd6 	CALL SUBOPT_0x73
001410 a5a8      	LDD  R26,Y+40
001411 a5b9      	LDD  R27,Y+40+1
001412 9615      	ADIW R26,5
001413 efef      	LDI  R30,LOW(255)
001414 93ec      	ST   X,R30
001415 a5a8      	LDD  R26,Y+40
001416 a5b9      	LDD  R27,Y+40+1
001417 9656      	ADIW R26,22
001418 940e 1dd6 	CALL SUBOPT_0x73
00141a 85ef      	LDD  R30,Y+15
00141b 89f8      	LDD  R31,Y+15+1
00141c a5a8      	LDD  R26,Y+40
00141d a5b9      	LDD  R27,Y+40+1
00141e 93ed      	ST   X+,R30
00141f 93fc      	ST   X,R31
001420 85af      	LDD  R26,Y+15
001421 89b8      	LDD  R27,Y+15+1
001422 9616      	ADIW R26,6
001423 940e 21a6 	CALL __GETW1P
                +
001425 a5a8     +LDD R26 , Y + 40
001426 a5b9     +LDD R27 , Y + 40 + 1
001427 9612     +ADIW R26 , 2
001428 93ed     +ST X + , R30
001429 93fc     +ST X , R31
                 	__PUTW1SNS 40,2
00142a e0e0      	LDI  R30,LOW(0)
                 _0x20E0007:
00142b 940e 220c 	CALL __LOADLOCR3
00142d 96aa      	ADIW R28,42
00142e 9508      	RET
                 ; .FEND
                 _f_write:
                 ; .FSTART _f_write
00142f 93ba      	ST   -Y,R27
001430 93aa      	ST   -Y,R26
001431 972a      	SBIW R28,10
001432 940e 2203 	CALL __SAVELOCR5
001434 89eb      	LDD  R30,Y+19
001435 89fc      	LDD  R31,Y+19+1
001436 83ed      	STD  Y+5,R30
001437 83fe      	STD  Y+5+1,R31
001438 85af      	LDD  R26,Y+15
001439 89b8      	LDD  R27,Y+15+1
00143a 940e 1de5 	CALL SUBOPT_0x76
00143c 940e 1e64 	CALL SUBOPT_0x8A
00143e 940e 1e69 	CALL SUBOPT_0x8B
001440 940e 1e6e 	CALL SUBOPT_0x8C
001442 f021      	BREQ _0x2040159
001443 2fe0      	MOV  R30,R16
001444 940e 220a 	CALL __LOADLOCR5
001446 c3e1      	RJMP _0x20E0005
                 _0x2040159:
001447 89ed      	LDD  R30,Y+21
001448 89fe      	LDD  R31,Y+21+1
001449 81a4      	LDD  R26,Z+4
00144a 78a0      	ANDI R26,LOW(0x80)
00144b f021      	BREQ _0x204015A
00144c e0e2      	LDI  R30,LOW(2)
00144d 940e 220a 	CALL __LOADLOCR5
00144f c3d8      	RJMP _0x20E0005
                 _0x204015A:
001450 940e 1e75 	CALL SUBOPT_0x8D
001452 f421      	BRNE _0x204015B
001453 e0e7      	LDI  R30,LOW(7)
001454 940e 220a 	CALL __LOADLOCR5
001456 c3d1      	RJMP _0x20E0005
                 _0x204015B:
001457 89ed      	LDD  R30,Y+21
001458 89fe      	LDD  R31,Y+21+1
                +
001459 85a2     +LDD R26 , Z + 10
00145a 85b3     +LDD R27 , Z + 10 + 1
00145b 8584     +LDD R24 , Z + 10 + 2
00145c 8595     +LDD R25 , Z + 10 + 3
                 	__GETD2Z 10
00145d 89e9      	LDD  R30,Y+17
00145e 89fa      	LDD  R31,Y+17+1
00145f 940e 1d4a 	CALL SUBOPT_0x62
001461 937f      	PUSH R23
001462 936f      	PUSH R22
001463 93ff      	PUSH R31
001464 93ef      	PUSH R30
001465 940e 1e7a 	CALL SUBOPT_0x8E
001467 91af      	POP  R26
001468 91bf      	POP  R27
001469 918f      	POP  R24
00146a 919f      	POP  R25
00146b 940e 21fd 	CALL __CPD21
00146d f418      	BRSH _0x204015C
00146e e0e0      	LDI  R30,LOW(0)
00146f 8be9      	STD  Y+17,R30
001470 8bea      	STD  Y+17+1,R30
                 _0x204015C:
                 _0x204015E:
001471 89e9      	LDD  R30,Y+17
001472 89fa      	LDD  R31,Y+17+1
001473 9730      	SBIW R30,0
001474 f409      	BRNE PC+2
001475 c177      	RJMP _0x204015F
001476 940e 1e80 	CALL SUBOPT_0x8F
001478 01fd      	MOVW R30,R26
001479 01bc      	MOVW R22,R24
00147a 70f1      	ANDI R31,HIGH(0x1FF)
00147b 9730      	SBIW R30,0
00147c f009      	BREQ PC+2
00147d c129      	RJMP _0x2040160
00147e 89ed      	LDD  R30,Y+21
00147f 89fe      	LDD  R31,Y+21+1
001480 8005      	LDD  R0,Z+5
001481 940e 1e64 	CALL SUBOPT_0x8A
001483 81e2      	LDD  R30,Z+2
001484 160e      	CP   R0,R30
001485 f408      	BRSH PC+2
001486 c04e      	RJMP _0x2040161
001487 89ad      	LDD  R26,Y+21
001488 89be      	LDD  R27,Y+21+1
001489 9616      	ADIW R26,6
00148a 940e 1d63 	CALL SUBOPT_0x65
00148c f499      	BRNE _0x2040162
00148d 89ad      	LDD  R26,Y+21
00148e 89be      	LDD  R27,Y+21+1
00148f 961e      	ADIW R26,14
001490 940e 21aa 	CALL __GETD1P
001492 940e 1e87 	CALL SUBOPT_0x90
001494 940e 1e8c 	CALL SUBOPT_0x91
001496 f441      	BRNE _0x2040163
001497 940e 1e64 	CALL SUBOPT_0x8A
001499 940e 1e93 	CALL SUBOPT_0x92
00149b 940e 1e87 	CALL SUBOPT_0x90
00149d 940e 1e98 	CALL SUBOPT_0x93
                 _0x2040163:
00149f c00c      	RJMP _0x2040164
                 _0x2040162:
0014a0 940e 1e64 	CALL SUBOPT_0x8A
0014a2 940e 1e69 	CALL SUBOPT_0x8B
                +
0014a4 89a2     +LDD R26 , Z + 18
0014a5 89b3     +LDD R27 , Z + 18 + 1
0014a6 8984     +LDD R24 , Z + 18 + 2
0014a7 8995     +LDD R25 , Z + 18 + 3
                 	__GETD2Z 18
0014a8 940e 0c64 	CALL _create_chain_G102
0014aa 940e 1e87 	CALL SUBOPT_0x90
                 _0x2040164:
0014ac 940e 1e8c 	CALL SUBOPT_0x91
0014ae f409      	BRNE _0x2040165
0014af c13d      	RJMP _0x204015F
                 _0x2040165:
                +
0014b0 85ab     +LDD R26 , Y + 11
0014b1 85bc     +LDD R27 , Y + 11 + 1
0014b2 858d     +LDD R24 , Y + 11 + 2
0014b3 859e     +LDD R25 , Y + 11 + 3
                 	__GETD2S 11
0014b4 940e 1c9f 	CALL SUBOPT_0x45
0014b6 f431      	BRNE _0x2040166
0014b7 940e 1e9e 	CALL SUBOPT_0x94
0014b9 e0e2      	LDI  R30,LOW(2)
0014ba 940e 220a 	CALL __LOADLOCR5
0014bc c36b      	RJMP _0x20E0005
                 _0x2040166:
                +
0014bd 85ab     +LDD R26 , Y + 11
0014be 85bc     +LDD R27 , Y + 11 + 1
0014bf 858d     +LDD R24 , Y + 11 + 2
0014c0 859e     +LDD R25 , Y + 11 + 3
                 	__GETD2S 11
0014c1 940e 1ca7 	CALL SUBOPT_0x46
0014c3 f431      	BRNE _0x2040167
0014c4 940e 1e9e 	CALL SUBOPT_0x94
0014c6 e0e1      	LDI  R30,LOW(1)
0014c7 940e 220a 	CALL __LOADLOCR5
0014c9 c35e      	RJMP _0x20E0005
                 _0x2040167:
                +
0014ca 85eb     +LDD R30 , Y + 11
0014cb 85fc     +LDD R31 , Y + 11 + 1
0014cc 856d     +LDD R22 , Y + 11 + 2
0014cd 857e     +LDD R23 , Y + 11 + 3
                 	__GETD1S 11
0014ce 940e 1ea5 	CALL SUBOPT_0x95
0014d0 89ad      	LDD  R26,Y+21
0014d1 89be      	LDD  R27,Y+21+1
0014d2 9615      	ADIW R26,5
0014d3 e0e0      	LDI  R30,LOW(0)
0014d4 93ec      	ST   X,R30
                 _0x2040161:
0014d5 89ed      	LDD  R30,Y+21
0014d6 89fe      	LDD  R31,Y+21+1
0014d7 81a4      	LDD  R26,Z+4
0014d8 74a0      	ANDI R26,LOW(0x40)
0014d9 f079      	BREQ _0x2040168
0014da 940e 1e64 	CALL SUBOPT_0x8A
0014dc 940e 1eab 	CALL SUBOPT_0x96
0014de 940e 1eb3 	CALL SUBOPT_0x97
0014e0 f031      	BREQ _0x2040169
0014e1 940e 1e9e 	CALL SUBOPT_0x94
0014e3 e0e1      	LDI  R30,LOW(1)
0014e4 940e 220a 	CALL __LOADLOCR5
0014e6 c341      	RJMP _0x20E0005
                 _0x2040169:
0014e7 940e 1ec0 	CALL SUBOPT_0x98
                 _0x2040168:
0014e9 940e 1e64 	CALL SUBOPT_0x8A
0014eb 940e 1e69 	CALL SUBOPT_0x8B
                +
0014ed 89a2     +LDD R26 , Z + 18
0014ee 89b3     +LDD R27 , Z + 18 + 1
0014ef 8984     +LDD R24 , Z + 18 + 2
0014f0 8995     +LDD R25 , Z + 18 + 3
                 	__GETD2Z 18
0014f1 d839      	RCALL _clust2sect
                +
0014f2 83ef     +STD Y + 7 , R30
0014f3 87f8     +STD Y + 7 + 1 , R31
0014f4 8769     +STD Y + 7 + 2 , R22
0014f5 877a     +STD Y + 7 + 3 , R23
                 	__PUTD1S 7
0014f6 940e 1caf 	CALL SUBOPT_0x47
0014f8 940e 21ee 	CALL __CPD10
0014fa f431      	BRNE _0x204016A
0014fb 940e 1e9e 	CALL SUBOPT_0x94
0014fd e0e2      	LDI  R30,LOW(2)
0014fe 940e 220a 	CALL __LOADLOCR5
001500 c327      	RJMP _0x20E0005
                 _0x204016A:
001501 940e 1ec7 	CALL SUBOPT_0x99
                +
001503 81af     +LDD R26 , Y + 7
001504 85b8     +LDD R27 , Y + 7 + 1
001505 8589     +LDD R24 , Y + 7 + 2
001506 859a     +LDD R25 , Y + 7 + 3
                 	__GETD2S 7
001507 940e 212b 	CALL __CWD1
001509 940e 20c8 	CALL __ADDD12
                +
00150b 83ef     +STD Y + 7 , R30
00150c 87f8     +STD Y + 7 + 1 , R31
00150d 8769     +STD Y + 7 + 2 , R22
00150e 877a     +STD Y + 7 + 3 , R23
                 	__PUTD1S 7
00150f 89a9      	LDD  R26,Y+17
001510 89ba      	LDD  R27,Y+17+1
001511 e0e0      	LDI  R30,LOW(512)
001512 e0f2      	LDI  R31,HIGH(512)
001513 940e 215b 	CALL __DIVW21U
                +
001515 2f3e     +MOV R19 , R30
001516 2f4f     +MOV R20 , R31
                 	__PUTW1R 19,20
001517 2e03      	MOV  R0,R19
001518 2a04      	OR   R0,R20
001519 f409      	BRNE PC+2
00151a c064      	RJMP _0x204016B
00151b 940e 1ec7 	CALL SUBOPT_0x99
00151d 0fe3      	ADD  R30,R19
00151e 1ff4      	ADC  R31,R20
00151f 010f      	MOVW R0,R30
001520 940e 1e64 	CALL SUBOPT_0x8A
001522 81e2      	LDD  R30,Z+2
001523 01d0      	MOVW R26,R0
001524 e0f0      	LDI  R31,0
001525 17ea      	CP   R30,R26
001526 07fb      	CPC  R31,R27
001527 f458      	BRSH _0x204016C
001528 940e 1e64 	CALL SUBOPT_0x8A
00152a 81e2      	LDD  R30,Z+2
00152b e0f0      	LDI  R31,0
00152c 01df      	MOVW R26,R30
00152d 940e 1ec7 	CALL SUBOPT_0x99
00152f 1bae      	SUB  R26,R30
001530 0bbf      	SBC  R27,R31
                +
001531 2f3a     +MOV R19 , R26
001532 2f4b     +MOV R20 , R27
                 	__PUTW2R 19,20
                 _0x204016C:
001533 940e 1e64 	CALL SUBOPT_0x8A
001535 81e1      	LDD  R30,Z+1
001536 93ea      	ST   -Y,R30
001537 940e 1de0 	CALL SUBOPT_0x75
001539 940e 1d0c 	CALL SUBOPT_0x59
00153b 2fa3      	MOV  R26,R19
00153c 940e 0750 	CALL _disk_write
00153e 30e0      	CPI  R30,0
00153f f031      	BREQ _0x204016D
001540 940e 1e9e 	CALL SUBOPT_0x94
001542 e0e1      	LDI  R30,LOW(1)
001543 940e 220a 	CALL __LOADLOCR5
001545 c2e2      	RJMP _0x20E0005
                 _0x204016D:
001546 940e 1ecc 	CALL SUBOPT_0x9A
001548 940e 20d7 	CALL __SUBD21
                +
00154a 2fe3     +MOV R30 , R19
00154b 2ff4     +MOV R31 , R20
                 	__GETW1R 19,20
00154c 2766      	CLR  R22
00154d 2777      	CLR  R23
00154e 940e 21fd 	CALL __CPD21
001550 f508      	BRSH _0x204016E
001551 89ed      	LDD  R30,Y+21
001552 89fe      	LDD  R31,Y+21+1
001553 96b0      	ADIW R30,32
001554 940e 1e69 	CALL SUBOPT_0x8B
                +
001556 89a6     +LDD R26 , Z + 22
001557 89b7     +LDD R27 , Z + 22 + 1
001558 8d80     +LDD R24 , Z + 22 + 2
001559 8d91     +LDD R25 , Z + 22 + 3
                 	__GETD2Z 22
00155a 940e 1ed3 	CALL SUBOPT_0x9B
00155c 940e 20d7 	CALL __SUBD21
                +
00155e e0e0     +LDI R30 , LOW ( 0x200 )
00155f e0f2     +LDI R31 , HIGH ( 0x200 )
001560 e060     +LDI R22 , BYTE3 ( 0x200 )
001561 e070     +LDI R23 , BYTE4 ( 0x200 )
                 	__GETD1N 0x200
001562 940e 2135 	CALL __MULD12U
001564 81af      	LDD  R26,Y+7
001565 85b8      	LDD  R27,Y+7+1
001566 2788      	CLR  R24
001567 2799      	CLR  R25
001568 0fea      	ADD  R30,R26
001569 1ffb      	ADC  R31,R27
00156a 93fa      	ST   -Y,R31
00156b 93ea      	ST   -Y,R30
00156c e0a0      	LDI  R26,LOW(512)
00156d e0b2      	LDI  R27,HIGH(512)
00156e 940e 1a0a 	CALL _memcpy
001570 940e 1ec0 	CALL SUBOPT_0x98
                 _0x204016E:
001572 940e 1ed8 	CALL SUBOPT_0x9C
001574 0fe3      	ADD  R30,R19
001575 93ec      	ST   X,R30
                +
001576 2fe3     +MOV R30 , R19
001577 2ff4     +MOV R31 , R20
                 	__GETW1R 19,20
001578 0fee      	LSL  R30
001579 1fff      	ROL  R31
00157a 2ffe      	MOV  R31,R30
00157b e0e0      	LDI  R30,0
                +
00157c 2f1e     +MOV R17 , R30
00157d 2f2f     +MOV R18 , R31
                 	__PUTW1R 17,18
00157e c04c      	RJMP _0x204015D
                 _0x204016B:
00157f 940e 1ecc 	CALL SUBOPT_0x9A
001581 940e 21f8 	CALL __CPD12
001583 f0d9      	BREQ _0x204016F
001584 940e 1e80 	CALL SUBOPT_0x8F
001586 010d      	MOVW R0,R26
001587 940e 1e7a 	CALL SUBOPT_0x8E
001589 01d0      	MOVW R26,R0
00158a 940e 21fd 	CALL __CPD21
00158c f458      	BRSH _0x2040171
00158d 940e 1e64 	CALL SUBOPT_0x8A
00158f 940e 1eab 	CALL SUBOPT_0x96
001591 940e 1d0c 	CALL SUBOPT_0x59
001593 e0a1      	LDI  R26,LOW(1)
001594 940e 06ec 	CALL _disk_read
001596 30e0      	CPI  R30,0
001597 f409      	BRNE _0x2040172
                 _0x2040171:
001598 c006      	RJMP _0x2040170
                 _0x2040172:
001599 940e 1e9e 	CALL SUBOPT_0x94
00159b e0e1      	LDI  R30,LOW(1)
00159c 940e 220a 	CALL __LOADLOCR5
00159e c289      	RJMP _0x20E0005
                 _0x2040170:
                 _0x204016F:
00159f 940e 1caf 	CALL SUBOPT_0x47
0015a1 940e 1edd 	CALL SUBOPT_0x9D
0015a3 940e 1ed8 	CALL SUBOPT_0x9C
0015a5 5fef      	SUBI R30,-LOW(1)
0015a6 93ec      	ST   X,R30
                 _0x2040160:
0015a7 940e 1ee3 	CALL SUBOPT_0x9E
0015a9 e0a0      	LDI  R26,LOW(512)
0015aa e0b2      	LDI  R27,HIGH(512)
0015ab 1bae      	SUB  R26,R30
0015ac 0bbf      	SBC  R27,R31
                +
0015ad 2f1a     +MOV R17 , R26
0015ae 2f2b     +MOV R18 , R27
                 	__PUTW2R 17,18
0015af 89e9      	LDD  R30,Y+17
0015b0 89fa      	LDD  R31,Y+17+1
0015b1 17e1      	CP   R30,R17
0015b2 07f2      	CPC  R31,R18
0015b3 f410      	BRSH _0x2040173
                +
0015b4 8919     +LDD R17 , Y + 17
0015b5 892a     +LDD R18 , Y + 17 + 1
                 	__GETWRS 17,18,17
                 _0x2040173:
0015b6 940e 1ee3 	CALL SUBOPT_0x9E
0015b8 89ad      	LDD  R26,Y+21
0015b9 89be      	LDD  R27,Y+21+1
0015ba 9690      	ADIW R26,32
0015bb 0fea      	ADD  R30,R26
0015bc 1ffb      	ADC  R31,R27
0015bd 93fa      	ST   -Y,R31
0015be 93ea      	ST   -Y,R30
0015bf 81ef      	LDD  R30,Y+7
0015c0 85f8      	LDD  R31,Y+7+1
0015c1 93fa      	ST   -Y,R31
0015c2 93ea      	ST   -Y,R30
                +
0015c3 2fa1     +MOV R26 , R17
0015c4 2fb2     +MOV R27 , R18
                 	__GETW2R 17,18
0015c5 940e 1a0a 	CALL _memcpy
0015c7 940e 1eea 	CALL SUBOPT_0x9F
0015c9 64e0      	ORI  R30,0x40
0015ca 93ec      	ST   X,R30
                 _0x204015D:
                +
0015cb 2fe1     +MOV R30 , R17
0015cc 2ff2     +MOV R31 , R18
                 	__GETW1R 17,18
0015cd 81ad      	LDD  R26,Y+5
0015ce 81be      	LDD  R27,Y+5+1
0015cf 0fea      	ADD  R30,R26
0015d0 1ffb      	ADC  R31,R27
0015d1 83ed      	STD  Y+5,R30
0015d2 83fe      	STD  Y+5+1,R31
0015d3 940e 1eef 	CALL SUBOPT_0xA0
0015d5 01df      	MOVW R26,R30
0015d6 01cb      	MOVW R24,R22
                +
0015d7 2fe1     +MOV R30 , R17
0015d8 2ff2     +MOV R31 , R18
                 	__GETW1R 17,18
0015d9 940e 1d4a 	CALL SUBOPT_0x62
0015db 01d0      	MOVW R26,R0
0015dc 940e 21b5 	CALL __PUTDP1
0015de 85af      	LDD  R26,Y+15
0015df 89b8      	LDD  R27,Y+15+1
0015e0 91ed      	LD   R30,X+
0015e1 91fd      	LD   R31,X+
0015e2 0fe1      	ADD  R30,R17
0015e3 1ff2      	ADC  R31,R18
0015e4 93fe      	ST   -X,R31
0015e5 93ee      	ST   -X,R30
0015e6 89e9      	LDD  R30,Y+17
0015e7 89fa      	LDD  R31,Y+17+1
0015e8 1be1      	SUB  R30,R17
0015e9 0bf2      	SBC  R31,R18
0015ea 8be9      	STD  Y+17,R30
0015eb 8bfa      	STD  Y+17+1,R31
0015ec ce84      	RJMP _0x204015E
                 _0x204015F:
0015ed 940e 1e80 	CALL SUBOPT_0x8F
0015ef 010d      	MOVW R0,R26
0015f0 940e 1e7a 	CALL SUBOPT_0x8E
0015f2 01d0      	MOVW R26,R0
0015f3 940e 21f8 	CALL __CPD12
0015f5 f420      	BRSH _0x2040174
0015f6 940e 1ef7 	CALL SUBOPT_0xA1
0015f8 940e 1efd 	CALL SUBOPT_0xA2
                 _0x2040174:
0015fa 940e 1eea 	CALL SUBOPT_0x9F
0015fc 62e0      	ORI  R30,0x20
0015fd 93ec      	ST   X,R30
0015fe e0e0      	LDI  R30,LOW(0)
0015ff 940e 220a 	CALL __LOADLOCR5
001601 c226      	RJMP _0x20E0005
                 ; .FEND
                 _f_sync:
                 ; .FSTART _f_sync
001602 93ba      	ST   -Y,R27
001603 93aa      	ST   -Y,R26
001604 9724      	SBIW R28,4
001605 940e 2205 	CALL __SAVELOCR3
001607 940e 1f03 	CALL SUBOPT_0xA3
001609 93fa      	ST   -Y,R31
00160a 93ea      	ST   -Y,R30
00160b 85e9      	LDD  R30,Y+9
00160c 85fa      	LDD  R31,Y+9+1
00160d 940e 1e6e 	CALL SUBOPT_0x8C
00160f f009      	BREQ PC+2
001610 c07f      	RJMP _0x2040175
001611 81ef      	LDD  R30,Y+7
001612 85f8      	LDD  R31,Y+7+1
001613 81a4      	LDD  R26,Z+4
001614 72a0      	ANDI R26,LOW(0x20)
001615 f409      	BRNE PC+2
001616 c079      	RJMP _0x2040176
001617 81a4      	LDD  R26,Z+4
001618 74a0      	ANDI R26,LOW(0x40)
001619 f0f1      	BREQ _0x2040177
00161a 940e 1f03 	CALL SUBOPT_0xA3
00161c 81e1      	LDD  R30,Z+1
00161d 93ea      	ST   -Y,R30
00161e 85e8      	LDD  R30,Y+8
00161f 85f9      	LDD  R31,Y+8+1
001620 96b0      	ADIW R30,32
001621 93fa      	ST   -Y,R31
001622 93ea      	ST   -Y,R30
001623 85ea      	LDD  R30,Y+10
001624 85fb      	LDD  R31,Y+10+1
                +
001625 89a6     +LDD R26 , Z + 22
001626 89b7     +LDD R27 , Z + 22 + 1
001627 8d80     +LDD R24 , Z + 22 + 2
001628 8d91     +LDD R25 , Z + 22 + 3
                 	__GETD2Z 22
001629 940e 21dc 	CALL __PUTPARD2
00162b e0a1      	LDI  R26,LOW(1)
00162c 940e 0750 	CALL _disk_write
00162e 30e0      	CPI  R30,0
00162f f011      	BREQ _0x2040178
001630 e0e1      	LDI  R30,LOW(1)
001631 c05f      	RJMP _0x20E0006
                 _0x2040178:
001632 81af      	LDD  R26,Y+7
001633 85b8      	LDD  R27,Y+7+1
001634 9614      	ADIW R26,4
001635 91ec      	LD   R30,X
001636 7bef      	ANDI R30,0xBF
001637 93ec      	ST   X,R30
                 _0x2040177:
001638 940e 1f03 	CALL SUBOPT_0xA3
00163a 93fa      	ST   -Y,R31
00163b 93ea      	ST   -Y,R30
00163c 85e9      	LDD  R30,Y+9
00163d 85fa      	LDD  R31,Y+9+1
                +
00163e 8da2     +LDD R26 , Z + 26
00163f 8db3     +LDD R27 , Z + 26 + 1
001640 8d84     +LDD R24 , Z + 26 + 2
001641 8d95     +LDD R25 , Z + 26 + 3
                 	__GETD2Z 26
001642 940e 0a2a 	CALL _move_window_G102
001644 2f0e      	MOV  R16,R30
001645 3000      	CPI  R16,0
001646 f009      	BREQ PC+2
001647 c048      	RJMP _0x2040179
001648 81af      	LDD  R26,Y+7
001649 85b8      	LDD  R27,Y+7+1
00164a 965e      	ADIW R26,30
00164b 911d      	LD   R17,X+
00164c 912c      	LD   R18,X
                +
00164d 2fa1     +MOV R26 , R17
00164e 2fb2     +MOV R27 , R18
                 	__GETW2R 17,18
00164f 961b      	ADIW R26,11
001650 91ec      	LD   R30,X
001651 62e0      	ORI  R30,0x20
001652 93ec      	ST   X,R30
001653 81af      	LDD  R26,Y+7
001654 85b8      	LDD  R27,Y+7+1
001655 961a      	ADIW R26,10
001656 940e 21aa 	CALL __GETD1P
                +
001658 2fa1     +MOV R26 , R17
001659 2fb2     +MOV R27 , R18
00165a 965c     +ADIW R26 , 28
00165b 940e 21b5+CALL __PUTDP1
                 	__PUTD1RONS 17,18,28
00165d 81af      	LDD  R26,Y+7
00165e 85b8      	LDD  R27,Y+7+1
00165f 961e      	ADIW R26,14
001660 940e 21a6 	CALL __GETW1P
                +
001662 2fa1     +MOV R26 , R17
001663 2fb2     +MOV R27 , R18
001664 965a     +ADIW R26 , 26
001665 93ed     +ST X + , R30
001666 93fc     +ST X , R31
                 	__PUTW1RONS 17,18,26
001667 81ef      	LDD  R30,Y+7
001668 85f8      	LDD  R31,Y+7+1
                +
001669 85a6     +LDD R26 , Z + 14
00166a 85b7     +LDD R27 , Z + 14 + 1
00166b 8980     +LDD R24 , Z + 14 + 2
00166c 8991     +LDD R25 , Z + 14 + 3
                 	__GETD2Z 14
00166d 01fd      	MOVW R30,R26
00166e 01bc      	MOVW R22,R24
00166f 940e 2121 	CALL __LSRD16
                +
001671 2fa1     +MOV R26 , R17
001672 2fb2     +MOV R27 , R18
001673 9654     +ADIW R26 , 20
001674 93ed     +ST X + , R30
001675 93fc     +ST X , R31
                 	__PUTW1RONS 17,18,20
001676 940e 0992 	CALL _get_fattime
001678 940e 1d7b 	CALL SUBOPT_0x69
                +
00167a 2fa1     +MOV R26 , R17
00167b 2fb2     +MOV R27 , R18
00167c 9656     +ADIW R26 , 22
00167d 940e 21b5+CALL __PUTDP1
                 	__PUTD1RONS 17,18,22
00167f 81af      	LDD  R26,Y+7
001680 85b8      	LDD  R27,Y+7+1
001681 9614      	ADIW R26,4
001682 91ec      	LD   R30,X
001683 7def      	ANDI R30,0xDF
001684 93ec      	ST   X,R30
001685 940e 1f03 	CALL SUBOPT_0xA3
001687 9634      	ADIW R30,4
001688 e0a1      	LDI  R26,LOW(1)
001689 83a0      	STD  Z+0,R26
00168a 940e 1f03 	CALL SUBOPT_0xA3
00168c 01df      	MOVW R26,R30
00168d 940e 0a8d 	CALL _sync_G102
00168f 2f0e      	MOV  R16,R30
                 _0x2040179:
                 _0x2040176:
                 _0x2040175:
001690 2fe0      	MOV  R30,R16
                 _0x20E0006:
001691 940e 220c 	CALL __LOADLOCR3
001693 9629      	ADIW R28,9
001694 9508      	RET
                 ; .FEND
                 _f_close:
                 ; .FSTART _f_close
001695 93ba      	ST   -Y,R27
001696 93aa      	ST   -Y,R26
001697 930a      	ST   -Y,R16
001698 81a9      	LDD  R26,Y+1
001699 81ba      	LDD  R27,Y+1+1
00169a df67      	RCALL _f_sync
00169b 2f0e      	MOV  R16,R30
00169c 3000      	CPI  R16,0
00169d f421      	BRNE _0x204017A
00169e 81a9      	LDD  R26,Y+1
00169f 81ba      	LDD  R27,Y+1+1
0016a0 940e 1de5 	CALL SUBOPT_0x76
                 _0x204017A:
0016a2 2fe0      	MOV  R30,R16
0016a3 8108      	LDD  R16,Y+0
0016a4 9623      	ADIW R28,3
0016a5 9508      	RET
                 ; .FEND
                 _f_lseek:
                 ; .FSTART _f_lseek
0016a6 940e 21dc 	CALL __PUTPARD2
0016a8 9760      	SBIW R28,16
0016a9 930a      	ST   -Y,R16
0016aa 940e 1e64 	CALL SUBOPT_0x8A
0016ac 940e 1e69 	CALL SUBOPT_0x8B
0016ae 940e 1e6e 	CALL SUBOPT_0x8C
0016b0 f009      	BREQ _0x2040183
0016b1 c174      	RJMP _0x20E0004
                 _0x2040183:
0016b2 89ed      	LDD  R30,Y+21
0016b3 89fe      	LDD  R31,Y+21+1
0016b4 81a4      	LDD  R26,Z+4
0016b5 78a0      	ANDI R26,LOW(0x80)
0016b6 f011      	BREQ _0x2040184
0016b7 e0e2      	LDI  R30,LOW(2)
0016b8 c16e      	RJMP _0x20E0003
                 _0x2040184:
0016b9 940e 1e7a 	CALL SUBOPT_0x8E
0016bb 940e 1e23 	CALL SUBOPT_0x7F
0016bd 940e 21f8 	CALL __CPD12
0016bf f418      	BRSH _0x2040186
0016c0 940e 1e75 	CALL SUBOPT_0x8D
0016c2 f009      	BREQ _0x2040187
                 _0x2040186:
0016c3 c004      	RJMP _0x2040185
                 _0x2040187:
0016c4 940e 1e7a 	CALL SUBOPT_0x8E
0016c6 940e 1e19 	CALL SUBOPT_0x7D
                 _0x2040185:
0016c8 89ad      	LDD  R26,Y+21
0016c9 89be      	LDD  R27,Y+21+1
0016ca 9616      	ADIW R26,6
0016cb 940e 1b6b 	CALL SUBOPT_0x20
0016cd 940e 1d07 	CALL SUBOPT_0x58
0016cf 940e 1c44 	CALL SUBOPT_0x3B
0016d1 940e 1f08 	CALL SUBOPT_0xA4
0016d3 89ad      	LDD  R26,Y+21
0016d4 89be      	LDD  R27,Y+21+1
0016d5 9615      	ADIW R26,5
0016d6 efef      	LDI  R30,LOW(255)
0016d7 93ec      	ST   X,R30
0016d8 940e 1e23 	CALL SUBOPT_0x7F
0016da 940e 21f2 	CALL __CPD02
0016dc f008      	BRLO PC+2
0016dd c101      	RJMP _0x2040188
0016de 940e 1e64 	CALL SUBOPT_0x8A
0016e0 81e2      	LDD  R30,Z+2
0016e1 e0f0      	LDI  R31,0
0016e2 940e 212b 	CALL __CWD1
                +
0016e4 e0a0     +LDI R26 , LOW ( 0x200 )
0016e5 e0b2     +LDI R27 , HIGH ( 0x200 )
0016e6 e080     +LDI R24 , BYTE3 ( 0x200 )
0016e7 e090     +LDI R25 , BYTE4 ( 0x200 )
                 	__GETD2N 0x200
0016e8 940e 2135 	CALL __MULD12U
                +
0016ea 87e9     +STD Y + 9 , R30
0016eb 87fa     +STD Y + 9 + 1 , R31
0016ec 876b     +STD Y + 9 + 2 , R22
0016ed 877c     +STD Y + 9 + 3 , R23
                 	__PUTD1S 9
0016ee 940e 1b77 	CALL SUBOPT_0x22
0016f0 940e 21f2 	CALL __CPD02
0016f2 f498      	BRSH _0x204018A
0016f3 940e 1e1e 	CALL SUBOPT_0x7E
0016f5 940e 1f0e 	CALL SUBOPT_0xA5
0016f7 937f      	PUSH R23
0016f8 936f      	PUSH R22
0016f9 93ff      	PUSH R31
0016fa 93ef      	PUSH R30
0016fb 940e 1c9a 	CALL SUBOPT_0x44
0016fd 940e 1f0e 	CALL SUBOPT_0xA5
0016ff 91af      	POP  R26
001700 91bf      	POP  R27
001701 918f      	POP  R24
001702 919f      	POP  R25
001703 940e 21fd 	CALL __CPD21
001705 f408      	BRSH _0x204018B
                 _0x204018A:
001706 c020      	RJMP _0x2040189
                 _0x204018B:
001707 940e 1c9a 	CALL SUBOPT_0x44
001709 940e 1e5f 	CALL SUBOPT_0x89
00170b 01df      	MOVW R26,R30
00170c 01cb      	MOVW R24,R22
00170d 940e 1ed3 	CALL SUBOPT_0x9B
00170f 940e 1e5f 	CALL SUBOPT_0x89
001711 940e 2130 	CALL __COMD1
001713 940e 20dc 	CALL __ANDD12
001715 940e 1f08 	CALL SUBOPT_0xA4
001717 940e 1ef7 	CALL SUBOPT_0xA1
001719 940e 1e23 	CALL SUBOPT_0x7F
00171b 940e 20d7 	CALL __SUBD21
                +
00171d 8ba9     +STD Y + 17 , R26
00171e 8bba     +STD Y + 17 + 1 , R27
00171f 8b8b     +STD Y + 17 + 2 , R24
001720 8b9c     +STD Y + 17 + 3 , R25
                 	__PUTD2S 17
001721 89ad      	LDD  R26,Y+21
001722 89be      	LDD  R27,Y+21+1
001723 9652      	ADIW R26,18
001724 940e 1e40 	CALL SUBOPT_0x84
001726 c028      	RJMP _0x204018C
                 _0x2040189:
001727 89ad      	LDD  R26,Y+21
001728 89be      	LDD  R27,Y+21+1
001729 961e      	ADIW R26,14
00172a 940e 1e40 	CALL SUBOPT_0x84
00172c 940e 1e39 	CALL SUBOPT_0x83
00172e f4e1      	BRNE _0x204018D
00172f 940e 1e64 	CALL SUBOPT_0x8A
001731 940e 1e93 	CALL SUBOPT_0x92
001733 940e 1e34 	CALL SUBOPT_0x82
001735 940e 1c39 	CALL SUBOPT_0x39
001737 940e 1c9f 	CALL SUBOPT_0x45
001739 f421      	BRNE _0x204018E
00173a 940e 1e9e 	CALL SUBOPT_0x94
00173c e0e2      	LDI  R30,LOW(2)
00173d c0e9      	RJMP _0x20E0003
                 _0x204018E:
00173e 940e 1c39 	CALL SUBOPT_0x39
001740 940e 1ca7 	CALL SUBOPT_0x46
001742 f421      	BRNE _0x204018F
001743 940e 1e9e 	CALL SUBOPT_0x94
001745 e0e1      	LDI  R30,LOW(1)
001746 c0e0      	RJMP _0x20E0003
                 _0x204018F:
001747 940e 1f15 	CALL SUBOPT_0xA6
001749 940e 1e98 	CALL SUBOPT_0x93
                 _0x204018D:
00174b 940e 1f15 	CALL SUBOPT_0xA6
00174d 940e 1ea5 	CALL SUBOPT_0x95
                 _0x204018C:
00174f 940e 1e39 	CALL SUBOPT_0x83
001751 f409      	BRNE PC+2
001752 c08c      	RJMP _0x2040190
                 _0x2040191:
001753 940e 1ed3 	CALL SUBOPT_0x9B
001755 940e 1e23 	CALL SUBOPT_0x7F
001757 940e 21f8 	CALL __CPD12
001759 f008      	BRLO PC+2
00175a c04b      	RJMP _0x2040193
00175b 940e 1e75 	CALL SUBOPT_0x8D
00175d f089      	BREQ _0x2040194
00175e 940e 1e64 	CALL SUBOPT_0x8A
001760 940e 1f1a 	CALL SUBOPT_0xA7
001762 940e 0c64 	CALL _create_chain_G102
001764 940e 1e34 	CALL SUBOPT_0x82
001766 940e 1e39 	CALL SUBOPT_0x83
001768 f429      	BRNE _0x2040195
001769 940e 1ed3 	CALL SUBOPT_0x9B
00176b 940e 1e19 	CALL SUBOPT_0x7D
00176d c038      	RJMP _0x2040193
                 _0x2040195:
00176e c008      	RJMP _0x2040196
                 _0x2040194:
00176f 940e 1e64 	CALL SUBOPT_0x8A
001771 940e 1f1a 	CALL SUBOPT_0xA7
001773 940e 0af7 	CALL _get_fat
001775 940e 1e34 	CALL SUBOPT_0x82
                 _0x2040196:
001777 940e 1c39 	CALL SUBOPT_0x39
001779 940e 1ca7 	CALL SUBOPT_0x46
00177b f421      	BRNE _0x2040197
00177c 940e 1e9e 	CALL SUBOPT_0x94
00177e e0e1      	LDI  R30,LOW(1)
00177f c0a7      	RJMP _0x20E0003
                 _0x2040197:
001780 940e 1c39 	CALL SUBOPT_0x39
001782 940e 1bd4 	CALL SUBOPT_0x2D
001784 f038      	BRLO _0x2040199
001785 940e 1e64 	CALL SUBOPT_0x8A
001787 967e      	ADIW R30,30
001788 01df      	MOVW R26,R30
001789 940e 1c3e 	CALL SUBOPT_0x3A
00178b f020      	BRLO _0x2040198
                 _0x2040199:
00178c 940e 1e9e 	CALL SUBOPT_0x94
00178e e0e2      	LDI  R30,LOW(2)
00178f c097      	RJMP _0x20E0003
                 _0x2040198:
001790 940e 1f15 	CALL SUBOPT_0xA6
001792 940e 1ea5 	CALL SUBOPT_0x95
001794 940e 1eef 	CALL SUBOPT_0xA0
001796 940e 1c6a 	CALL SUBOPT_0x3E
001798 940e 20c8 	CALL __ADDD12
00179a 01d0      	MOVW R26,R0
00179b 940e 21b5 	CALL __PUTDP1
00179d 940e 1c6a 	CALL SUBOPT_0x3E
00179f 940e 1e1e 	CALL SUBOPT_0x7E
0017a1 940e 20d2 	CALL __SUBD12
0017a3 940e 1e19 	CALL SUBOPT_0x7D
0017a5 cfad      	RJMP _0x2040191
                 _0x2040193:
0017a6 940e 1eef 	CALL SUBOPT_0xA0
0017a8 940e 1e23 	CALL SUBOPT_0x7F
0017aa 940e 20c8 	CALL __ADDD12
0017ac 01d0      	MOVW R26,R0
0017ad 940e 21b5 	CALL __PUTDP1
0017af 940e 1e23 	CALL SUBOPT_0x7F
                +
0017b1 e0e0     +LDI R30 , LOW ( 0x200 )
0017b2 e0f2     +LDI R31 , HIGH ( 0x200 )
0017b3 e060     +LDI R22 , BYTE3 ( 0x200 )
0017b4 e070     +LDI R23 , BYTE4 ( 0x200 )
                 	__GETD1N 0x200
0017b5 940e 2173 	CALL __DIVD21U
                +
0017b7 89ad     +LDD R26 , Y + 21
0017b8 89be     +LDD R27 , Y + 21 + 1
0017b9 9615     +ADIW R26 , 5
0017ba 93ec     +ST X , R30
                 	__PUTB1SNS 21,5
0017bb 940e 1e1e 	CALL SUBOPT_0x7E
0017bd 70f1      	ANDI R31,HIGH(0x1FF)
0017be 9730      	SBIW R30,0
0017bf f0f9      	BREQ _0x204019B
0017c0 940e 1e64 	CALL SUBOPT_0x8A
0017c2 940e 1f1a 	CALL SUBOPT_0xA7
0017c4 940e 0d2b 	CALL _clust2sect
0017c6 940e 1c44 	CALL SUBOPT_0x3B
0017c8 940e 1b72 	CALL SUBOPT_0x21
0017ca 940e 21ee 	CALL __CPD10
0017cc f421      	BRNE _0x204019C
0017cd 940e 1e9e 	CALL SUBOPT_0x94
0017cf e0e2      	LDI  R30,LOW(2)
0017d0 c056      	RJMP _0x20E0003
                 _0x204019C:
0017d1 940e 1ec7 	CALL SUBOPT_0x99
0017d3 940e 1c8c 	CALL SUBOPT_0x42
0017d5 940e 212b 	CALL __CWD1
0017d7 940e 20c8 	CALL __ADDD12
0017d9 940e 1c44 	CALL SUBOPT_0x3B
0017db 940e 1ed8 	CALL SUBOPT_0x9C
0017dd 5fef      	SUBI R30,-LOW(1)
0017de 93ec      	ST   X,R30
                 _0x204019B:
                 _0x2040190:
                 _0x2040188:
0017df 940e 1e80 	CALL SUBOPT_0x8F
0017e1 01fd      	MOVW R30,R26
0017e2 01bc      	MOVW R22,R24
0017e3 70f1      	ANDI R31,HIGH(0x1FF)
0017e4 9730      	SBIW R30,0
0017e5 f051      	BREQ _0x204019E
0017e6 89ad      	LDD  R26,Y+21
0017e7 89be      	LDD  R27,Y+21+1
0017e8 9656      	ADIW R26,22
0017e9 940e 21aa 	CALL __GETD1P
0017eb 940e 1c8c 	CALL SUBOPT_0x42
0017ed 940e 21f8 	CALL __CPD12
0017ef f409      	BRNE _0x204019F
                 _0x204019E:
0017f0 c024      	RJMP _0x204019D
                 _0x204019F:
0017f1 89ed      	LDD  R30,Y+21
0017f2 89fe      	LDD  R31,Y+21+1
0017f3 81a4      	LDD  R26,Z+4
0017f4 74a0      	ANDI R26,LOW(0x40)
0017f5 f069      	BREQ _0x20401A0
0017f6 940e 1e64 	CALL SUBOPT_0x8A
0017f8 940e 1eab 	CALL SUBOPT_0x96
0017fa 940e 1eb3 	CALL SUBOPT_0x97
0017fc f021      	BREQ _0x20401A1
0017fd 940e 1e9e 	CALL SUBOPT_0x94
0017ff e0e1      	LDI  R30,LOW(1)
001800 c026      	RJMP _0x20E0003
                 _0x20401A1:
001801 940e 1ec0 	CALL SUBOPT_0x98
                 _0x20401A0:
001803 940e 1e64 	CALL SUBOPT_0x8A
001805 81e1      	LDD  R30,Z+1
001806 93ea      	ST   -Y,R30
001807 89ee      	LDD  R30,Y+22
001808 89ff      	LDD  R31,Y+22+1
001809 96b0      	ADIW R30,32
00180a 940e 1b93 	CALL SUBOPT_0x25
00180c f021      	BREQ _0x20401A2
00180d 940e 1e9e 	CALL SUBOPT_0x94
00180f e0e1      	LDI  R30,LOW(1)
001810 c016      	RJMP _0x20E0003
                 _0x20401A2:
001811 940e 1b72 	CALL SUBOPT_0x21
001813 940e 1edd 	CALL SUBOPT_0x9D
                 _0x204019D:
001815 940e 1e80 	CALL SUBOPT_0x8F
001817 010d      	MOVW R0,R26
001818 940e 1e7a 	CALL SUBOPT_0x8E
00181a 01d0      	MOVW R26,R0
00181b 940e 21f8 	CALL __CPD12
00181d f440      	BRSH _0x20401A3
00181e 940e 1ef7 	CALL SUBOPT_0xA1
001820 940e 1efd 	CALL SUBOPT_0xA2
001822 940e 1eea 	CALL SUBOPT_0x9F
001824 62e0      	ORI  R30,0x20
001825 93ec      	ST   X,R30
                 _0x20401A3:
                 _0x20E0004:
001826 2fe0      	MOV  R30,R16
                 _0x20E0003:
001827 8108      	LDD  R16,Y+0
                 _0x20E0005:
001828 9667      	ADIW R28,23
001829 9508      	RET
                 ; .FEND
                 	#ifndef __SLEEP_DEFINED__
                 	#endif
                 
                 	.CSEG
                 _put_buff_G103:
                 ; .FSTART _put_buff_G103
00182a 93ba      	ST   -Y,R27
00182b 93aa      	ST   -Y,R26
00182c 931a      	ST   -Y,R17
00182d 930a      	ST   -Y,R16
00182e 81aa      	LDD  R26,Y+2
00182f 81bb      	LDD  R27,Y+2+1
001830 9612      	ADIW R26,2
001831 940e 21a6 	CALL __GETW1P
001833 9730      	SBIW R30,0
001834 f129      	BREQ _0x206002D
001835 81aa      	LDD  R26,Y+2
001836 81bb      	LDD  R27,Y+2+1
001837 9614      	ADIW R26,4
001838 940e 21a6 	CALL __GETW1P
00183a 018f      	MOVW R16,R30
00183b 9730      	SBIW R30,0
00183c f061      	BREQ _0x206002F
                +
00183d 3002     +CPI R16 , LOW ( 2 )
00183e e0e0     +LDI R30 , HIGH ( 2 )
00183f 071e     +CPC R17 , R30
                 	__CPWRN 16,17,2
001840 f080      	BRLO _0x2060030
001841 01f8      	MOVW R30,R16
001842 9731      	SBIW R30,1
001843 018f      	MOVW R16,R30
                +
001844 81aa     +LDD R26 , Y + 2
001845 81bb     +LDD R27 , Y + 2 + 1
001846 9614     +ADIW R26 , 4
001847 93ed     +ST X + , R30
001848 93fc     +ST X , R31
                 	__PUTW1SNS 2,4
                 _0x206002F:
001849 81aa      	LDD  R26,Y+2
00184a 81bb      	LDD  R27,Y+2+1
00184b 9612      	ADIW R26,2
00184c 940e 1e52 	CALL SUBOPT_0x87
00184e 9731      	SBIW R30,1
00184f 81ac      	LDD  R26,Y+4
001850 83a0      	STD  Z+0,R26
                 _0x2060030:
001851 81aa      	LDD  R26,Y+2
001852 81bb      	LDD  R27,Y+2+1
001853 940e 21a6 	CALL __GETW1P
001855 23ff      	TST  R31
001856 f012      	BRMI _0x2060031
001857 940e 1e52 	CALL SUBOPT_0x87
                 _0x2060031:
001859 c006      	RJMP _0x2060032
                 _0x206002D:
00185a 81aa      	LDD  R26,Y+2
00185b 81bb      	LDD  R27,Y+2+1
00185c efef      	LDI  R30,LOW(65535)
00185d efff      	LDI  R31,HIGH(65535)
00185e 93ed      	ST   X+,R30
00185f 93fc      	ST   X,R31
                 _0x2060032:
001860 8119      	LDD  R17,Y+1
001861 8108      	LDD  R16,Y+0
001862 940c 1a2a 	JMP  _0x20E0001
                 ; .FEND
                 __print_G103:
                 ; .FSTART __print_G103
001864 93ba      	ST   -Y,R27
001865 93aa      	ST   -Y,R26
001866 9726      	SBIW R28,6
001867 940e 2202 	CALL __SAVELOCR6
001869 e000      	LDI  R16,0
00186a 85ac      	LDD  R26,Y+12
00186b 85bd      	LDD  R27,Y+12+1
00186c 940e 1de5 	CALL SUBOPT_0x76
                 _0x2060037:
00186e 89ea      	LDD  R30,Y+18
00186f 89fb      	LDD  R31,Y+18+1
001870 9631      	ADIW R30,1
001871 8bea      	STD  Y+18,R30
001872 8bfb      	STD  Y+18+1,R31
001873 9731      	SBIW R30,1
001874 91e4      	LPM  R30,Z
001875 2f3e      	MOV  R19,R30
001876 30e0      	CPI  R30,0
001877 f409      	BRNE PC+2
001878 c11f      	RJMP _0x2060039
001879 2fe0      	MOV  R30,R16
00187a 30e0      	CPI  R30,0
00187b f439      	BRNE _0x206003D
00187c 3235      	CPI  R19,37
00187d f411      	BRNE _0x206003E
00187e e001      	LDI  R16,LOW(1)
00187f c002      	RJMP _0x206003F
                 _0x206003E:
001880 940e 1f21 	CALL SUBOPT_0xA8
                 _0x206003F:
001882 c114      	RJMP _0x206003C
                 _0x206003D:
001883 30e1      	CPI  R30,LOW(0x1)
001884 f4a9      	BRNE _0x2060040
001885 3235      	CPI  R19,37
001886 f419      	BRNE _0x2060041
001887 940e 1f21 	CALL SUBOPT_0xA8
001889 c10c      	RJMP _0x20600F5
                 _0x2060041:
00188a e002      	LDI  R16,LOW(2)
00188b e050      	LDI  R21,LOW(0)
00188c e010      	LDI  R17,LOW(0)
00188d 323d      	CPI  R19,45
00188e f411      	BRNE _0x2060042
00188f e011      	LDI  R17,LOW(1)
001890 c106      	RJMP _0x206003C
                 _0x2060042:
001891 323b      	CPI  R19,43
001892 f411      	BRNE _0x2060043
001893 e25b      	LDI  R21,LOW(43)
001894 c102      	RJMP _0x206003C
                 _0x2060043:
001895 3230      	CPI  R19,32
001896 f411      	BRNE _0x2060044
001897 e250      	LDI  R21,LOW(32)
001898 c0fe      	RJMP _0x206003C
                 _0x2060044:
001899 c002      	RJMP _0x2060045
                 _0x2060040:
00189a 30e2      	CPI  R30,LOW(0x2)
00189b f439      	BRNE _0x2060046
                 _0x2060045:
00189c e040      	LDI  R20,LOW(0)
00189d e003      	LDI  R16,LOW(3)
00189e 3330      	CPI  R19,48
00189f f411      	BRNE _0x2060047
0018a0 6810      	ORI  R17,LOW(128)
0018a1 c0f5      	RJMP _0x206003C
                 _0x2060047:
0018a2 c003      	RJMP _0x2060048
                 _0x2060046:
0018a3 30e3      	CPI  R30,LOW(0x3)
0018a4 f009      	BREQ PC+2
0018a5 c0f1      	RJMP _0x206003C
                 _0x2060048:
0018a6 3330      	CPI  R19,48
0018a7 f010      	BRLO _0x206004B
0018a8 333a      	CPI  R19,58
0018a9 f008      	BRLO _0x206004C
                 _0x206004B:
0018aa c007      	RJMP _0x206004A
                 _0x206004C:
0018ab e0aa      	LDI  R26,LOW(10)
0018ac 9f4a      	MUL  R20,R26
0018ad 2d40      	MOV  R20,R0
0018ae 2fe3      	MOV  R30,R19
0018af 53e0      	SUBI R30,LOW(48)
0018b0 0f4e      	ADD  R20,R30
0018b1 c0e5      	RJMP _0x206003C
                 _0x206004A:
0018b2 2fe3      	MOV  R30,R19
0018b3 36e3      	CPI  R30,LOW(0x63)
0018b4 f449      	BRNE _0x2060050
0018b5 940e 1f28 	CALL SUBOPT_0xA9
0018b7 89e8      	LDD  R30,Y+16
0018b8 89f9      	LDD  R31,Y+16+1
0018b9 81a4      	LDD  R26,Z+4
0018ba 93aa      	ST   -Y,R26
0018bb 940e 1f2e 	CALL SUBOPT_0xAA
0018bd c0d8      	RJMP _0x2060051
                 _0x2060050:
0018be 37e3      	CPI  R30,LOW(0x73)
0018bf f469      	BRNE _0x2060053
0018c0 940e 1f28 	CALL SUBOPT_0xA9
0018c2 89a8      	LDD  R26,Y+16
0018c3 89b9      	LDD  R27,Y+16+1
0018c4 9614      	ADIW R26,4
0018c5 940e 1db1 	CALL SUBOPT_0x6E
0018c7 81ae      	LDD  R26,Y+6
0018c8 81bf      	LDD  R27,Y+6+1
0018c9 940e 1a2c 	CALL _strlen
0018cb 2f0e      	MOV  R16,R30
0018cc c00f      	RJMP _0x2060054
                 _0x2060053:
0018cd 37e0      	CPI  R30,LOW(0x70)
0018ce f489      	BRNE _0x2060056
0018cf 940e 1f28 	CALL SUBOPT_0xA9
0018d1 89a8      	LDD  R26,Y+16
0018d2 89b9      	LDD  R27,Y+16+1
0018d3 9614      	ADIW R26,4
0018d4 940e 1db1 	CALL SUBOPT_0x6E
0018d6 81ae      	LDD  R26,Y+6
0018d7 81bf      	LDD  R27,Y+6+1
0018d8 940e 1a38 	CALL _strlenf
0018da 2f0e      	MOV  R16,R30
0018db 6018      	ORI  R17,LOW(8)
                 _0x2060054:
0018dc 6012      	ORI  R17,LOW(2)
0018dd 771f      	ANDI R17,LOW(127)
0018de e020      	LDI  R18,LOW(0)
0018df c034      	RJMP _0x2060057
                 _0x2060056:
0018e0 36e4      	CPI  R30,LOW(0x64)
0018e1 f011      	BREQ _0x206005A
0018e2 36e9      	CPI  R30,LOW(0x69)
0018e3 f411      	BRNE _0x206005B
                 _0x206005A:
0018e4 6014      	ORI  R17,LOW(4)
0018e5 c002      	RJMP _0x206005C
                 _0x206005B:
0018e6 37e5      	CPI  R30,LOW(0x75)
0018e7 f431      	BRNE _0x206005D
                 _0x206005C:
0018e8 ede0      	LDI  R30,LOW(_tbl10_G103*2)
0018e9 e0f0      	LDI  R31,HIGH(_tbl10_G103*2)
0018ea 83ee      	STD  Y+6,R30
0018eb 83ff      	STD  Y+6+1,R31
0018ec e005      	LDI  R16,LOW(5)
0018ed c00c      	RJMP _0x206005E
                 _0x206005D:
0018ee 35e8      	CPI  R30,LOW(0x58)
0018ef f411      	BRNE _0x2060060
0018f0 6018      	ORI  R17,LOW(8)
0018f1 c003      	RJMP _0x2060061
                 _0x2060060:
0018f2 37e8      	CPI  R30,LOW(0x78)
0018f3 f009      	BREQ PC+2
0018f4 c0a1      	RJMP _0x2060092
                 _0x2060061:
0018f5 edea      	LDI  R30,LOW(_tbl16_G103*2)
0018f6 e0f0      	LDI  R31,HIGH(_tbl16_G103*2)
0018f7 83ee      	STD  Y+6,R30
0018f8 83ff      	STD  Y+6+1,R31
0018f9 e004      	LDI  R16,LOW(4)
                 _0x206005E:
0018fa ff12      	SBRS R17,2
0018fb c014      	RJMP _0x2060063
0018fc 940e 1f28 	CALL SUBOPT_0xA9
0018fe 940e 1f34 	CALL SUBOPT_0xAB
001900 85ab      	LDD  R26,Y+11
001901 23aa      	TST  R26
001902 f43a      	BRPL _0x2060064
001903 85ea      	LDD  R30,Y+10
001904 85fb      	LDD  R31,Y+10+1
001905 940e 20e6 	CALL __ANEGW1
001907 87ea      	STD  Y+10,R30
001908 87fb      	STD  Y+10+1,R31
001909 e25d      	LDI  R21,LOW(45)
                 _0x2060064:
00190a 3050      	CPI  R21,0
00190b f011      	BREQ _0x2060065
00190c 5f0f      	SUBI R16,-LOW(1)
00190d c001      	RJMP _0x2060066
                 _0x2060065:
00190e 7f1b      	ANDI R17,LOW(251)
                 _0x2060066:
00190f c004      	RJMP _0x2060067
                 _0x2060063:
001910 940e 1f28 	CALL SUBOPT_0xA9
001912 940e 1f34 	CALL SUBOPT_0xAB
                 _0x2060067:
                 _0x2060057:
001914 fd10      	SBRC R17,0
001915 c011      	RJMP _0x2060068
                 _0x2060069:
001916 1704      	CP   R16,R20
001917 f478      	BRSH _0x206006B
001918 ff17      	SBRS R17,7
001919 c008      	RJMP _0x206006C
00191a ff12      	SBRS R17,2
00191b c004      	RJMP _0x206006D
00191c 7f1b      	ANDI R17,LOW(251)
00191d 2f35      	MOV  R19,R21
00191e 5001      	SUBI R16,LOW(1)
00191f c001      	RJMP _0x206006E
                 _0x206006D:
001920 e330      	LDI  R19,LOW(48)
                 _0x206006E:
001921 c001      	RJMP _0x206006F
                 _0x206006C:
001922 e230      	LDI  R19,LOW(32)
                 _0x206006F:
001923 940e 1f21 	CALL SUBOPT_0xA8
001925 5041      	SUBI R20,LOW(1)
001926 cfef      	RJMP _0x2060069
                 _0x206006B:
                 _0x2060068:
001927 2f20      	MOV  R18,R16
001928 ff11      	SBRS R17,1
001929 c017      	RJMP _0x2060070
                 _0x2060071:
00192a 3020      	CPI  R18,0
00192b f0a1      	BREQ _0x2060073
00192c ff13      	SBRS R17,3
00192d c006      	RJMP _0x2060074
00192e 81ee      	LDD  R30,Y+6
00192f 81ff      	LDD  R31,Y+6+1
001930 9135      	LPM  R19,Z+
001931 83ee      	STD  Y+6,R30
001932 83ff      	STD  Y+6+1,R31
001933 c005      	RJMP _0x2060075
                 _0x2060074:
001934 81ae      	LDD  R26,Y+6
001935 81bf      	LDD  R27,Y+6+1
001936 913d      	LD   R19,X+
001937 83ae      	STD  Y+6,R26
001938 83bf      	STD  Y+6+1,R27
                 _0x2060075:
001939 940e 1f21 	CALL SUBOPT_0xA8
00193b 3040      	CPI  R20,0
00193c f009      	BREQ _0x2060076
00193d 5041      	SUBI R20,LOW(1)
                 _0x2060076:
00193e 5021      	SUBI R18,LOW(1)
00193f cfea      	RJMP _0x2060071
                 _0x2060073:
001940 c04b      	RJMP _0x2060077
                 _0x2060070:
                 _0x2060079:
001941 e330      	LDI  R19,LOW(48)
001942 81ee      	LDD  R30,Y+6
001943 81ff      	LDD  R31,Y+6+1
001944 940e 21bf 	CALL __GETW1PF
001946 87e8      	STD  Y+8,R30
001947 87f9      	STD  Y+8+1,R31
001948 81ee      	LDD  R30,Y+6
001949 81ff      	LDD  R31,Y+6+1
00194a 9632      	ADIW R30,2
00194b 83ee      	STD  Y+6,R30
00194c 83ff      	STD  Y+6+1,R31
                 _0x206007B:
00194d 85e8      	LDD  R30,Y+8
00194e 85f9      	LDD  R31,Y+8+1
00194f 85aa      	LDD  R26,Y+10
001950 85bb      	LDD  R27,Y+10+1
001951 17ae      	CP   R26,R30
001952 07bf      	CPC  R27,R31
001953 f050      	BRLO _0x206007D
001954 5f3f      	SUBI R19,-LOW(1)
001955 85a8      	LDD  R26,Y+8
001956 85b9      	LDD  R27,Y+8+1
001957 85ea      	LDD  R30,Y+10
001958 85fb      	LDD  R31,Y+10+1
001959 1bea      	SUB  R30,R26
00195a 0bfb      	SBC  R31,R27
00195b 87ea      	STD  Y+10,R30
00195c 87fb      	STD  Y+10+1,R31
00195d cfef      	RJMP _0x206007B
                 _0x206007D:
00195e 333a      	CPI  R19,58
00195f f028      	BRLO _0x206007E
001960 ff13      	SBRS R17,3
001961 c002      	RJMP _0x206007F
001962 5f39      	SUBI R19,-LOW(7)
001963 c001      	RJMP _0x2060080
                 _0x206007F:
001964 5d39      	SUBI R19,-LOW(39)
                 _0x2060080:
                 _0x206007E:
001965 fd14      	SBRC R17,4
001966 c01a      	RJMP _0x2060082
001967 3331      	CPI  R19,49
001968 f420      	BRSH _0x2060084
001969 85a8      	LDD  R26,Y+8
00196a 85b9      	LDD  R27,Y+8+1
00196b 9711      	SBIW R26,1
00196c f409      	BRNE _0x2060083
                 _0x2060084:
00196d c009      	RJMP _0x20600F6
                 _0x2060083:
00196e 1742      	CP   R20,R18
00196f f010      	BRLO _0x2060088
001970 ff10      	SBRS R17,0
001971 c001      	RJMP _0x2060089
                 _0x2060088:
001972 c013      	RJMP _0x2060087
                 _0x2060089:
001973 e230      	LDI  R19,LOW(32)
001974 ff17      	SBRS R17,7
001975 c00b      	RJMP _0x206008A
001976 e330      	LDI  R19,LOW(48)
                 _0x20600F6:
001977 6110      	ORI  R17,LOW(16)
001978 ff12      	SBRS R17,2
001979 c007      	RJMP _0x206008B
00197a 7f1b      	ANDI R17,LOW(251)
00197b 935a      	ST   -Y,R21
00197c 940e 1f2e 	CALL SUBOPT_0xAA
00197e 3040      	CPI  R20,0
00197f f009      	BREQ _0x206008C
001980 5041      	SUBI R20,LOW(1)
                 _0x206008C:
                 _0x206008B:
                 _0x206008A:
                 _0x2060082:
001981 940e 1f21 	CALL SUBOPT_0xA8
001983 3040      	CPI  R20,0
001984 f009      	BREQ _0x206008D
001985 5041      	SUBI R20,LOW(1)
                 _0x206008D:
                 _0x2060087:
001986 5021      	SUBI R18,LOW(1)
001987 85a8      	LDD  R26,Y+8
001988 85b9      	LDD  R27,Y+8+1
001989 9712      	SBIW R26,2
00198a f008      	BRLO _0x206007A
00198b cfb5      	RJMP _0x2060079
                 _0x206007A:
                 _0x2060077:
00198c ff10      	SBRS R17,0
00198d c008      	RJMP _0x206008E
                 _0x206008F:
00198e 3040      	CPI  R20,0
00198f f031      	BREQ _0x2060091
001990 5041      	SUBI R20,LOW(1)
001991 e2e0      	LDI  R30,LOW(32)
001992 93ea      	ST   -Y,R30
001993 940e 1f2e 	CALL SUBOPT_0xAA
001995 cff8      	RJMP _0x206008F
                 _0x2060091:
                 _0x206008E:
                 _0x2060092:
                 _0x2060051:
                 _0x20600F5:
001996 e000      	LDI  R16,LOW(0)
                 _0x206003C:
001997 ced6      	RJMP _0x2060037
                 _0x2060039:
001998 85ac      	LDD  R26,Y+12
001999 85bd      	LDD  R27,Y+12+1
00199a 940e 21a6 	CALL __GETW1P
00199c 940e 2209 	CALL __LOADLOCR6
00199e 9664      	ADIW R28,20
00199f 9508      	RET
                 ; .FEND
                 _sprintf:
                 ; .FSTART _sprintf
0019a0 92ff      	PUSH R15
0019a1 2ef8      	MOV  R15,R24
0019a2 9726      	SBIW R28,6
0019a3 940e 2204 	CALL __SAVELOCR4
0019a5 01de      	MOVW R26,R28
0019a6 961c      	ADIW R26,12
0019a7 940e 20c4 	CALL __ADDW2R15
0019a9 940e 21a6 	CALL __GETW1P
0019ab 9730      	SBIW R30,0
0019ac f419      	BRNE _0x2060093
0019ad efef      	LDI  R30,LOW(65535)
0019ae efff      	LDI  R31,HIGH(65535)
0019af c025      	RJMP _0x20E0002
                 _0x2060093:
0019b0 01de      	MOVW R26,R28
0019b1 9616      	ADIW R26,6
0019b2 940e 20c4 	CALL __ADDW2R15
0019b4 018d      	MOVW R16,R26
0019b5 01de      	MOVW R26,R28
0019b6 961c      	ADIW R26,12
0019b7 940e 20c4 	CALL __ADDW2R15
0019b9 940e 1db1 	CALL SUBOPT_0x6E
0019bb e0e0      	LDI  R30,LOW(0)
0019bc 87e8      	STD  Y+8,R30
0019bd 87e9      	STD  Y+8+1,R30
0019be 01de      	MOVW R26,R28
0019bf 961a      	ADIW R26,10
0019c0 940e 20c4 	CALL __ADDW2R15
0019c2 940e 21a6 	CALL __GETW1P
0019c4 93fa      	ST   -Y,R31
0019c5 93ea      	ST   -Y,R30
0019c6 931a      	ST   -Y,R17
0019c7 930a      	ST   -Y,R16
0019c8 e2ea      	LDI  R30,LOW(_put_buff_G103)
0019c9 e1f8      	LDI  R31,HIGH(_put_buff_G103)
0019ca 93fa      	ST   -Y,R31
0019cb 93ea      	ST   -Y,R30
0019cc 01de      	MOVW R26,R28
0019cd 961a      	ADIW R26,10
0019ce de95      	RCALL __print_G103
0019cf 019f      	MOVW R18,R30
0019d0 81ae      	LDD  R26,Y+6
0019d1 81bf      	LDD  R27,Y+6+1
0019d2 e0e0      	LDI  R30,LOW(0)
0019d3 93ec      	ST   X,R30
0019d4 01f9      	MOVW R30,R18
                 _0x20E0002:
0019d5 940e 220b 	CALL __LOADLOCR4
0019d7 962a      	ADIW R28,10
0019d8 90ff      	POP  R15
0019d9 9508      	RET
                 ; .FEND
                 
                 	.CSEG
                 _bcd2bin:
                 ; .FSTART _bcd2bin
0019da 93aa      	ST   -Y,R26
0019db 81e8          ld   r30,y
0019dc 95e2          swap r30
0019dd 70ef          andi r30,0xf
0019de 2fae          mov  r26,r30
0019df 0faa          lsl  r26
0019e0 0faa          lsl  r26
0019e1 0fea          add  r30,r26
0019e2 0fee          lsl  r30
0019e3 91a9          ld   r26,y+
0019e4 70af          andi r26,0xf
0019e5 0fea          add  r30,r26
0019e6 9508          ret
                 ; .FEND
                 _bin2bcd:
                 ; .FSTART _bin2bcd
0019e7 93aa      	ST   -Y,R26
0019e8 91a9          ld   r26,y+
0019e9 27ee          clr  r30
                 bin2bcd0:
0019ea 50aa          subi r26,10
0019eb f012          brmi bin2bcd1
0019ec 5fe0          subi r30,-16
0019ed cffc          rjmp bin2bcd0
                 bin2bcd1:
0019ee 5fa6          subi r26,-10
0019ef 0fea          add  r30,r26
0019f0 9508          ret
                 ; .FEND
                 
                 	.CSEG
                 _memcmp:
                 ; .FSTART _memcmp
0019f1 93ba      	ST   -Y,R27
0019f2 93aa      	ST   -Y,R26
0019f3 2766          clr  r22
0019f4 2777          clr  r23
0019f5 9189          ld   r24,y+
0019f6 9199          ld   r25,y+
0019f7 91e9          ld   r30,y+
0019f8 91f9          ld   r31,y+
0019f9 91a9          ld   r26,y+
0019fa 91b9          ld   r27,y+
                 memcmp0:
0019fb 9600          adiw r24,0
0019fc f029          breq memcmp1
0019fd 9701          sbiw r24,1
0019fe 916d          ld   r22,x+
0019ff 9171          ld   r23,z+
001a00 1767          cp   r22,r23
001a01 f3c9          breq memcmp0
                 memcmp1:
001a02 1b67          sub  r22,r23
001a03 f410          brcc memcmp2
001a04 efef          ldi  r30,-1
001a05 9508          ret
                 memcmp2:
001a06 e0e0          ldi  r30,0
001a07 f009          breq memcmp3
001a08 95e3          inc  r30
                 memcmp3:
001a09 9508          ret
                 ; .FEND
                 _memcpy:
                 ; .FSTART _memcpy
001a0a 93ba      	ST   -Y,R27
001a0b 93aa      	ST   -Y,R26
001a0c 8199          ldd  r25,y+1
001a0d 8188          ld   r24,y
001a0e 9600          adiw r24,0
001a0f f041          breq memcpy1
001a10 81bd          ldd  r27,y+5
001a11 81ac          ldd  r26,y+4
001a12 81fb          ldd  r31,y+3
001a13 81ea          ldd  r30,y+2
                 memcpy0:
001a14 9161          ld   r22,z+
001a15 936d          st   x+,r22
001a16 9701          sbiw r24,1
001a17 f7e1          brne memcpy0
                 memcpy1:
001a18 81fd          ldd  r31,y+5
001a19 81ec          ldd  r30,y+4
001a1a 9626      	ADIW R28,6
001a1b 9508      	RET
                 ; .FEND
                 _memset:
                 ; .FSTART _memset
001a1c 93ba      	ST   -Y,R27
001a1d 93aa      	ST   -Y,R26
001a1e 81b9          ldd  r27,y+1
001a1f 81a8          ld   r26,y
001a20 9610          adiw r26,0
001a21 f031          breq memset1
001a22 81fc          ldd  r31,y+4
001a23 81eb          ldd  r30,y+3
001a24 816a          ldd  r22,y+2
                 memset0:
001a25 9361          st   z+,r22
001a26 9711          sbiw r26,1
001a27 f7e9          brne memset0
                 memset1:
001a28 81eb          ldd  r30,y+3
001a29 81fc          ldd  r31,y+4
                 _0x20E0001:
001a2a 9625      	ADIW R28,5
001a2b 9508      	RET
                 ; .FEND
                 _strlen:
                 ; .FSTART _strlen
001a2c 93ba      	ST   -Y,R27
001a2d 93aa      	ST   -Y,R26
001a2e 91a9          ld   r26,y+
001a2f 91b9          ld   r27,y+
001a30 27ee          clr  r30
001a31 27ff          clr  r31
                 strlen0:
001a32 916d          ld   r22,x+
001a33 2366          tst  r22
001a34 f011          breq strlen1
001a35 9631          adiw r30,1
001a36 cffb          rjmp strlen0
                 strlen1:
001a37 9508          ret
                 ; .FEND
                 _strlenf:
                 ; .FSTART _strlenf
001a38 93ba      	ST   -Y,R27
001a39 93aa      	ST   -Y,R26
001a3a 27aa          clr  r26
001a3b 27bb          clr  r27
001a3c 91e9          ld   r30,y+
001a3d 91f9          ld   r31,y+
                 strlenf0:
001a3e 9005      	lpm  r0,z+
001a3f 2000          tst  r0
001a40 f011          breq strlenf1
001a41 9611          adiw r26,1
001a42 cffb          rjmp strlenf0
                 strlenf1:
001a43 01fd          movw r30,r26
001a44 9508          ret
                 ; .FEND
                 
                 	.CSEG
                 
                 	.DSEG
                 _cursor:
000900           	.BYTE 0x1
                 _prtc_get_time:
000901           	.BYTE 0x2
                 _prtc_get_date:
000903           	.BYTE 0x2
                 _v1:
000905           	.BYTE 0x4
                 _v2:
000909           	.BYTE 0x4
                 _v1I:
00090d           	.BYTE 0x2
                 _v1D:
00090f           	.BYTE 0x2
                 _v2I:
000911           	.BYTE 0x2
                 _v2D:
000913           	.BYTE 0x2
                 _fileName:
000915           	.BYTE 0xE
                 _date:
000923           	.BYTE 0x20
                 _text:
000943           	.BYTE 0x20
                 _STM:
000963           	.BYTE 0x1
                 _GS:
000964           	.BYTE 0x1
                 _br:
000965           	.BYTE 0x2
                 _br1:
000967           	.BYTE 0x2
                 _buffer:
000969           	.BYTE 0x64
                 _res:
0009cd           	.BYTE 0x1
                 _drive:
0009ce           	.BYTE 0x232
                 _archivo:
000c00           	.BYTE 0x220
                 _H:
000e20           	.BYTE 0x1
                 _M:
000e21           	.BYTE 0x1
                 _S:
000e22           	.BYTE 0x1
                 _D:
000e23           	.BYTE 0x1
                 _Mes:
000e24           	.BYTE 0x1
                 _A:
000e25           	.BYTE 0x1
                 _time:
000e26           	.BYTE 0x10
                 _status_G101:
000e36           	.BYTE 0x1
                 _timer1_G101:
000e37           	.BYTE 0x1
                 _timer2_G101:
000e38           	.BYTE 0x1
                 _card_type_G101:
000e39           	.BYTE 0x1
                 _flags_S101000C000:
000e3a           	.BYTE 0x1
                 _FatFs_G102:
000e3b           	.BYTE 0x2
                 _Fsid_G102:
000e3d           	.BYTE 0x2
                 _Drive_G102:
000e3f           	.BYTE 0x1
                 
                 	.CSEG
                 ;OPTIMIZER ADDED SUBROUTINE, CALLED 5 TIMES, CODE SIZE REDUCTION:5 WORDS
                 SUBOPT_0x0:
001a45 e0a2      	LDI  R26,LOW(2)
001a46 e0b0      	LDI  R27,0
001a47 940c 1f3c 	JMP  _delay_ms
                 
                 ;OPTIMIZER ADDED SUBROUTINE, CALLED 3 TIMES, CODE SIZE REDUCTION:1 WORDS
                 SUBOPT_0x1:
001a49 940e 0160 	CALL _SendDataBitsLCD
001a4b 940c 015d 	JMP  _PulseEn
                 
                 ;OPTIMIZER ADDED SUBROUTINE, CALLED 2 TIMES, CODE SIZE REDUCTION:3 WORDS
                 SUBOPT_0x2:
001a4d 81e9      	LDD  R30,Y+1
001a4e 7fe0      	ANDI R30,LOW(0xF0)
001a4f 2f0e      	MOV  R16,R30
001a50 9502      	SWAP R16
001a51 700f      	ANDI R16,0xF
001a52 2fa0      	MOV  R26,R16
001a53 cff5      	RJMP SUBOPT_0x1
                 
                 ;OPTIMIZER ADDED SUBROUTINE, CALLED 2 TIMES, CODE SIZE REDUCTION:3 WORDS
                 SUBOPT_0x3:
001a54 81e9      	LDD  R30,Y+1
001a55 70ef      	ANDI R30,LOW(0xF)
001a56 2f0e      	MOV  R16,R30
001a57 2fa0      	MOV  R26,R16
001a58 940e 0160 	CALL _SendDataBitsLCD
001a5a cfea      	RJMP SUBOPT_0x0
                 
                 ;OPTIMIZER ADDED SUBROUTINE, CALLED 2 TIMES, CODE SIZE REDUCTION:15 WORDS
                 SUBOPT_0x4:
001a5b 940e 01e5 	CALL _read_adc
001a5d 2766      	CLR  R22
001a5e 2777      	CLR  R23
001a5f 940e 1fac 	CALL __CDF1
                +
001a61 e0a0     +LDI R26 , LOW ( 0x40A00000 )
001a62 e0b0     +LDI R27 , HIGH ( 0x40A00000 )
001a63 ea80     +LDI R24 , BYTE3 ( 0x40A00000 )
001a64 e490     +LDI R25 , BYTE4 ( 0x40A00000 )
                 	__GETD2N 0x40A00000
001a65 940e 2031 	CALL __MULF12
001a67 01df      	MOVW R26,R30
001a68 01cb      	MOVW R24,R22
                +
001a69 e0e0     +LDI R30 , LOW ( 0x44800000 )
001a6a e0f0     +LDI R31 , HIGH ( 0x44800000 )
001a6b e860     +LDI R22 , BYTE3 ( 0x44800000 )
001a6c e474     +LDI R23 , BYTE4 ( 0x44800000 )
                 	__GETD1N 0x44800000
001a6d 940e 207f 	CALL __DIVF21
001a6f 9508      	RET
                 
                 ;OPTIMIZER ADDED SUBROUTINE, CALLED 3 TIMES, CODE SIZE REDUCTION:1 WORDS
                 SUBOPT_0x5:
001a70 91e0 090d 	LDS  R30,_v1I
001a72 91f0 090e 	LDS  R31,_v1I+1
001a74 9508      	RET
                 
                 ;OPTIMIZER ADDED SUBROUTINE, CALLED 2 TIMES, CODE SIZE REDUCTION:7 WORDS
                 SUBOPT_0x6:
001a75 940e 21e1 	CALL __SWAPD12
001a77 940e 1fdf 	CALL __SUBF12
                +
001a79 e0a0     +LDI R26 , LOW ( 0x42C80000 )
001a7a e0b0     +LDI R27 , HIGH ( 0x42C80000 )
001a7b ec88     +LDI R24 , BYTE3 ( 0x42C80000 )
001a7c e492     +LDI R25 , BYTE4 ( 0x42C80000 )
                 	__GETD2N 0x42C80000
001a7d 940e 2031 	CALL __MULF12
001a7f 940e 1f75 	CALL __CFD1
001a81 9508      	RET
                 
                 ;OPTIMIZER ADDED SUBROUTINE, CALLED 3 TIMES, CODE SIZE REDUCTION:1 WORDS
                 SUBOPT_0x7:
001a82 91e0 0911 	LDS  R30,_v2I
001a84 91f0 0912 	LDS  R31,_v2I+1
001a86 9508      	RET
                 
                 ;OPTIMIZER ADDED SUBROUTINE, CALLED 6 TIMES, CODE SIZE REDUCTION:7 WORDS
                 SUBOPT_0x8:
001a87 e0e0      	LDI  R30,LOW(_archivo)
001a88 e0fc      	LDI  R31,HIGH(_archivo)
001a89 93fa      	ST   -Y,R31
001a8a 93ea      	ST   -Y,R30
001a8b 9508      	RET
                 
                 ;OPTIMIZER ADDED SUBROUTINE, CALLED 3 TIMES, CODE SIZE REDUCTION:1 WORDS
                 SUBOPT_0x9:
001a8c 81ed      	LDD  R30,Y+5
001a8d 81fe      	LDD  R31,Y+5+1
001a8e 93fa      	ST   -Y,R31
001a8f 93ea      	ST   -Y,R30
001a90 9508      	RET
                 
                 ;OPTIMIZER ADDED SUBROUTINE, CALLED 2 TIMES, CODE SIZE REDUCTION:7 WORDS
                 SUBOPT_0xA:
                +
001a91 91a0 0c0a+LDS R26 , _archivo + ( 10 )
001a93 91b0 0c0b+LDS R27 , _archivo + ( 10 ) + 1
001a95 9180 0c0c+LDS R24 , _archivo + ( 10 ) + 2
001a97 9190 0c0d+LDS R25 , _archivo + ( 10 ) + 3
                 	__GETD2MN _archivo,10
001a99 940e 16a6 	CALL _f_lseek
001a9b cfeb      	RJMP SUBOPT_0x8
                 
                 ;OPTIMIZER ADDED SUBROUTINE, CALLED 2 TIMES, CODE SIZE REDUCTION:5 WORDS
                 SUBOPT_0xB:
001a9c 81eb      	LDD  R30,Y+3
001a9d 81fc      	LDD  R31,Y+3+1
001a9e 93fa      	ST   -Y,R31
001a9f 93ea      	ST   -Y,R30
001aa0 e2e0      	LDI  R30,LOW(32)
001aa1 e0f0      	LDI  R31,HIGH(32)
001aa2 93fa      	ST   -Y,R31
001aa3 93ea      	ST   -Y,R30
001aa4 e6a7      	LDI  R26,LOW(_br1)
001aa5 e0b9      	LDI  R27,HIGH(_br1)
001aa6 9508      	RET
                 
                 ;OPTIMIZER ADDED SUBROUTINE, CALLED 2 TIMES, CODE SIZE REDUCTION:16 WORDS
                 SUBOPT_0xC:
001aa7 91e0 0e20 	LDS  R30,_H
001aa9 27ff      	CLR  R31
001aaa 2766      	CLR  R22
001aab 2777      	CLR  R23
001aac 940e 21d7 	CALL __PUTPARD1
001aae 91e0 0e21 	LDS  R30,_M
001ab0 27ff      	CLR  R31
001ab1 2766      	CLR  R22
001ab2 2777      	CLR  R23
001ab3 940e 21d7 	CALL __PUTPARD1
001ab5 91e0 0e22 	LDS  R30,_S
001ab7 27ff      	CLR  R31
001ab8 2766      	CLR  R22
001ab9 2777      	CLR  R23
001aba 940e 21d7 	CALL __PUTPARD1
001abc 9508      	RET
                 
                 ;OPTIMIZER ADDED SUBROUTINE, CALLED 2 TIMES, CODE SIZE REDUCTION:1 WORDS
                 SUBOPT_0xD:
001abd dfb2      	RCALL SUBOPT_0x5
001abe 940e 212b 	CALL __CWD1
001ac0 940e 21d7 	CALL __PUTPARD1
001ac2 9508      	RET
                 
                 ;OPTIMIZER ADDED SUBROUTINE, CALLED 2 TIMES, CODE SIZE REDUCTION:3 WORDS
                 SUBOPT_0xE:
001ac3 e0ea      	LDI  R30,LOW(10)
001ac4 e0f0      	LDI  R31,HIGH(10)
001ac5 940e 216e 	CALL __DIVW21
001ac7 940e 212b 	CALL __CWD1
001ac9 940e 21d7 	CALL __PUTPARD1
001acb 9508      	RET
                 
                 ;OPTIMIZER ADDED SUBROUTINE, CALLED 2 TIMES, CODE SIZE REDUCTION:1 WORDS
                 SUBOPT_0xF:
001acc dfb5      	RCALL SUBOPT_0x7
001acd 940e 212b 	CALL __CWD1
001acf 940e 21d7 	CALL __PUTPARD1
001ad1 9508      	RET
                 
                 ;OPTIMIZER ADDED SUBROUTINE, CALLED 2 TIMES, CODE SIZE REDUCTION:1 WORDS
                 SUBOPT_0x10:
001ad2 940e 01c6 	CALL _MoveCursor
001ad4 e2a6      	LDI  R26,LOW(_time)
001ad5 e0be      	LDI  R27,HIGH(_time)
001ad6 940c 01ae 	JMP  _StringLCDVar
                 
                 ;OPTIMIZER ADDED SUBROUTINE, CALLED 2 TIMES, CODE SIZE REDUCTION:18 WORDS
                 SUBOPT_0x11:
001ad8 93fa      	ST   -Y,R31
001ad9 93ea      	ST   -Y,R30
001ada 91e0 0e23 	LDS  R30,_D
001adc 27ff      	CLR  R31
001add 2766      	CLR  R22
001ade 2777      	CLR  R23
001adf 940e 21d7 	CALL __PUTPARD1
001ae1 91e0 0e24 	LDS  R30,_Mes
001ae3 27ff      	CLR  R31
001ae4 2766      	CLR  R22
001ae5 2777      	CLR  R23
001ae6 940e 21d7 	CALL __PUTPARD1
001ae8 91e0 0e25 	LDS  R30,_A
001aea 27ff      	CLR  R31
001aeb 2766      	CLR  R22
001aec 2777      	CLR  R23
001aed 940e 21d7 	CALL __PUTPARD1
001aef 9508      	RET
                 
                 ;OPTIMIZER ADDED SUBROUTINE, CALLED 2 TIMES, CODE SIZE REDUCTION:1 WORDS
                 SUBOPT_0x12:
001af0 940e 21d7 	CALL __PUTPARD1
001af2 e180      	LDI  R24,16
001af3 940e 19a0 	CALL _sprintf
001af5 9664      	ADIW R28,20
001af6 9508      	RET
                 
                 ;OPTIMIZER ADDED SUBROUTINE, CALLED 3 TIMES, CODE SIZE REDUCTION:13 WORDS
                 SUBOPT_0x13:
001af7 91e0 0963 	LDS  R30,_STM
001af9 91a0 0e22 	LDS  R26,_S
001afb 0fea      	ADD  R30,R26
001afc 93e0 0964 	STS  _GS,R30
001afe 91a0 0964 	LDS  R26,_GS
001b00 33ac      	CPI  R26,LOW(0x3C)
001b01 9508      	RET
                 
                 ;OPTIMIZER ADDED SUBROUTINE, CALLED 3 TIMES, CODE SIZE REDUCTION:3 WORDS
                 SUBOPT_0x14:
001b02 91e0 0964 	LDS  R30,_GS
001b04 53eb      	SUBI R30,LOW(59)
001b05 93e0 0964 	STS  _GS,R30
001b07 9508      	RET
                 
                 ;OPTIMIZER ADDED SUBROUTINE, CALLED 2 TIMES, CODE SIZE REDUCTION:7 WORDS
                 SUBOPT_0x15:
001b08 93e0 0e20 	STS  _H,R30
001b0a 93ea      	ST   -Y,R30
001b0b 91e0 0e21 	LDS  R30,_M
001b0d 93ea      	ST   -Y,R30
001b0e 91a0 0e22 	LDS  R26,_S
001b10 940c 0479 	JMP  _rtc_set_time
                 
                 ;OPTIMIZER ADDED SUBROUTINE, CALLED 2 TIMES, CODE SIZE REDUCTION:7 WORDS
                 SUBOPT_0x16:
001b12 93e0 0e21 	STS  _M,R30
001b14 91e0 0e20 	LDS  R30,_H
001b16 93ea      	ST   -Y,R30
001b17 91e0 0e21 	LDS  R30,_M
001b19 93ea      	ST   -Y,R30
001b1a 91a0 0e22 	LDS  R26,_S
001b1c 940c 0479 	JMP  _rtc_set_time
                 
                 ;OPTIMIZER ADDED SUBROUTINE, CALLED 2 TIMES, CODE SIZE REDUCTION:8 WORDS
                 SUBOPT_0x17:
001b1e e0e0      	LDI  R30,LOW(0)
001b1f 93e0 0e22 	STS  _S,R30
001b21 91e0 0e20 	LDS  R30,_H
001b23 93ea      	ST   -Y,R30
001b24 91e0 0e21 	LDS  R30,_M
001b26 93ea      	ST   -Y,R30
001b27 91a0 0e22 	LDS  R26,_S
001b29 940c 0479 	JMP  _rtc_set_time
                 
                 ;OPTIMIZER ADDED SUBROUTINE, CALLED 2 TIMES, CODE SIZE REDUCTION:7 WORDS
                 SUBOPT_0x18:
001b2b 93e0 0e23 	STS  _D,R30
001b2d 93ea      	ST   -Y,R30
001b2e 91e0 0e24 	LDS  R30,_Mes
001b30 93ea      	ST   -Y,R30
001b31 91a0 0e25 	LDS  R26,_A
001b33 940c 049c 	JMP  _rtc_set_date
                 
                 ;OPTIMIZER ADDED SUBROUTINE, CALLED 2 TIMES, CODE SIZE REDUCTION:7 WORDS
                 SUBOPT_0x19:
001b35 93e0 0e24 	STS  _Mes,R30
001b37 91e0 0e23 	LDS  R30,_D
001b39 93ea      	ST   -Y,R30
001b3a 91e0 0e24 	LDS  R30,_Mes
001b3c 93ea      	ST   -Y,R30
001b3d 91a0 0e25 	LDS  R26,_A
001b3f 940c 049c 	JMP  _rtc_set_date
                 
                 ;OPTIMIZER ADDED SUBROUTINE, CALLED 2 TIMES, CODE SIZE REDUCTION:7 WORDS
                 SUBOPT_0x1A:
001b41 93e0 0e25 	STS  _A,R30
001b43 91e0 0e23 	LDS  R30,_D
001b45 93ea      	ST   -Y,R30
001b46 91e0 0e24 	LDS  R30,_Mes
001b48 93ea      	ST   -Y,R30
001b49 91a0 0e25 	LDS  R26,_A
001b4b 940c 049c 	JMP  _rtc_set_date
                 
                 ;OPTIMIZER ADDED SUBROUTINE, CALLED 3 TIMES, CODE SIZE REDUCTION:3 WORDS
                 SUBOPT_0x1B:
001b4d e8ee      	LDI  R30,LOW(142)
001b4e 93ea      	ST   -Y,R30
001b4f e0a0      	LDI  R26,LOW(0)
001b50 940c 043e 	JMP  _ds1302_write
                 
                 ;OPTIMIZER ADDED SUBROUTINE, CALLED 4 TIMES, CODE SIZE REDUCTION:6 WORDS
                 SUBOPT_0x1C:
001b52 940e 0424 	CALL _ds1302_read
001b54 2fae      	MOV  R26,R30
001b55 940c 19da 	JMP  _bcd2bin
                 
                 ;OPTIMIZER ADDED SUBROUTINE, CALLED 2 TIMES, CODE SIZE REDUCTION:2 WORDS
                 SUBOPT_0x1D:
001b57 93ea      	ST   -Y,R30
001b58 81ab      	LDD  R26,Y+3
001b59 940e 19e7 	CALL _bin2bcd
001b5b 2fae      	MOV  R26,R30
001b5c 940c 043e 	JMP  _ds1302_write
                 
                 ;OPTIMIZER ADDED SUBROUTINE, CALLED 2 TIMES, CODE SIZE REDUCTION:2 WORDS
                 SUBOPT_0x1E:
001b5e 93ea      	ST   -Y,R30
001b5f 81aa      	LDD  R26,Y+2
001b60 940e 19e7 	CALL _bin2bcd
001b62 2fae      	MOV  R26,R30
001b63 940c 043e 	JMP  _ds1302_write
                 
                 ;OPTIMIZER ADDED SUBROUTINE, CALLED 3 TIMES, CODE SIZE REDUCTION:3 WORDS
                 SUBOPT_0x1F:
001b65 e0f0      	LDI  R31,0
001b66 940e 212b 	CALL __CWD1
001b68 01df      	MOVW R26,R30
001b69 01cb      	MOVW R24,R22
001b6a 9508      	RET
                 
                 ;OPTIMIZER ADDED SUBROUTINE, CALLED 2 TIMES, CODE SIZE REDUCTION:1 WORDS
                 SUBOPT_0x20:
001b6b 940e 21aa 	CALL __GETD1P
                +
001b6d 83e9     +STD Y + 1 , R30
001b6e 83fa     +STD Y + 1 + 1 , R31
001b6f 836b     +STD Y + 1 + 2 , R22
001b70 837c     +STD Y + 1 + 3 , R23
                 	__PUTD1S 1
001b71 9508      	RET
                 
                 ;OPTIMIZER ADDED SUBROUTINE, CALLED 5 TIMES, CODE SIZE REDUCTION:5 WORDS
                 SUBOPT_0x21:
                +
001b72 81ed     +LDD R30 , Y + 5
001b73 81fe     +LDD R31 , Y + 5 + 1
001b74 816f     +LDD R22 , Y + 5 + 2
001b75 8578     +LDD R23 , Y + 5 + 3
                 	__GETD1S 5
001b76 9508      	RET
                 
                 ;OPTIMIZER ADDED SUBROUTINE, CALLED 6 TIMES, CODE SIZE REDUCTION:7 WORDS
                 SUBOPT_0x22:
                +
001b77 81a9     +LDD R26 , Y + 1
001b78 81ba     +LDD R27 , Y + 1 + 1
001b79 818b     +LDD R24 , Y + 1 + 2
001b7a 819c     +LDD R25 , Y + 1 + 3
                 	__GETD2S 1
001b7b 9508      	RET
                 
                 ;OPTIMIZER ADDED SUBROUTINE, CALLED 2 TIMES, CODE SIZE REDUCTION:13 WORDS
                 SUBOPT_0x23:
001b7c 85e9      	LDD  R30,Y+9
001b7d 85fa      	LDD  R31,Y+9+1
001b7e 81a1      	LDD  R26,Z+1
001b7f 93aa      	ST   -Y,R26
001b80 85ea      	LDD  R30,Y+10
001b81 85fb      	LDD  R31,Y+10+1
001b82 96f2      	ADIW R30,50
001b83 93fa      	ST   -Y,R31
001b84 93ea      	ST   -Y,R30
                +
001b85 81ec     +LDD R30 , Y + 4
001b86 81fd     +LDD R31 , Y + 4 + 1
001b87 816e     +LDD R22 , Y + 4 + 2
001b88 817f     +LDD R23 , Y + 4 + 3
                 	__GETD1S 4
001b89 940e 21d7 	CALL __PUTPARD1
001b8b e0a1      	LDI  R26,LOW(1)
001b8c 940c 0750 	JMP  _disk_write
                 
                 ;OPTIMIZER ADDED SUBROUTINE, CALLED 3 TIMES, CODE SIZE REDUCTION:1 WORDS
                 SUBOPT_0x24:
                +
001b8e a1a2     +LDD R26 , Z + 34
001b8f a1b3     +LDD R27 , Z + 34 + 1
001b90 a184     +LDD R24 , Z + 34 + 2
001b91 a195     +LDD R25 , Z + 34 + 3
                 	__GETD2Z 34
001b92 9508      	RET
                 
                 ;OPTIMIZER ADDED SUBROUTINE, CALLED 2 TIMES, CODE SIZE REDUCTION:7 WORDS
                 SUBOPT_0x25:
001b93 93fa      	ST   -Y,R31
001b94 93ea      	ST   -Y,R30
                +
001b95 85e8     +LDD R30 , Y + 8
001b96 85f9     +LDD R31 , Y + 8 + 1
001b97 856a     +LDD R22 , Y + 8 + 2
001b98 857b     +LDD R23 , Y + 8 + 3
                 	__GETD1S 8
001b99 940e 21d7 	CALL __PUTPARD1
001b9b e0a1      	LDI  R26,LOW(1)
001b9c 940e 06ec 	CALL _disk_read
001b9e 30e0      	CPI  R30,0
001b9f 9508      	RET
                 
                 ;OPTIMIZER ADDED SUBROUTINE, CALLED 3 TIMES, CODE SIZE REDUCTION:9 WORDS
                 SUBOPT_0x26:
001ba0 93fa      	ST   -Y,R31
001ba1 93ea      	ST   -Y,R30
                +
001ba2 e0a0     +LDI R26 , LOW ( 0x0 )
001ba3 e0b0     +LDI R27 , HIGH ( 0x0 )
001ba4 e080     +LDI R24 , BYTE3 ( 0x0 )
001ba5 e090     +LDI R25 , BYTE4 ( 0x0 )
                 	__GETD2N 0x0
001ba6 940c 0a2a 	JMP  _move_window_G102
                 
                 ;OPTIMIZER ADDED SUBROUTINE, CALLED 2 TIMES, CODE SIZE REDUCTION:2 WORDS
                 SUBOPT_0x27:
001ba8 969e      	ADIW R26,46
                +
001ba9 e0e0     +LDI R30 , LOW ( 0x0 )
001baa e0f0     +LDI R31 , HIGH ( 0x0 )
001bab e060     +LDI R22 , BYTE3 ( 0x0 )
001bac e070     +LDI R23 , BYTE4 ( 0x0 )
                 	__GETD1N 0x0
001bad 940e 21b5 	CALL __PUTDP1
001baf 9508      	RET
                 
                 ;OPTIMIZER ADDED SUBROUTINE, CALLED 2 TIMES, CODE SIZE REDUCTION:4 WORDS
                 SUBOPT_0x28:
001bb0 96f2      	ADIW R30,50
001bb1 93fa      	ST   -Y,R31
001bb2 93ea      	ST   -Y,R30
001bb3 e0e0      	LDI  R30,LOW(0)
001bb4 93ea      	ST   -Y,R30
001bb5 e0a0      	LDI  R26,LOW(512)
001bb6 e0b2      	LDI  R27,HIGH(512)
001bb7 940c 1a1c 	JMP  _memset
                 
                 ;OPTIMIZER ADDED SUBROUTINE, CALLED 2 TIMES, CODE SIZE REDUCTION:2 WORDS
                 SUBOPT_0x29:
001bb9 940e 21d2 	CALL __PUTDZ20
001bbb 81e9      	LDD  R30,Y+1
001bbc 81fa      	LDD  R31,Y+1+1
001bbd 96f2      	ADIW R30,50
001bbe 9508      	RET
                 
                 ;OPTIMIZER ADDED SUBROUTINE, CALLED 2 TIMES, CODE SIZE REDUCTION:2 WORDS
                 SUBOPT_0x2A:
001bbf 940e 21aa 	CALL __GETD1P
001bc1 01d0      	MOVW R26,R0
001bc2 940e 21b5 	CALL __PUTDP1
001bc4 81e9      	LDD  R30,Y+1
001bc5 81fa      	LDD  R31,Y+1+1
001bc6 9508      	RET
                 
                 ;OPTIMIZER ADDED SUBROUTINE, CALLED 2 TIMES, CODE SIZE REDUCTION:2 WORDS
                 SUBOPT_0x2B:
                +
001bc7 89a2     +LDD R26 , Z + 18
001bc8 89b3     +LDD R27 , Z + 18 + 1
001bc9 8984     +LDD R24 , Z + 18 + 2
001bca 8995     +LDD R25 , Z + 18 + 3
                 	__GETD2Z 18
001bcb 940e 21dc 	CALL __PUTPARD2
001bcd e0a1      	LDI  R26,LOW(1)
001bce 9508      	RET
                 
                 ;OPTIMIZER ADDED SUBROUTINE, CALLED 5 TIMES, CODE SIZE REDUCTION:5 WORDS
                 SUBOPT_0x2C:
                +
001bcf 85a8     +LDD R26 , Y + 8
001bd0 85b9     +LDD R27 , Y + 8 + 1
001bd1 858a     +LDD R24 , Y + 8 + 2
001bd2 859b     +LDD R25 , Y + 8 + 3
                 	__GETD2S 8
001bd3 9508      	RET
                 
                 ;OPTIMIZER ADDED SUBROUTINE, CALLED 7 TIMES, CODE SIZE REDUCTION:27 WORDS
                 SUBOPT_0x2D:
                +
001bd4 30a2     +CPI R26 , LOW ( 0x2 )
001bd5 e0e0     +LDI R30 , HIGH ( 0x2 )
001bd6 07be     +CPC R27 , R30
001bd7 e0e0     +LDI R30 , BYTE3 ( 0x2 )
001bd8 078e     +CPC R24 , R30
001bd9 e0e0     +LDI R30 , BYTE4 ( 0x2 )
001bda 079e     +CPC R25 , R30
                 	__CPD2N 0x2
001bdb 9508      	RET
                 
                 ;OPTIMIZER ADDED SUBROUTINE, CALLED 3 TIMES, CODE SIZE REDUCTION:1 WORDS
                 SUBOPT_0x2E:
                +
001bdc e0e1     +LDI R30 , LOW ( 0x1 )
001bdd e0f0     +LDI R31 , HIGH ( 0x1 )
001bde e060     +LDI R22 , BYTE3 ( 0x1 )
001bdf e070     +LDI R23 , BYTE4 ( 0x1 )
                 	__GETD1N 0x1
001be0 9508      	RET
                 
                 ;OPTIMIZER ADDED SUBROUTINE, CALLED 3 TIMES, CODE SIZE REDUCTION:5 WORDS
                 SUBOPT_0x2F:
001be1 940e 21aa 	CALL __GETD1P
                +
001be3 83ec     +STD Y + 4 , R30
001be4 83fd     +STD Y + 4 + 1 , R31
001be5 836e     +STD Y + 4 + 2 , R22
001be6 837f     +STD Y + 4 + 3 , R23
                 	__PUTD1S 4
001be7 9508      	RET
                 
                 ;OPTIMIZER ADDED SUBROUTINE, CALLED 2 TIMES, CODE SIZE REDUCTION:15 WORDS
                 SUBOPT_0x30:
001be8 85ec      	LDD  R30,Y+12
001be9 85fd      	LDD  R31,Y+12+1
001bea 93fa      	ST   -Y,R31
001beb 93ea      	ST   -Y,R30
001bec 01d9      	MOVW R26,R18
001bed e0e0      	LDI  R30,LOW(512)
001bee e0f2      	LDI  R31,HIGH(512)
001bef 940e 215b 	CALL __DIVW21U
                +
001bf1 81ae     +LDD R26 , Y + 6
001bf2 81bf     +LDD R27 , Y + 6 + 1
001bf3 8588     +LDD R24 , Y + 6 + 2
001bf4 8599     +LDD R25 , Y + 6 + 3
                 	__GETD2S 6
001bf5 2766      	CLR  R22
001bf6 2777      	CLR  R23
001bf7 940e 20cd 	CALL __ADDD21
001bf9 940e 0a2a 	CALL _move_window_G102
001bfb 30e0      	CPI  R30,0
001bfc 9508      	RET
                 
                 ;OPTIMIZER ADDED SUBROUTINE, CALLED 2 TIMES, CODE SIZE REDUCTION:2 WORDS
                 SUBOPT_0x31:
001bfd 85ac      	LDD  R26,Y+12
001bfe 85bd      	LDD  R27,Y+12+1
001bff 96d2      	ADIW R26,50
001c00 01f9      	MOVW R30,R18
001c01 70f1      	ANDI R31,HIGH(0x1FF)
001c02 0fae      	ADD  R26,R30
001c03 1fbf      	ADC  R27,R31
001c04 9508      	RET
                 
                 ;OPTIMIZER ADDED SUBROUTINE, CALLED 2 TIMES, CODE SIZE REDUCTION:3 WORDS
                 SUBOPT_0x32:
001c05 85ec      	LDD  R30,Y+12
001c06 85fd      	LDD  R31,Y+12+1
001c07 93fa      	ST   -Y,R31
001c08 93ea      	ST   -Y,R30
                +
001c09 85aa     +LDD R26 , Y + 10
001c0a 85bb     +LDD R27 , Y + 10 + 1
001c0b 858c     +LDD R24 , Y + 10 + 2
001c0c 859d     +LDD R25 , Y + 10 + 3
                 	__GETD2S 10
001c0d 9508      	RET
                 
                 ;OPTIMIZER ADDED SUBROUTINE, CALLED 2 TIMES, CODE SIZE REDUCTION:1 WORDS
                 SUBOPT_0x33:
                +
001c0e e0e0     +LDI R30 , LOW ( 0x100 )
001c0f e0f1     +LDI R31 , HIGH ( 0x100 )
001c10 e060     +LDI R22 , BYTE3 ( 0x100 )
001c11 e070     +LDI R23 , BYTE4 ( 0x100 )
                 	__GETD1N 0x100
001c12 940e 2173 	CALL __DIVD21U
001c14 9508      	RET
                 
                 ;OPTIMIZER ADDED SUBROUTINE, CALLED 2 TIMES, CODE SIZE REDUCTION:4 WORDS
                 SUBOPT_0x34:
                +
001c15 81ae     +LDD R26 , Y + 6
001c16 81bf     +LDD R27 , Y + 6 + 1
001c17 8588     +LDD R24 , Y + 6 + 2
001c18 8599     +LDD R25 , Y + 6 + 3
                 	__GETD2S 6
001c19 940e 20cd 	CALL __ADDD21
001c1b 940e 0a2a 	CALL _move_window_G102
001c1d 30e0      	CPI  R30,0
001c1e 9508      	RET
                 
                 ;OPTIMIZER ADDED SUBROUTINE, CALLED 2 TIMES, CODE SIZE REDUCTION:3 WORDS
                 SUBOPT_0x35:
001c1f 940e 2155 	CALL __MULB1W2U
001c21 70f1      	ANDI R31,HIGH(0x1FF)
001c22 85ac      	LDD  R26,Y+12
001c23 85bd      	LDD  R27,Y+12+1
001c24 96d2      	ADIW R26,50
001c25 0fae      	ADD  R26,R30
001c26 1fbf      	ADC  R27,R31
001c27 9508      	RET
                 
                 ;OPTIMIZER ADDED SUBROUTINE, CALLED 6 TIMES, CODE SIZE REDUCTION:7 WORDS
                 SUBOPT_0x36:
001c28 940e 21a6 	CALL __GETW1P
001c2a 2766      	CLR  R22
001c2b 2777      	CLR  R23
001c2c 9508      	RET
                 
                 ;OPTIMIZER ADDED SUBROUTINE, CALLED 2 TIMES, CODE SIZE REDUCTION:1 WORDS
                 SUBOPT_0x37:
                +
001c2d e8e0     +LDI R30 , LOW ( 0x80 )
001c2e e0f0     +LDI R31 , HIGH ( 0x80 )
001c2f e060     +LDI R22 , BYTE3 ( 0x80 )
001c30 e070     +LDI R23 , BYTE4 ( 0x80 )
                 	__GETD1N 0x80
001c31 940e 2173 	CALL __DIVD21U
001c33 9508      	RET
                 
                 ;OPTIMIZER ADDED SUBROUTINE, CALLED 4 TIMES, CODE SIZE REDUCTION:3 WORDS
                 SUBOPT_0x38:
                +
001c34 efef     +LDI R30 , LOW ( 0xFFFFFFFF )
001c35 efff     +LDI R31 , HIGH ( 0xFFFFFFFF )
001c36 ef6f     +LDI R22 , BYTE3 ( 0xFFFFFFFF )
001c37 ef7f     +LDI R23 , BYTE4 ( 0xFFFFFFFF )
                 	__GETD1N 0xFFFFFFFF
001c38 9508      	RET
                 
                 ;OPTIMIZER ADDED SUBROUTINE, CALLED 8 TIMES, CODE SIZE REDUCTION:11 WORDS
                 SUBOPT_0x39:
                +
001c39 85ad     +LDD R26 , Y + 13
001c3a 85be     +LDD R27 , Y + 13 + 1
001c3b 858f     +LDD R24 , Y + 13 + 2
001c3c 8998     +LDD R25 , Y + 13 + 3
                 	__GETD2S 13
001c3d 9508      	RET
                 
                 ;OPTIMIZER ADDED SUBROUTINE, CALLED 2 TIMES, CODE SIZE REDUCTION:1 WORDS
                 SUBOPT_0x3A:
001c3e 940e 21aa 	CALL __GETD1P
001c40 dff8      	RCALL SUBOPT_0x39
001c41 940e 21fd 	CALL __CPD21
001c43 9508      	RET
                 
                 ;OPTIMIZER ADDED SUBROUTINE, CALLED 5 TIMES, CODE SIZE REDUCTION:5 WORDS
                 SUBOPT_0x3B:
                +
001c44 83ed     +STD Y + 5 , R30
001c45 83fe     +STD Y + 5 + 1 , R31
001c46 836f     +STD Y + 5 + 2 , R22
001c47 8778     +STD Y + 5 + 3 , R23
                 	__PUTD1S 5
001c48 9508      	RET
                 
                 ;OPTIMIZER ADDED SUBROUTINE, CALLED 2 TIMES, CODE SIZE REDUCTION:16 WORDS
                 SUBOPT_0x3C:
001c49 89e9      	LDD  R30,Y+17
001c4a 89fa      	LDD  R31,Y+17+1
001c4b 93fa      	ST   -Y,R31
001c4c 93ea      	ST   -Y,R30
001c4d 01d8      	MOVW R26,R16
001c4e e0e0      	LDI  R30,LOW(512)
001c4f e0f2      	LDI  R31,HIGH(512)
001c50 940e 215b 	CALL __DIVW21U
                +
001c52 81af     +LDD R26 , Y + 7
001c53 85b8     +LDD R27 , Y + 7 + 1
001c54 8589     +LDD R24 , Y + 7 + 2
001c55 859a     +LDD R25 , Y + 7 + 3
                 	__GETD2S 7
001c56 2766      	CLR  R22
001c57 2777      	CLR  R23
001c58 940e 20cd 	CALL __ADDD21
001c5a 940e 0a2a 	CALL _move_window_G102
001c5c 2f4e      	MOV  R20,R30
001c5d 3040      	CPI  R20,0
001c5e 9508      	RET
                 
                 ;OPTIMIZER ADDED SUBROUTINE, CALLED 2 TIMES, CODE SIZE REDUCTION:5 WORDS
                 SUBOPT_0x3D:
001c5f 89a9      	LDD  R26,Y+17
001c60 89ba      	LDD  R27,Y+17+1
001c61 96d2      	ADIW R26,50
001c62 01f8      	MOVW R30,R16
001c63 70f1      	ANDI R31,HIGH(0x1FF)
001c64 0fea      	ADD  R30,R26
001c65 1ffb      	ADC  R31,R27
001c66 019f      	MOVW R18,R30
001c67 85ed      	LDD  R30,Y+13
001c68 70e1      	ANDI R30,LOW(0x1)
001c69 9508      	RET
                 
                 ;OPTIMIZER ADDED SUBROUTINE, CALLED 7 TIMES, CODE SIZE REDUCTION:9 WORDS
                 SUBOPT_0x3E:
                +
001c6a 85a9     +LDD R26 , Y + 9
001c6b 85ba     +LDD R27 , Y + 9 + 1
001c6c 858b     +LDD R24 , Y + 9 + 2
001c6d 859c     +LDD R25 , Y + 9 + 3
                 	__GETD2S 9
001c6e 9508      	RET
                 
                 ;OPTIMIZER ADDED SUBROUTINE, CALLED 2 TIMES, CODE SIZE REDUCTION:3 WORDS
                 SUBOPT_0x3F:
001c6f 89e9      	LDD  R30,Y+17
001c70 89fa      	LDD  R31,Y+17+1
001c71 93fa      	ST   -Y,R31
001c72 93ea      	ST   -Y,R30
                +
001c73 85af     +LDD R26 , Y + 15
001c74 89b8     +LDD R27 , Y + 15 + 1
001c75 8989     +LDD R24 , Y + 15 + 2
001c76 899a     +LDD R25 , Y + 15 + 3
                 	__GETD2S 15
001c77 9508      	RET
                 
                 ;OPTIMIZER ADDED SUBROUTINE, CALLED 2 TIMES, CODE SIZE REDUCTION:5 WORDS
                 SUBOPT_0x40:
                +
001c78 81af     +LDD R26 , Y + 7
001c79 85b8     +LDD R27 , Y + 7 + 1
001c7a 8589     +LDD R24 , Y + 7 + 2
001c7b 859a     +LDD R25 , Y + 7 + 3
                 	__GETD2S 7
001c7c 940e 20cd 	CALL __ADDD21
001c7e 940e 0a2a 	CALL _move_window_G102
001c80 2f4e      	MOV  R20,R30
001c81 3040      	CPI  R20,0
001c82 9508      	RET
                 
                 ;OPTIMIZER ADDED SUBROUTINE, CALLED 2 TIMES, CODE SIZE REDUCTION:3 WORDS
                 SUBOPT_0x41:
001c83 940e 2155 	CALL __MULB1W2U
001c85 70f1      	ANDI R31,HIGH(0x1FF)
001c86 89a9      	LDD  R26,Y+17
001c87 89ba      	LDD  R27,Y+17+1
001c88 96d2      	ADIW R26,50
001c89 0fea      	ADD  R30,R26
001c8a 1ffb      	ADC  R31,R27
001c8b 9508      	RET
                 
                 ;OPTIMIZER ADDED SUBROUTINE, CALLED 7 TIMES, CODE SIZE REDUCTION:9 WORDS
                 SUBOPT_0x42:
                +
001c8c 81ad     +LDD R26 , Y + 5
001c8d 81be     +LDD R27 , Y + 5 + 1
001c8e 818f     +LDD R24 , Y + 5 + 2
001c8f 8598     +LDD R25 , Y + 5 + 3
                 	__GETD2S 5
001c90 9508      	RET
                 
                 ;OPTIMIZER ADDED SUBROUTINE, CALLED 2 TIMES, CODE SIZE REDUCTION:4 WORDS
                 SUBOPT_0x43:
001c91 85a9      	LDD  R26,Y+9
001c92 85ba      	LDD  R27,Y+9+1
001c93 965e      	ADIW R26,30
001c94 940e 21aa 	CALL __GETD1P
001c96 dff5      	RCALL SUBOPT_0x42
001c97 940e 21fd 	CALL __CPD21
001c99 9508      	RET
                 
                 ;OPTIMIZER ADDED SUBROUTINE, CALLED 4 TIMES, CODE SIZE REDUCTION:3 WORDS
                 SUBOPT_0x44:
                +
001c9a 81e9     +LDD R30 , Y + 1
001c9b 81fa     +LDD R31 , Y + 1 + 1
001c9c 816b     +LDD R22 , Y + 1 + 2
001c9d 817c     +LDD R23 , Y + 1 + 3
                 	__GETD1S 1
001c9e 9508      	RET
                 
                 ;OPTIMIZER ADDED SUBROUTINE, CALLED 6 TIMES, CODE SIZE REDUCTION:22 WORDS
                 SUBOPT_0x45:
                +
001c9f 30a1     +CPI R26 , LOW ( 0x1 )
001ca0 e0e0     +LDI R30 , HIGH ( 0x1 )
001ca1 07be     +CPC R27 , R30
001ca2 e0e0     +LDI R30 , BYTE3 ( 0x1 )
001ca3 078e     +CPC R24 , R30
001ca4 e0e0     +LDI R30 , BYTE4 ( 0x1 )
001ca5 079e     +CPC R25 , R30
                 	__CPD2N 0x1
001ca6 9508      	RET
                 
                 ;OPTIMIZER ADDED SUBROUTINE, CALLED 10 TIMES, CODE SIZE REDUCTION:42 WORDS
                 SUBOPT_0x46:
                +
001ca7 3faf     +CPI R26 , LOW ( 0xFFFFFFFF )
001ca8 efef     +LDI R30 , HIGH ( 0xFFFFFFFF )
001ca9 07be     +CPC R27 , R30
001caa efef     +LDI R30 , BYTE3 ( 0xFFFFFFFF )
001cab 078e     +CPC R24 , R30
001cac efef     +LDI R30 , BYTE4 ( 0xFFFFFFFF )
001cad 079e     +CPC R25 , R30
                 	__CPD2N 0xFFFFFFFF
001cae 9508      	RET
                 
                 ;OPTIMIZER ADDED SUBROUTINE, CALLED 5 TIMES, CODE SIZE REDUCTION:5 WORDS
                 SUBOPT_0x47:
                +
001caf 81ef     +LDD R30 , Y + 7
001cb0 85f8     +LDD R31 , Y + 7 + 1
001cb1 8569     +LDD R22 , Y + 7 + 2
001cb2 857a     +LDD R23 , Y + 7 + 3
                 	__GETD1S 7
001cb3 9508      	RET
                 
                 ;OPTIMIZER ADDED SUBROUTINE, CALLED 4 TIMES, CODE SIZE REDUCTION:3 WORDS
                 SUBOPT_0x48:
                +
001cb4 e0a0     +LDI R26 , LOW ( 0x0 )
001cb5 e0b0     +LDI R27 , HIGH ( 0x0 )
001cb6 e080     +LDI R24 , BYTE3 ( 0x0 )
001cb7 e090     +LDI R25 , BYTE4 ( 0x0 )
                 	__GETD2N 0x0
001cb8 9508      	RET
                 
                 ;OPTIMIZER ADDED SUBROUTINE, CALLED 2 TIMES, CODE SIZE REDUCTION:1 WORDS
                 SUBOPT_0x49:
                +
001cb9 85a6     +LDD R26 , Z + 14
001cba 85b7     +LDD R27 , Z + 14 + 1
001cbb 8980     +LDD R24 , Z + 14 + 2
001cbc 8991     +LDD R25 , Z + 14 + 3
                 	__GETD2Z 14
001cbd cfe9      	RJMP SUBOPT_0x46
                 
                 ;OPTIMIZER ADDED SUBROUTINE, CALLED 2 TIMES, CODE SIZE REDUCTION:4 WORDS
                 SUBOPT_0x4A:
001cbe 961e      	ADIW R26,14
001cbf 940e 21b0 	CALL __GETD1P_INC
                +
001cc1 5fef     +SUBI R30 , LOW ( - 1 )
001cc2 4fff     +SBCI R31 , HIGH ( - 1 )
001cc3 4f6f     +SBCI R22 , BYTE3 ( - 1 )
001cc4 4f7f     +SBCI R23 , BYTE4 ( - 1 )
                 	__SUBD1N -1
001cc5 940e 21ba 	CALL __PUTDP1_DEC
001cc7 9508      	RET
                 
                 ;OPTIMIZER ADDED SUBROUTINE, CALLED 3 TIMES, CODE SIZE REDUCTION:1 WORDS
                 SUBOPT_0x4B:
001cc8 940e 21cd 	CALL __PUTD1S0
001cca 9508      	RET
                 
                 ;OPTIMIZER ADDED SUBROUTINE, CALLED 3 TIMES, CODE SIZE REDUCTION:1 WORDS
                 SUBOPT_0x4C:
                +
001ccb 89e8     +LDD R30 , Y + 16
001ccc 89f9     +LDD R31 , Y + 16 + 1
001ccd 896a     +LDD R22 , Y + 16 + 2
001cce 897b     +LDD R23 , Y + 16 + 3
                 	__GETD1S 16
001ccf 9508      	RET
                 
                 ;OPTIMIZER ADDED SUBROUTINE, CALLED 4 TIMES, CODE SIZE REDUCTION:3 WORDS
                 SUBOPT_0x4D:
                +
001cd0 81ac     +LDD R26 , Y + 4
001cd1 81bd     +LDD R27 , Y + 4 + 1
001cd2 818e     +LDD R24 , Y + 4 + 2
001cd3 819f     +LDD R25 , Y + 4 + 3
                 	__GETD2S 4
001cd4 9508      	RET
                 
                 ;OPTIMIZER ADDED SUBROUTINE, CALLED 6 TIMES, CODE SIZE REDUCTION:7 WORDS
                 SUBOPT_0x4E:
001cd5 940e 21c3 	CALL __GETD1S0
001cd7 9508      	RET
                 
                 ;OPTIMIZER ADDED SUBROUTINE, CALLED 3 TIMES, CODE SIZE REDUCTION:1 WORDS
                 SUBOPT_0x4F:
                +
001cd8 83ec     +STD Y + 4 , R30
001cd9 83fd     +STD Y + 4 + 1 , R31
001cda 836e     +STD Y + 4 + 2 , R22
001cdb 837f     +STD Y + 4 + 3 , R23
                 	__PUTD1S 4
001cdc 9508      	RET
                 
                 ;OPTIMIZER ADDED SUBROUTINE, CALLED 4 TIMES, CODE SIZE REDUCTION:3 WORDS
                 SUBOPT_0x50:
001cdd 89ec      	LDD  R30,Y+20
001cde 89fd      	LDD  R31,Y+20+1
001cdf 93fa      	ST   -Y,R31
001ce0 93ea      	ST   -Y,R30
001ce1 9508      	RET
                 
                 ;OPTIMIZER ADDED SUBROUTINE, CALLED 2 TIMES, CODE SIZE REDUCTION:1 WORDS
                 SUBOPT_0x51:
001ce2 940e 0af7 	CALL _get_fat
                +
001ce4 87ec     +STD Y + 12 , R30
001ce5 87fd     +STD Y + 12 + 1 , R31
001ce6 876e     +STD Y + 12 + 2 , R22
001ce7 877f     +STD Y + 12 + 3 , R23
                 	__PUTD1S 12
001ce8 9508      	RET
                 
                 ;OPTIMIZER ADDED SUBROUTINE, CALLED 4 TIMES, CODE SIZE REDUCTION:3 WORDS
                 SUBOPT_0x52:
                +
001ce9 85ac     +LDD R26 , Y + 12
001cea 85bd     +LDD R27 , Y + 12 + 1
001ceb 858e     +LDD R24 , Y + 12 + 2
001cec 859f     +LDD R25 , Y + 12 + 3
                 	__GETD2S 12
001ced 9508      	RET
                 
                 ;OPTIMIZER ADDED SUBROUTINE, CALLED 3 TIMES, CODE SIZE REDUCTION:1 WORDS
                 SUBOPT_0x53:
                +
001cee 85ec     +LDD R30 , Y + 12
001cef 85fd     +LDD R31 , Y + 12 + 1
001cf0 856e     +LDD R22 , Y + 12 + 2
001cf1 857f     +LDD R23 , Y + 12 + 3
                 	__GETD1S 12
001cf2 9508      	RET
                 
                 ;OPTIMIZER ADDED SUBROUTINE, CALLED 4 TIMES, CODE SIZE REDUCTION:3 WORDS
                 SUBOPT_0x54:
                +
001cf3 81ec     +LDD R30 , Y + 4
001cf4 81fd     +LDD R31 , Y + 4 + 1
001cf5 816e     +LDD R22 , Y + 4 + 2
001cf6 817f     +LDD R23 , Y + 4 + 3
                 	__GETD1S 4
001cf7 9508      	RET
                 
                 ;OPTIMIZER ADDED SUBROUTINE, CALLED 3 TIMES, CODE SIZE REDUCTION:1 WORDS
                 SUBOPT_0x55:
                +
001cf8 87e8     +STD Y + 8 , R30
001cf9 87f9     +STD Y + 8 + 1 , R31
001cfa 876a     +STD Y + 8 + 2 , R22
001cfb 877b     +STD Y + 8 + 3 , R23
                 	__PUTD1S 8
001cfc 9508      	RET
                 
                 ;OPTIMIZER ADDED SUBROUTINE, CALLED 3 TIMES, CODE SIZE REDUCTION:1 WORDS
                 SUBOPT_0x56:
                +
001cfd 85e8     +LDD R30 , Y + 8
001cfe 85f9     +LDD R31 , Y + 8 + 1
001cff 856a     +LDD R22 , Y + 8 + 2
001d00 857b     +LDD R23 , Y + 8 + 3
                 	__GETD1S 8
001d01 9508      	RET
                 
                 ;OPTIMIZER ADDED SUBROUTINE, CALLED 2 TIMES, CODE SIZE REDUCTION:1 WORDS
                 SUBOPT_0x57:
001d02 dff0      	RCALL SUBOPT_0x54
001d03 decb      	RCALL SUBOPT_0x2C
001d04 940e 21f8 	CALL __CPD12
001d06 9508      	RET
                 
                 ;OPTIMIZER ADDED SUBROUTINE, CALLED 9 TIMES, CODE SIZE REDUCTION:13 WORDS
                 SUBOPT_0x58:
                +
001d07 e0e0     +LDI R30 , LOW ( 0x0 )
001d08 e0f0     +LDI R31 , HIGH ( 0x0 )
001d09 e060     +LDI R22 , BYTE3 ( 0x0 )
001d0a e070     +LDI R23 , BYTE4 ( 0x0 )
                 	__GETD1N 0x0
001d0b 9508      	RET
                 
                 ;OPTIMIZER ADDED SUBROUTINE, CALLED 3 TIMES, CODE SIZE REDUCTION:5 WORDS
                 SUBOPT_0x59:
                +
001d0c 85ea     +LDD R30 , Y + 10
001d0d 85fb     +LDD R31 , Y + 10 + 1
001d0e 856c     +LDD R22 , Y + 10 + 2
001d0f 857d     +LDD R23 , Y + 10 + 3
                 	__GETD1S 10
001d10 940e 21d7 	CALL __PUTPARD1
001d12 9508      	RET
                 
                 ;OPTIMIZER ADDED SUBROUTINE, CALLED 3 TIMES, CODE SIZE REDUCTION:1 WORDS
                 SUBOPT_0x5A:
001d13 940e 21e1 	CALL __SWAPD12
001d15 940e 20d2 	CALL __SUBD12
001d17 9508      	RET
                 
                 ;OPTIMIZER ADDED SUBROUTINE, CALLED 2 TIMES, CODE SIZE REDUCTION:2 WORDS
                 SUBOPT_0x5B:
                +
001d18 85a8     +LDD R26 , Y + 8
001d19 85b9     +LDD R27 , Y + 8 + 1
001d1a 9614     +ADIW R26 , 4
001d1b 93ed     +ST X + , R30
001d1c 93fc     +ST X , R31
                 	__PUTW1SNS 8,4
001d1d 85a8      	LDD  R26,Y+8
001d1e 85b9      	LDD  R27,Y+8+1
001d1f 9508      	RET
                 
                 ;OPTIMIZER ADDED SUBROUTINE, CALLED 2 TIMES, CODE SIZE REDUCTION:1 WORDS
                 SUBOPT_0x5C:
001d20 940e 21aa 	CALL __GETD1P
                +
001d22 83ea     +STD Y + 2 , R30
001d23 83fb     +STD Y + 2 + 1 , R31
001d24 836c     +STD Y + 2 + 2 , R22
001d25 837d     +STD Y + 2 + 3 , R23
                 	__PUTD1S 2
001d26 9508      	RET
                 
                 ;OPTIMIZER ADDED SUBROUTINE, CALLED 6 TIMES, CODE SIZE REDUCTION:7 WORDS
                 SUBOPT_0x5D:
                +
001d27 81aa     +LDD R26 , Y + 2
001d28 81bb     +LDD R27 , Y + 2 + 1
001d29 818c     +LDD R24 , Y + 2 + 2
001d2a 819d     +LDD R25 , Y + 2 + 3
                 	__GETD2S 2
001d2b 9508      	RET
                 
                 ;OPTIMIZER ADDED SUBROUTINE, CALLED 24 TIMES, CODE SIZE REDUCTION:43 WORDS
                 SUBOPT_0x5E:
001d2c 85a8      	LDD  R26,Y+8
001d2d 85b9      	LDD  R27,Y+8+1
001d2e 940e 21a6 	CALL __GETW1P
001d30 9508      	RET
                 
                 ;OPTIMIZER ADDED SUBROUTINE, CALLED 2 TIMES, CODE SIZE REDUCTION:3 WORDS
                 SUBOPT_0x5F:
001d31 967e      	ADIW R30,30
001d32 01df      	MOVW R26,R30
001d33 940e 21aa 	CALL __GETD1P
001d35 dff1      	RCALL SUBOPT_0x5D
001d36 940e 21fd 	CALL __CPD21
001d38 9508      	RET
                 
                 ;OPTIMIZER ADDED SUBROUTINE, CALLED 2 TIMES, CODE SIZE REDUCTION:1 WORDS
                 SUBOPT_0x60:
                +
001d39 81ea     +LDD R30 , Y + 2
001d3a 81fb     +LDD R31 , Y + 2 + 1
001d3b 816c     +LDD R22 , Y + 2 + 2
001d3c 817d     +LDD R23 , Y + 2 + 3
                 	__GETD1S 2
001d3d 940e 21ee 	CALL __CPD10
001d3f 9508      	RET
                 
                 ;OPTIMIZER ADDED SUBROUTINE, CALLED 2 TIMES, CODE SIZE REDUCTION:7 WORDS
                 SUBOPT_0x61:
                +
001d40 81ea     +LDD R30 , Y + 2
001d41 81fb     +LDD R31 , Y + 2 + 1
001d42 816c     +LDD R22 , Y + 2 + 2
001d43 817d     +LDD R23 , Y + 2 + 3
                 	__GETD1S 2
                +
001d44 85a8     +LDD R26 , Y + 8
001d45 85b9     +LDD R27 , Y + 8 + 1
001d46 961a     +ADIW R26 , 10
001d47 940e 21b5+CALL __PUTDP1
                 	__PUTD1SNS 8,10
001d49 cfe2      	RJMP SUBOPT_0x5E
                 
                 ;OPTIMIZER ADDED SUBROUTINE, CALLED 6 TIMES, CODE SIZE REDUCTION:7 WORDS
                 SUBOPT_0x62:
001d4a 2766      	CLR  R22
001d4b 2777      	CLR  R23
001d4c 940e 20c8 	CALL __ADDD12
001d4e 9508      	RET
                 
                 ;OPTIMIZER ADDED SUBROUTINE, CALLED 2 TIMES, CODE SIZE REDUCTION:1 WORDS
                 SUBOPT_0x63:
                +
001d4f 85a8     +LDD R26 , Y + 8
001d50 85b9     +LDD R27 , Y + 8 + 1
001d51 961e     +ADIW R26 , 14
001d52 940e 21b5+CALL __PUTDP1
                 	__PUTD1SNS 8,14
001d54 9508      	RET
                 
                 ;OPTIMIZER ADDED SUBROUTINE, CALLED 2 TIMES, CODE SIZE REDUCTION:8 WORDS
                 SUBOPT_0x64:
001d55 70ef      	ANDI R30,LOW(0xF)
001d56 70f0      	ANDI R31,HIGH(0xF)
001d57 0fee      	LSL  R30
001d58 940e 210a 	CALL __LSLW4
001d5a 0fea      	ADD  R30,R26
001d5b 1ffb      	ADC  R31,R27
                +
001d5c 85a8     +LDD R26 , Y + 8
001d5d 85b9     +LDD R27 , Y + 8 + 1
001d5e 9652     +ADIW R26 , 18
001d5f 93ed     +ST X + , R30
001d60 93fc     +ST X , R31
                 	__PUTW1SNS 8,18
001d61 e0e0      	LDI  R30,LOW(0)
001d62 9508      	RET
                 
                 ;OPTIMIZER ADDED SUBROUTINE, CALLED 3 TIMES, CODE SIZE REDUCTION:1 WORDS
                 SUBOPT_0x65:
001d63 940e 21aa 	CALL __GETD1P
001d65 940e 21ee 	CALL __CPD10
001d67 9508      	RET
                 
                 ;OPTIMIZER ADDED SUBROUTINE, CALLED 2 TIMES, CODE SIZE REDUCTION:3 WORDS
                 SUBOPT_0x66:
001d68 93fa      	ST   -Y,R31
001d69 93ea      	ST   -Y,R30
001d6a 85ea      	LDD  R30,Y+10
001d6b 85fb      	LDD  R31,Y+10+1
                +
001d6c 85a2     +LDD R26 , Z + 10
001d6d 85b3     +LDD R27 , Z + 10 + 1
001d6e 8584     +LDD R24 , Z + 10 + 2
001d6f 8595     +LDD R25 , Z + 10 + 3
                 	__GETD2Z 10
001d70 9508      	RET
                 
                 ;OPTIMIZER ADDED SUBROUTINE, CALLED 3 TIMES, CODE SIZE REDUCTION:1 WORDS
                 SUBOPT_0x67:
                +
001d71 83eb     +STD Y + 3 , R30
001d72 83fc     +STD Y + 3 + 1 , R31
001d73 836d     +STD Y + 3 + 2 , R22
001d74 837e     +STD Y + 3 + 3 , R23
                 	__PUTD1S 3
001d75 9508      	RET
                 
                 ;OPTIMIZER ADDED SUBROUTINE, CALLED 5 TIMES, CODE SIZE REDUCTION:5 WORDS
                 SUBOPT_0x68:
                +
001d76 81ab     +LDD R26 , Y + 3
001d77 81bc     +LDD R27 , Y + 3 + 1
001d78 818d     +LDD R24 , Y + 3 + 2
001d79 819e     +LDD R25 , Y + 3 + 3
                 	__GETD2S 3
001d7a 9508      	RET
                 
                 ;OPTIMIZER ADDED SUBROUTINE, CALLED 2 TIMES, CODE SIZE REDUCTION:1 WORDS
                 SUBOPT_0x69:
001d7b dff5      	RCALL SUBOPT_0x67
                +
001d7c 81eb     +LDD R30 , Y + 3
001d7d 81fc     +LDD R31 , Y + 3 + 1
001d7e 816d     +LDD R22 , Y + 3 + 2
001d7f 817e     +LDD R23 , Y + 3 + 3
                 	__GETD1S 3
001d80 9508      	RET
                 
                 ;OPTIMIZER ADDED SUBROUTINE, CALLED 2 TIMES, CODE SIZE REDUCTION:1 WORDS
                 SUBOPT_0x6A:
001d81 93fa      	ST   -Y,R31
001d82 93ea      	ST   -Y,R30
001d83 df08      	RCALL SUBOPT_0x42
001d84 940c 0d2b 	JMP  _clust2sect
                 
                 ;OPTIMIZER ADDED SUBROUTINE, CALLED 2 TIMES, CODE SIZE REDUCTION:9 WORDS
                 SUBOPT_0x6B:
001d86 93ba      	ST   -Y,R27
001d87 93aa      	ST   -Y,R26
001d88 940e 2204 	CALL __SAVELOCR4
001d8a 81ec      	LDD  R30,Y+4
001d8b 81fd      	LDD  R31,Y+4+1
001d8c 93fa      	ST   -Y,R31
001d8d 93ea      	ST   -Y,R30
001d8e e0a0      	LDI  R26,LOW(0)
001d8f e0b0      	LDI  R27,0
001d90 940e 0d63 	CALL _dir_seek_G102
001d92 2f0e      	MOV  R16,R30
001d93 3000      	CPI  R16,0
001d94 9508      	RET
                 
                 ;OPTIMIZER ADDED SUBROUTINE, CALLED 3 TIMES, CODE SIZE REDUCTION:25 WORDS
                 SUBOPT_0x6C:
001d95 81ac      	LDD  R26,Y+4
001d96 81bd      	LDD  R27,Y+4+1
001d97 940e 21a6 	CALL __GETW1P
001d99 93fa      	ST   -Y,R31
001d9a 93ea      	ST   -Y,R30
001d9b 81ee      	LDD  R30,Y+6
001d9c 81ff      	LDD  R31,Y+6+1
                +
001d9d 85a6     +LDD R26 , Z + 14
001d9e 85b7     +LDD R27 , Z + 14 + 1
001d9f 8980     +LDD R24 , Z + 14 + 2
001da0 8991     +LDD R25 , Z + 14 + 3
                 	__GETD2Z 14
001da1 940e 0a2a 	CALL _move_window_G102
001da3 2f0e      	MOV  R16,R30
001da4 3000      	CPI  R16,0
001da5 9508      	RET
                 
                 ;OPTIMIZER ADDED SUBROUTINE, CALLED 2 TIMES, CODE SIZE REDUCTION:5 WORDS
                 SUBOPT_0x6D:
001da6 933a      	ST   -Y,R19
001da7 932a      	ST   -Y,R18
001da8 81ee      	LDD  R30,Y+6
001da9 81ff      	LDD  R31,Y+6+1
001daa 89a4      	LDD  R26,Z+20
001dab 89b5      	LDD  R27,Z+21
001dac 93ba      	ST   -Y,R27
001dad 93aa      	ST   -Y,R26
001dae e0ab      	LDI  R26,LOW(11)
001daf e0b0      	LDI  R27,0
001db0 9508      	RET
                 
                 ;OPTIMIZER ADDED SUBROUTINE, CALLED 4 TIMES, CODE SIZE REDUCTION:3 WORDS
                 SUBOPT_0x6E:
001db1 940e 21a6 	CALL __GETW1P
001db3 83ee      	STD  Y+6,R30
001db4 83ff      	STD  Y+6+1,R31
001db5 9508      	RET
                 
                 ;OPTIMIZER ADDED SUBROUTINE, CALLED 3 TIMES, CODE SIZE REDUCTION:1 WORDS
                 SUBOPT_0x6F:
001db6 85e8      	LDD  R30,Y+8
001db7 85f9      	LDD  R31,Y+8+1
001db8 81ae      	LDD  R26,Y+6
001db9 81bf      	LDD  R27,Y+6+1
001dba 9508      	RET
                 
                 ;OPTIMIZER ADDED SUBROUTINE, CALLED 2 TIMES, CODE SIZE REDUCTION:6 WORDS
                 SUBOPT_0x70:
001dbb 85e8      	LDD  R30,Y+8
001dbc 85f9      	LDD  R31,Y+8+1
001dbd 9631      	ADIW R30,1
001dbe 87e8      	STD  Y+8,R30
001dbf 87f9      	STD  Y+8+1,R31
001dc0 9731      	SBIW R30,1
001dc1 81ae      	LDD  R26,Y+6
001dc2 81bf      	LDD  R27,Y+6+1
001dc3 0fae      	ADD  R26,R30
001dc4 1fbf      	ADC  R27,R31
001dc5 911c      	LD   R17,X
001dc6 9508      	RET
                 
                 ;OPTIMIZER ADDED SUBROUTINE, CALLED 3 TIMES, CODE SIZE REDUCTION:5 WORDS
                 SUBOPT_0x71:
001dc7 2fe5      	MOV  R30,R21
001dc8 5f5f      	SUBI R21,-1
001dc9 e0f0      	LDI  R31,0
001dca 0fe3      	ADD  R30,R19
001dcb 1ff4      	ADC  R31,R20
001dcc 8310      	ST   Z,R17
001dcd 9508      	RET
                 
                 ;OPTIMIZER ADDED SUBROUTINE, CALLED 2 TIMES, CODE SIZE REDUCTION:2 WORDS
                 SUBOPT_0x72:
001dce 0fea      	ADD  R30,R26
001dcf 1ffb      	ADC  R31,R27
001dd0 85ab      	LDD  R26,Y+11
001dd1 85bc      	LDD  R27,Y+11+1
001dd2 93ed      	ST   X+,R30
001dd3 93fc      	ST   X,R31
001dd4 3211      	CPI  R17,33
001dd5 9508      	RET
                 
                 ;OPTIMIZER ADDED SUBROUTINE, CALLED 4 TIMES, CODE SIZE REDUCTION:3 WORDS
                 SUBOPT_0x73:
001dd6 df30      	RCALL SUBOPT_0x58
001dd7 940e 21b5 	CALL __PUTDP1
001dd9 9508      	RET
                 
                 ;OPTIMIZER ADDED SUBROUTINE, CALLED 2 TIMES, CODE SIZE REDUCTION:1 WORDS
                 SUBOPT_0x74:
                +
001dda 81ae     +LDD R26 , Y + 6
001ddb 81bf     +LDD R27 , Y + 6 + 1
001ddc 9616     +ADIW R26 , 6
001ddd 940e 21b5+CALL __PUTDP1
                 	__PUTD1SNS 6,6
001ddf 9508      	RET
                 
                 ;OPTIMIZER ADDED SUBROUTINE, CALLED 3 TIMES, CODE SIZE REDUCTION:1 WORDS
                 SUBOPT_0x75:
001de0 81ee      	LDD  R30,Y+6
001de1 81ff      	LDD  R31,Y+6+1
001de2 93fa      	ST   -Y,R31
001de3 93ea      	ST   -Y,R30
001de4 9508      	RET
                 
                 ;OPTIMIZER ADDED SUBROUTINE, CALLED 5 TIMES, CODE SIZE REDUCTION:5 WORDS
                 SUBOPT_0x76:
001de5 e0e0      	LDI  R30,LOW(0)
001de6 e0f0      	LDI  R31,HIGH(0)
001de7 93ed      	ST   X+,R30
001de8 93fc      	ST   X,R31
001de9 9508      	RET
                 
                 ;OPTIMIZER ADDED SUBROUTINE, CALLED 3 TIMES, CODE SIZE REDUCTION:3 WORDS
                 SUBOPT_0x77:
                +
001dea 2fa1     +MOV R26 , R17
001deb 2fb2     +MOV R27 , R18
                 	__GETW2R 17,18
001dec 9654      	ADIW R26,20
001ded ce3a      	RJMP SUBOPT_0x36
                 
                 ;OPTIMIZER ADDED SUBROUTINE, CALLED 3 TIMES, CODE SIZE REDUCTION:3 WORDS
                 SUBOPT_0x78:
                +
001dee 2fa1     +MOV R26 , R17
001def 2fb2     +MOV R27 , R18
                 	__GETW2R 17,18
001df0 965a      	ADIW R26,26
001df1 940e 21a6 	CALL __GETW1P
001df3 9508      	RET
                 
                 ;OPTIMIZER ADDED SUBROUTINE, CALLED 3 TIMES, CODE SIZE REDUCTION:1 WORDS
                 SUBOPT_0x79:
001df4 2766      	CLR  R22
001df5 2777      	CLR  R23
001df6 940e 20e1 	CALL __ORD12
001df8 9508      	RET
                 
                 ;OPTIMIZER ADDED SUBROUTINE, CALLED 2 TIMES, CODE SIZE REDUCTION:4 WORDS
                 SUBOPT_0x7A:
001df9 96f2      	ADIW R30,50
001dfa 50e2      	SUBI R30,LOW(-510)
001dfb 4ffe      	SBCI R31,HIGH(-510)
001dfc 01df      	MOVW R26,R30
001dfd 940e 21a6 	CALL __GETW1P
001dff 35e5      	CPI  R30,LOW(0xAA55)
001e00 eaaa      	LDI  R26,HIGH(0xAA55)
001e01 07fa      	CPC  R31,R26
001e02 9508      	RET
                 
                 ;OPTIMIZER ADDED SUBROUTINE, CALLED 2 TIMES, CODE SIZE REDUCTION:8 WORDS
                 SUBOPT_0x7B:
001e03 940e 21aa 	CALL __GETD1P
                +
001e05 7fef     +ANDI R30 , LOW ( 0xFFFFFF )
001e06 7fff     +ANDI R31 , HIGH ( 0xFFFFFF )
001e07 7f6f     +ANDI R22 , BYTE3 ( 0xFFFFFF )
001e08 7070     +ANDI R23 , BYTE4 ( 0xFFFFFF )
                 	__ANDD1N 0xFFFFFF
                +
001e09 34e6     +CPI R30 , LOW ( 0x544146 )
001e0a e4a1     +LDI R26 , HIGH ( 0x544146 )
001e0b 07fa     +CPC R31 , R26
001e0c e5a4     +LDI R26 , BYTE3 ( 0x544146 )
001e0d 076a     +CPC R22 , R26
001e0e e0a0     +LDI R26 , BYTE4 ( 0x544146 )
001e0f 077a     +CPC R23 , R26
                 	__CPD1N 0x544146
001e10 9508      	RET
                 
                 ;OPTIMIZER ADDED SUBROUTINE, CALLED 2 TIMES, CODE SIZE REDUCTION:2 WORDS
                 SUBOPT_0x7C:
001e11 e3ab      	LDI  R26,LOW(_FatFs_G102)
001e12 e0be      	LDI  R27,HIGH(_FatFs_G102)
001e13 e0f0      	LDI  R31,0
001e14 0fee      	LSL  R30
001e15 1fff      	ROL  R31
001e16 0fae      	ADD  R26,R30
001e17 1fbf      	ADC  R27,R31
001e18 9508      	RET
                 
                 ;OPTIMIZER ADDED SUBROUTINE, CALLED 6 TIMES, CODE SIZE REDUCTION:7 WORDS
                 SUBOPT_0x7D:
                +
001e19 8be9     +STD Y + 17 , R30
001e1a 8bfa     +STD Y + 17 + 1 , R31
001e1b 8b6b     +STD Y + 17 + 2 , R22
001e1c 8b7c     +STD Y + 17 + 3 , R23
                 	__PUTD1S 17
001e1d 9508      	RET
                 
                 ;OPTIMIZER ADDED SUBROUTINE, CALLED 7 TIMES, CODE SIZE REDUCTION:9 WORDS
                 SUBOPT_0x7E:
                +
001e1e 89e9     +LDD R30 , Y + 17
001e1f 89fa     +LDD R31 , Y + 17 + 1
001e20 896b     +LDD R22 , Y + 17 + 2
001e21 897c     +LDD R23 , Y + 17 + 3
                 	__GETD1S 17
001e22 9508      	RET
                 
                 ;OPTIMIZER ADDED SUBROUTINE, CALLED 8 TIMES, CODE SIZE REDUCTION:11 WORDS
                 SUBOPT_0x7F:
                +
001e23 89a9     +LDD R26 , Y + 17
001e24 89ba     +LDD R27 , Y + 17 + 1
001e25 898b     +LDD R24 , Y + 17 + 2
001e26 899c     +LDD R25 , Y + 17 + 3
                 	__GETD2S 17
001e27 9508      	RET
                 
                 ;OPTIMIZER ADDED SUBROUTINE, CALLED 2 TIMES, CODE SIZE REDUCTION:1 WORDS
                 SUBOPT_0x80:
001e28 81ad      	LDD  R26,Y+5
001e29 81be      	LDD  R27,Y+5+1
001e2a 5ca0      	SUBI R26,LOW(-64)
001e2b 4fbf      	SBCI R27,HIGH(-64)
001e2c 940e 21a6 	CALL __GETW1P
001e2e 9508      	RET
                 
                 ;OPTIMIZER ADDED SUBROUTINE, CALLED 2 TIMES, CODE SIZE REDUCTION:1 WORDS
                 SUBOPT_0x81:
                +
001e2f 89ad     +LDD R26 , Y + 21
001e30 89be     +LDD R27 , Y + 21 + 1
001e31 898f     +LDD R24 , Y + 21 + 2
001e32 8d98     +LDD R25 , Y + 21 + 3
                 	__GETD2S 21
001e33 cf16      	RJMP SUBOPT_0x62
                 
                 ;OPTIMIZER ADDED SUBROUTINE, CALLED 7 TIMES, CODE SIZE REDUCTION:9 WORDS
                 SUBOPT_0x82:
                +
001e34 87ed     +STD Y + 13 , R30
001e35 87fe     +STD Y + 13 + 1 , R31
001e36 876f     +STD Y + 13 + 2 , R22
001e37 8b78     +STD Y + 13 + 3 , R23
                 	__PUTD1S 13
001e38 9508      	RET
                 
                 ;OPTIMIZER ADDED SUBROUTINE, CALLED 4 TIMES, CODE SIZE REDUCTION:9 WORDS
                 SUBOPT_0x83:
                +
001e39 85ed     +LDD R30 , Y + 13
001e3a 85fe     +LDD R31 , Y + 13 + 1
001e3b 856f     +LDD R22 , Y + 13 + 2
001e3c 8978     +LDD R23 , Y + 13 + 3
                 	__GETD1S 13
001e3d 940e 21ee 	CALL __CPD10
001e3f 9508      	RET
                 
                 ;OPTIMIZER ADDED SUBROUTINE, CALLED 3 TIMES, CODE SIZE REDUCTION:1 WORDS
                 SUBOPT_0x84:
001e40 940e 21aa 	CALL __GETD1P
001e42 cff1      	RJMP SUBOPT_0x82
                 
                 ;OPTIMIZER ADDED SUBROUTINE, CALLED 2 TIMES, CODE SIZE REDUCTION:2 WORDS
                 SUBOPT_0x85:
001e43 81ed      	LDD  R30,Y+5
001e44 81fe      	LDD  R31,Y+5+1
001e45 85a0      	LDD  R26,Z+8
001e46 85b1      	LDD  R27,Z+9
001e47 01fd      	MOVW R30,R26
001e48 940e 2113 	CALL __LSRW4
001e4a 9508      	RET
                 
                 ;OPTIMIZER ADDED SUBROUTINE, CALLED 2 TIMES, CODE SIZE REDUCTION:3 WORDS
                 SUBOPT_0x86:
001e4b 81ed      	LDD  R30,Y+5
001e4c 81fe      	LDD  R31,Y+5+1
001e4d dd40      	RCALL SUBOPT_0x24
001e4e dfcf      	RCALL SUBOPT_0x7E
001e4f 940e 20c8 	CALL __ADDD12
001e51 9508      	RET
                 
                 ;OPTIMIZER ADDED SUBROUTINE, CALLED 3 TIMES, CODE SIZE REDUCTION:3 WORDS
                 SUBOPT_0x87:
001e52 91ed      	LD   R30,X+
001e53 91fd      	LD   R31,X+
001e54 9631      	ADIW R30,1
001e55 93fe      	ST   -X,R31
001e56 93ee      	ST   -X,R30
001e57 9508      	RET
                 
                 ;OPTIMIZER ADDED SUBROUTINE, CALLED 2 TIMES, CODE SIZE REDUCTION:1 WORDS
                 SUBOPT_0x88:
001e58 e0a0      	LDI  R26,LOW(0)
001e59 e0b0      	LDI  R27,HIGH(0)
001e5a 83a0      	STD  Z+0,R26
001e5b 83b1      	STD  Z+1,R27
                +
001e5c 2fe1     +MOV R30 , R17
001e5d 2ff2     +MOV R31 , R18
                 	__GETW1R 17,18
001e5e 9508      	RET
                 
                 ;OPTIMIZER ADDED SUBROUTINE, CALLED 5 TIMES, CODE SIZE REDUCTION:5 WORDS
                 SUBOPT_0x89:
                +
001e5f 50e1     +SUBI R30 , LOW ( 1 )
001e60 40f0     +SBCI R31 , HIGH ( 1 )
001e61 4060     +SBCI R22 , BYTE3 ( 1 )
001e62 4070     +SBCI R23 , BYTE4 ( 1 )
                 	__SUBD1N 1
001e63 9508      	RET
                 
                 ;OPTIMIZER ADDED SUBROUTINE, CALLED 19 TIMES, CODE SIZE REDUCTION:33 WORDS
                 SUBOPT_0x8A:
001e64 89ad      	LDD  R26,Y+21
001e65 89be      	LDD  R27,Y+21+1
001e66 940e 21a6 	CALL __GETW1P
001e68 9508      	RET
                 
                 ;OPTIMIZER ADDED SUBROUTINE, CALLED 5 TIMES, CODE SIZE REDUCTION:5 WORDS
                 SUBOPT_0x8B:
001e69 93fa      	ST   -Y,R31
001e6a 93ea      	ST   -Y,R30
001e6b 89ef      	LDD  R30,Y+23
001e6c 8df8      	LDD  R31,Y+23+1
001e6d 9508      	RET
                 
                 ;OPTIMIZER ADDED SUBROUTINE, CALLED 3 TIMES, CODE SIZE REDUCTION:5 WORDS
                 SUBOPT_0x8C:
001e6e 81a2      	LDD  R26,Z+2
001e6f 81b3      	LDD  R27,Z+3
001e70 940e 12a7 	CALL _validate_G102
001e72 2f0e      	MOV  R16,R30
001e73 3000      	CPI  R16,0
001e74 9508      	RET
                 
                 ;OPTIMIZER ADDED SUBROUTINE, CALLED 3 TIMES, CODE SIZE REDUCTION:1 WORDS
                 SUBOPT_0x8D:
001e75 89ed      	LDD  R30,Y+21
001e76 89fe      	LDD  R31,Y+21+1
001e77 81a4      	LDD  R26,Z+4
001e78 70a2      	ANDI R26,LOW(0x2)
001e79 9508      	RET
                 
                 ;OPTIMIZER ADDED SUBROUTINE, CALLED 6 TIMES, CODE SIZE REDUCTION:12 WORDS
                 SUBOPT_0x8E:
001e7a 89ad      	LDD  R26,Y+21
001e7b 89be      	LDD  R27,Y+21+1
001e7c 961a      	ADIW R26,10
001e7d 940e 21aa 	CALL __GETD1P
001e7f 9508      	RET
                 
                 ;OPTIMIZER ADDED SUBROUTINE, CALLED 5 TIMES, CODE SIZE REDUCTION:13 WORDS
                 SUBOPT_0x8F:
001e80 89ed      	LDD  R30,Y+21
001e81 89fe      	LDD  R31,Y+21+1
                +
001e82 81a6     +LDD R26 , Z + 6
001e83 81b7     +LDD R27 , Z + 6 + 1
001e84 8580     +LDD R24 , Z + 6 + 2
001e85 8591     +LDD R25 , Z + 6 + 3
                 	__GETD2Z 6
001e86 9508      	RET
                 
                 ;OPTIMIZER ADDED SUBROUTINE, CALLED 3 TIMES, CODE SIZE REDUCTION:1 WORDS
                 SUBOPT_0x90:
                +
001e87 87eb     +STD Y + 11 , R30
001e88 87fc     +STD Y + 11 + 1 , R31
001e89 876d     +STD Y + 11 + 2 , R22
001e8a 877e     +STD Y + 11 + 3 , R23
                 	__PUTD1S 11
001e8b 9508      	RET
                 
                 ;OPTIMIZER ADDED SUBROUTINE, CALLED 2 TIMES, CODE SIZE REDUCTION:1 WORDS
                 SUBOPT_0x91:
                +
001e8c 85eb     +LDD R30 , Y + 11
001e8d 85fc     +LDD R31 , Y + 11 + 1
001e8e 856d     +LDD R22 , Y + 11 + 2
001e8f 857e     +LDD R23 , Y + 11 + 3
                 	__GETD1S 11
001e90 940e 21ee 	CALL __CPD10
001e92 9508      	RET
                 
                 ;OPTIMIZER ADDED SUBROUTINE, CALLED 2 TIMES, CODE SIZE REDUCTION:1 WORDS
                 SUBOPT_0x92:
001e93 93fa      	ST   -Y,R31
001e94 93ea      	ST   -Y,R30
001e95 de1e      	RCALL SUBOPT_0x48
001e96 940c 0c64 	JMP  _create_chain_G102
                 
                 ;OPTIMIZER ADDED SUBROUTINE, CALLED 2 TIMES, CODE SIZE REDUCTION:1 WORDS
                 SUBOPT_0x93:
                +
001e98 89ad     +LDD R26 , Y + 21
001e99 89be     +LDD R27 , Y + 21 + 1
001e9a 961e     +ADIW R26 , 14
001e9b 940e 21b5+CALL __PUTDP1
                 	__PUTD1SNS 21,14
001e9d 9508      	RET
                 
                 ;OPTIMIZER ADDED SUBROUTINE, CALLED 13 TIMES, CODE SIZE REDUCTION:45 WORDS
                 SUBOPT_0x94:
001e9e 89ad      	LDD  R26,Y+21
001e9f 89be      	LDD  R27,Y+21+1
001ea0 9614      	ADIW R26,4
001ea1 91ec      	LD   R30,X
001ea2 68e0      	ORI  R30,0x80
001ea3 93ec      	ST   X,R30
001ea4 9508      	RET
                 
                 ;OPTIMIZER ADDED SUBROUTINE, CALLED 3 TIMES, CODE SIZE REDUCTION:5 WORDS
                 SUBOPT_0x95:
                +
001ea5 89ad     +LDD R26 , Y + 21
001ea6 89be     +LDD R27 , Y + 21 + 1
001ea7 9652     +ADIW R26 , 18
001ea8 940e 21b5+CALL __PUTDP1
                 	__PUTD1SNS 21,18
001eaa 9508      	RET
                 
                 ;OPTIMIZER ADDED SUBROUTINE, CALLED 3 TIMES, CODE SIZE REDUCTION:7 WORDS
                 SUBOPT_0x96:
001eab 81e1      	LDD  R30,Z+1
001eac 93ea      	ST   -Y,R30
001ead 89ee      	LDD  R30,Y+22
001eae 89ff      	LDD  R31,Y+22+1
001eaf 96b0      	ADIW R30,32
001eb0 93fa      	ST   -Y,R31
001eb1 93ea      	ST   -Y,R30
001eb2 9508      	RET
                 
                 ;OPTIMIZER ADDED SUBROUTINE, CALLED 2 TIMES, CODE SIZE REDUCTION:7 WORDS
                 SUBOPT_0x97:
001eb3 8de8      	LDD  R30,Y+24
001eb4 8df9      	LDD  R31,Y+24+1
                +
001eb5 89a6     +LDD R26 , Z + 22
001eb6 89b7     +LDD R27 , Z + 22 + 1
001eb7 8d80     +LDD R24 , Z + 22 + 2
001eb8 8d91     +LDD R25 , Z + 22 + 3
                 	__GETD2Z 22
001eb9 940e 21dc 	CALL __PUTPARD2
001ebb e0a1      	LDI  R26,LOW(1)
001ebc 940e 0750 	CALL _disk_write
001ebe 30e0      	CPI  R30,0
001ebf 9508      	RET
                 
                 ;OPTIMIZER ADDED SUBROUTINE, CALLED 3 TIMES, CODE SIZE REDUCTION:5 WORDS
                 SUBOPT_0x98:
001ec0 89ad      	LDD  R26,Y+21
001ec1 89be      	LDD  R27,Y+21+1
001ec2 9614      	ADIW R26,4
001ec3 91ec      	LD   R30,X
001ec4 7bef      	ANDI R30,0xBF
001ec5 93ec      	ST   X,R30
001ec6 9508      	RET
                 
                 ;OPTIMIZER ADDED SUBROUTINE, CALLED 4 TIMES, CODE SIZE REDUCTION:3 WORDS
                 SUBOPT_0x99:
001ec7 89ed      	LDD  R30,Y+21
001ec8 89fe      	LDD  R31,Y+21+1
001ec9 81e5      	LDD  R30,Z+5
001eca e0f0      	LDI  R31,0
001ecb 9508      	RET
                 
                 ;OPTIMIZER ADDED SUBROUTINE, CALLED 2 TIMES, CODE SIZE REDUCTION:3 WORDS
                 SUBOPT_0x9A:
001ecc 89ed      	LDD  R30,Y+21
001ecd 89fe      	LDD  R31,Y+21+1
                +
001ece 89a6     +LDD R26 , Z + 22
001ecf 89b7     +LDD R27 , Z + 22 + 1
001ed0 8d80     +LDD R24 , Z + 22 + 2
001ed1 8d91     +LDD R25 , Z + 22 + 3
                 	__GETD2Z 22
001ed2 cddc      	RJMP SUBOPT_0x47
                 
                 ;OPTIMIZER ADDED SUBROUTINE, CALLED 6 TIMES, CODE SIZE REDUCTION:7 WORDS
                 SUBOPT_0x9B:
                +
001ed3 85e9     +LDD R30 , Y + 9
001ed4 85fa     +LDD R31 , Y + 9 + 1
001ed5 856b     +LDD R22 , Y + 9 + 2
001ed6 857c     +LDD R23 , Y + 9 + 3
                 	__GETD1S 9
001ed7 9508      	RET
                 
                 ;OPTIMIZER ADDED SUBROUTINE, CALLED 3 TIMES, CODE SIZE REDUCTION:1 WORDS
                 SUBOPT_0x9C:
001ed8 89ad      	LDD  R26,Y+21
001ed9 89be      	LDD  R27,Y+21+1
001eda 9615      	ADIW R26,5
001edb 91ec      	LD   R30,X
001edc 9508      	RET
                 
                 ;OPTIMIZER ADDED SUBROUTINE, CALLED 2 TIMES, CODE SIZE REDUCTION:1 WORDS
                 SUBOPT_0x9D:
                +
001edd 89ad     +LDD R26 , Y + 21
001ede 89be     +LDD R27 , Y + 21 + 1
001edf 9656     +ADIW R26 , 22
001ee0 940e 21b5+CALL __PUTDP1
                 	__PUTD1SNS 21,22
001ee2 9508      	RET
                 
                 ;OPTIMIZER ADDED SUBROUTINE, CALLED 2 TIMES, CODE SIZE REDUCTION:1 WORDS
                 SUBOPT_0x9E:
001ee3 89ad      	LDD  R26,Y+21
001ee4 89be      	LDD  R27,Y+21+1
001ee5 9616      	ADIW R26,6
001ee6 940e 21a6 	CALL __GETW1P
001ee8 70f1      	ANDI R31,HIGH(0x1FF)
001ee9 9508      	RET
                 
                 ;OPTIMIZER ADDED SUBROUTINE, CALLED 3 TIMES, CODE SIZE REDUCTION:1 WORDS
                 SUBOPT_0x9F:
001eea 89ad      	LDD  R26,Y+21
001eeb 89be      	LDD  R27,Y+21+1
001eec 9614      	ADIW R26,4
001eed 91ec      	LD   R30,X
001eee 9508      	RET
                 
                 ;OPTIMIZER ADDED SUBROUTINE, CALLED 3 TIMES, CODE SIZE REDUCTION:7 WORDS
                 SUBOPT_0xA0:
001eef 89ed      	LDD  R30,Y+21
001ef0 89fe      	LDD  R31,Y+21+1
001ef1 9636      	ADIW R30,6
001ef2 010f      	MOVW R0,R30
001ef3 01df      	MOVW R26,R30
001ef4 940e 21aa 	CALL __GETD1P
001ef6 9508      	RET
                 
                 ;OPTIMIZER ADDED SUBROUTINE, CALLED 3 TIMES, CODE SIZE REDUCTION:3 WORDS
                 SUBOPT_0xA1:
001ef7 89ad      	LDD  R26,Y+21
001ef8 89be      	LDD  R27,Y+21+1
001ef9 9616      	ADIW R26,6
001efa 940e 21aa 	CALL __GETD1P
001efc 9508      	RET
                 
                 ;OPTIMIZER ADDED SUBROUTINE, CALLED 2 TIMES, CODE SIZE REDUCTION:1 WORDS
                 SUBOPT_0xA2:
                +
001efd 89ad     +LDD R26 , Y + 21
001efe 89be     +LDD R27 , Y + 21 + 1
001eff 961a     +ADIW R26 , 10
001f00 940e 21b5+CALL __PUTDP1
                 	__PUTD1SNS 21,10
001f02 9508      	RET
                 
                 ;OPTIMIZER ADDED SUBROUTINE, CALLED 5 TIMES, CODE SIZE REDUCTION:5 WORDS
                 SUBOPT_0xA3:
001f03 81af      	LDD  R26,Y+7
001f04 85b8      	LDD  R27,Y+7+1
001f05 940e 21a6 	CALL __GETW1P
001f07 9508      	RET
                 
                 ;OPTIMIZER ADDED SUBROUTINE, CALLED 2 TIMES, CODE SIZE REDUCTION:1 WORDS
                 SUBOPT_0xA4:
                +
001f08 89ad     +LDD R26 , Y + 21
001f09 89be     +LDD R27 , Y + 21 + 1
001f0a 9616     +ADIW R26 , 6
001f0b 940e 21b5+CALL __PUTDP1
                 	__PUTD1SNS 21,6
001f0d 9508      	RET
                 
                 ;OPTIMIZER ADDED SUBROUTINE, CALLED 2 TIMES, CODE SIZE REDUCTION:3 WORDS
                 SUBOPT_0xA5:
001f0e df50      	RCALL SUBOPT_0x89
001f0f 01df      	MOVW R26,R30
001f10 01cb      	MOVW R24,R22
001f11 dfc1      	RCALL SUBOPT_0x9B
001f12 940e 2173 	CALL __DIVD21U
001f14 9508      	RET
                 
                 ;OPTIMIZER ADDED SUBROUTINE, CALLED 3 TIMES, CODE SIZE REDUCTION:1 WORDS
                 SUBOPT_0xA6:
                +
001f15 85ed     +LDD R30 , Y + 13
001f16 85fe     +LDD R31 , Y + 13 + 1
001f17 856f     +LDD R22 , Y + 13 + 2
001f18 8978     +LDD R23 , Y + 13 + 3
                 	__GETD1S 13
001f19 9508      	RET
                 
                 ;OPTIMIZER ADDED SUBROUTINE, CALLED 3 TIMES, CODE SIZE REDUCTION:5 WORDS
                 SUBOPT_0xA7:
001f1a 93fa      	ST   -Y,R31
001f1b 93ea      	ST   -Y,R30
                +
001f1c 85af     +LDD R26 , Y + 15
001f1d 89b8     +LDD R27 , Y + 15 + 1
001f1e 8989     +LDD R24 , Y + 15 + 2
001f1f 899a     +LDD R25 , Y + 15 + 3
                 	__GETD2S 15
001f20 9508      	RET
                 
                 ;OPTIMIZER ADDED SUBROUTINE, CALLED 5 TIMES, CODE SIZE REDUCTION:13 WORDS
                 SUBOPT_0xA8:
001f21 933a      	ST   -Y,R19
001f22 85ad      	LDD  R26,Y+13
001f23 85be      	LDD  R27,Y+13+1
001f24 85ef      	LDD  R30,Y+15
001f25 89f8      	LDD  R31,Y+15+1
001f26 9509      	ICALL
001f27 9508      	RET
                 
                 ;OPTIMIZER ADDED SUBROUTINE, CALLED 5 TIMES, CODE SIZE REDUCTION:9 WORDS
                 SUBOPT_0xA9:
001f28 89e8      	LDD  R30,Y+16
001f29 89f9      	LDD  R31,Y+16+1
001f2a 9734      	SBIW R30,4
001f2b 8be8      	STD  Y+16,R30
001f2c 8bf9      	STD  Y+16+1,R31
001f2d 9508      	RET
                 
                 ;OPTIMIZER ADDED SUBROUTINE, CALLED 3 TIMES, CODE SIZE REDUCTION:3 WORDS
                 SUBOPT_0xAA:
001f2e 85ad      	LDD  R26,Y+13
001f2f 85be      	LDD  R27,Y+13+1
001f30 85ef      	LDD  R30,Y+15
001f31 89f8      	LDD  R31,Y+15+1
001f32 9509      	ICALL
001f33 9508      	RET
                 
                 ;OPTIMIZER ADDED SUBROUTINE, CALLED 2 TIMES, CODE SIZE REDUCTION:2 WORDS
                 SUBOPT_0xAB:
001f34 89a8      	LDD  R26,Y+16
001f35 89b9      	LDD  R27,Y+16+1
001f36 9614      	ADIW R26,4
001f37 940e 21a6 	CALL __GETW1P
001f39 87ea      	STD  Y+10,R30
001f3a 87fb      	STD  Y+10+1,R31
001f3b 9508      	RET
                 
                 
                 	.CSEG
                 _delay_ms:
001f3c 9610      	adiw r26,0
001f3d f039      	breq __delay_ms1
                 __delay_ms0:
                +
001f3e ef84     +LDI R24 , LOW ( 0x1F4 )
001f3f e091     +LDI R25 , HIGH ( 0x1F4 )
                +__DELAY_USW_LOOP :
001f40 9701     +SBIW R24 , 1
001f41 f7f1     +BRNE __DELAY_USW_LOOP
                 	__DELAY_USW 0x1F4
001f42 95a8      	wdr
001f43 9711      	sbiw r26,1
001f44 f7c9      	brne __delay_ms0
                 __delay_ms1:
001f45 9508      	ret
                 
                 __ROUND_REPACK:
001f46 2355      	TST  R21
001f47 f442      	BRPL __REPACK
001f48 3850      	CPI  R21,0x80
001f49 f411      	BRNE __ROUND_REPACK0
001f4a ffe0      	SBRS R30,0
001f4b c004      	RJMP __REPACK
                 __ROUND_REPACK0:
001f4c 9631      	ADIW R30,1
001f4d 1f69      	ADC  R22,R25
001f4e 1f79      	ADC  R23,R25
001f4f f06b      	BRVS __REPACK1
                 
                 __REPACK:
001f50 e850      	LDI  R21,0x80
001f51 2757      	EOR  R21,R23
001f52 f411      	BRNE __REPACK0
001f53 935f      	PUSH R21
001f54 c0ca      	RJMP __ZERORES
                 __REPACK0:
001f55 3f5f      	CPI  R21,0xFF
001f56 f031      	BREQ __REPACK1
001f57 0f66      	LSL  R22
001f58 0c00      	LSL  R0
001f59 9557      	ROR  R21
001f5a 9567      	ROR  R22
001f5b 2f75      	MOV  R23,R21
001f5c 9508      	RET
                 __REPACK1:
001f5d 935f      	PUSH R21
001f5e 2000      	TST  R0
001f5f f00a      	BRMI __REPACK2
001f60 c0ca      	RJMP __MAXRES
                 __REPACK2:
001f61 c0c3      	RJMP __MINRES
                 
                 __UNPACK:
001f62 e850      	LDI  R21,0x80
001f63 2e19      	MOV  R1,R25
001f64 2215      	AND  R1,R21
001f65 0f88      	LSL  R24
001f66 1f99      	ROL  R25
001f67 2795      	EOR  R25,R21
001f68 0f55      	LSL  R21
001f69 9587      	ROR  R24
                 
                 __UNPACK1:
001f6a e850      	LDI  R21,0x80
001f6b 2e07      	MOV  R0,R23
001f6c 2205      	AND  R0,R21
001f6d 0f66      	LSL  R22
001f6e 1f77      	ROL  R23
001f6f 2775      	EOR  R23,R21
001f70 0f55      	LSL  R21
001f71 9567      	ROR  R22
001f72 9508      	RET
                 
                 __CFD1U:
001f73 9468      	SET
001f74 c001      	RJMP __CFD1U0
                 __CFD1:
001f75 94e8      	CLT
                 __CFD1U0:
001f76 935f      	PUSH R21
001f77 dff2      	RCALL __UNPACK1
001f78 3870      	CPI  R23,0x80
001f79 f018      	BRLO __CFD10
001f7a 3f7f      	CPI  R23,0xFF
001f7b f408      	BRCC __CFD10
001f7c c0a2      	RJMP __ZERORES
                 __CFD10:
001f7d e156      	LDI  R21,22
001f7e 1b57      	SUB  R21,R23
001f7f f4aa      	BRPL __CFD11
001f80 9551      	NEG  R21
001f81 3058      	CPI  R21,8
001f82 f40e      	BRTC __CFD19
001f83 3059      	CPI  R21,9
                 __CFD19:
001f84 f030      	BRLO __CFD17
001f85 efef      	SER  R30
001f86 efff      	SER  R31
001f87 ef6f      	SER  R22
001f88 e77f      	LDI  R23,0x7F
001f89 f977      	BLD  R23,7
001f8a c01a      	RJMP __CFD15
                 __CFD17:
001f8b 2777      	CLR  R23
001f8c 2355      	TST  R21
001f8d f0b9      	BREQ __CFD15
                 __CFD18:
001f8e 0fee      	LSL  R30
001f8f 1fff      	ROL  R31
001f90 1f66      	ROL  R22
001f91 1f77      	ROL  R23
001f92 955a      	DEC  R21
001f93 f7d1      	BRNE __CFD18
001f94 c010      	RJMP __CFD15
                 __CFD11:
001f95 2777      	CLR  R23
                 __CFD12:
001f96 3058      	CPI  R21,8
001f97 f028      	BRLO __CFD13
001f98 2fef      	MOV  R30,R31
001f99 2ff6      	MOV  R31,R22
001f9a 2f67      	MOV  R22,R23
001f9b 5058      	SUBI R21,8
001f9c cff9      	RJMP __CFD12
                 __CFD13:
001f9d 2355      	TST  R21
001f9e f031      	BREQ __CFD15
                 __CFD14:
001f9f 9576      	LSR  R23
001fa0 9567      	ROR  R22
001fa1 95f7      	ROR  R31
001fa2 95e7      	ROR  R30
001fa3 955a      	DEC  R21
001fa4 f7d1      	BRNE __CFD14
                 __CFD15:
001fa5 2000      	TST  R0
001fa6 f40a      	BRPL __CFD16
001fa7 d142      	RCALL __ANEGD1
                 __CFD16:
001fa8 915f      	POP  R21
001fa9 9508      	RET
                 
                 __CDF1U:
001faa 9468      	SET
001fab c001      	RJMP __CDF1U0
                 __CDF1:
001fac 94e8      	CLT
                 __CDF1U0:
001fad 9730      	SBIW R30,0
001fae 4060      	SBCI R22,0
001faf 4070      	SBCI R23,0
001fb0 f0b1      	BREQ __CDF10
001fb1 2400      	CLR  R0
001fb2 f026      	BRTS __CDF11
001fb3 2377      	TST  R23
001fb4 f412      	BRPL __CDF11
001fb5 9400      	COM  R0
001fb6 d133      	RCALL __ANEGD1
                 __CDF11:
001fb7 2e17      	MOV  R1,R23
001fb8 e17e      	LDI  R23,30
001fb9 2011      	TST  R1
                 __CDF12:
001fba f032      	BRMI __CDF13
001fbb 957a      	DEC  R23
001fbc 0fee      	LSL  R30
001fbd 1fff      	ROL  R31
001fbe 1f66      	ROL  R22
001fbf 1c11      	ROL  R1
001fc0 cff9      	RJMP __CDF12
                 __CDF13:
001fc1 2fef      	MOV  R30,R31
001fc2 2ff6      	MOV  R31,R22
001fc3 2d61      	MOV  R22,R1
001fc4 935f      	PUSH R21
001fc5 df8a      	RCALL __REPACK
001fc6 915f      	POP  R21
                 __CDF10:
001fc7 9508      	RET
                 
                 __SWAPACC:
001fc8 934f      	PUSH R20
001fc9 01af      	MOVW R20,R30
001fca 01fd      	MOVW R30,R26
001fcb 01da      	MOVW R26,R20
001fcc 01ab      	MOVW R20,R22
001fcd 01bc      	MOVW R22,R24
001fce 01ca      	MOVW R24,R20
001fcf 2d40      	MOV  R20,R0
001fd0 2c01      	MOV  R0,R1
001fd1 2e14      	MOV  R1,R20
001fd2 914f      	POP  R20
001fd3 9508      	RET
                 
                 __UADD12:
001fd4 0fea      	ADD  R30,R26
001fd5 1ffb      	ADC  R31,R27
001fd6 1f68      	ADC  R22,R24
001fd7 9508      	RET
                 
                 __NEGMAN1:
001fd8 95e0      	COM  R30
001fd9 95f0      	COM  R31
001fda 9560      	COM  R22
001fdb 5fef      	SUBI R30,-1
001fdc 4fff      	SBCI R31,-1
001fdd 4f6f      	SBCI R22,-1
001fde 9508      	RET
                 
                 __SUBF12:
001fdf 935f      	PUSH R21
001fe0 df81      	RCALL __UNPACK
001fe1 3890      	CPI  R25,0x80
001fe2 f149      	BREQ __ADDF129
001fe3 e850      	LDI  R21,0x80
001fe4 2615      	EOR  R1,R21
                 
                 __ADDF120:
001fe5 3870      	CPI  R23,0x80
001fe6 f121      	BREQ __ADDF128
                 __ADDF121:
001fe7 2f57      	MOV  R21,R23
001fe8 1b59      	SUB  R21,R25
001fe9 f12b      	BRVS __ADDF1211
001fea f412      	BRPL __ADDF122
001feb dfdc      	RCALL __SWAPACC
001fec cffa      	RJMP __ADDF121
                 __ADDF122:
001fed 3158      	CPI  R21,24
001fee f018      	BRLO __ADDF123
001fef 27aa      	CLR  R26
001ff0 27bb      	CLR  R27
001ff1 2788      	CLR  R24
                 __ADDF123:
001ff2 3058      	CPI  R21,8
001ff3 f028      	BRLO __ADDF124
001ff4 2fab      	MOV  R26,R27
001ff5 2fb8      	MOV  R27,R24
001ff6 2788      	CLR  R24
001ff7 5058      	SUBI R21,8
001ff8 cff9      	RJMP __ADDF123
                 __ADDF124:
001ff9 2355      	TST  R21
001ffa f029      	BREQ __ADDF126
                 __ADDF125:
001ffb 9586      	LSR  R24
001ffc 95b7      	ROR  R27
001ffd 95a7      	ROR  R26
001ffe 955a      	DEC  R21
001fff f7d9      	BRNE __ADDF125
                 __ADDF126:
002000 2d50      	MOV  R21,R0
002001 2551      	EOR  R21,R1
002002 f072      	BRMI __ADDF127
002003 dfd0      	RCALL __UADD12
002004 f438      	BRCC __ADDF129
002005 9567      	ROR  R22
002006 95f7      	ROR  R31
002007 95e7      	ROR  R30
002008 9573      	INC  R23
002009 f413      	BRVC __ADDF129
00200a c020      	RJMP __MAXRES
                 __ADDF128:
00200b dfbc      	RCALL __SWAPACC
                 __ADDF129:
00200c df43      	RCALL __REPACK
00200d 915f      	POP  R21
00200e 9508      	RET
                 __ADDF1211:
00200f f7d8      	BRCC __ADDF128
002010 cffb      	RJMP __ADDF129
                 __ADDF127:
002011 1bea      	SUB  R30,R26
002012 0bfb      	SBC  R31,R27
002013 0b68      	SBC  R22,R24
002014 f051      	BREQ __ZERORES
002015 f410      	BRCC __ADDF1210
002016 9400      	COM  R0
002017 dfc0      	RCALL __NEGMAN1
                 __ADDF1210:
002018 2366      	TST  R22
002019 f392      	BRMI __ADDF129
00201a 0fee      	LSL  R30
00201b 1fff      	ROL  R31
00201c 1f66      	ROL  R22
00201d 957a      	DEC  R23
00201e f7cb      	BRVC __ADDF1210
                 
                 __ZERORES:
00201f 27ee      	CLR  R30
002020 27ff      	CLR  R31
002021 2766      	CLR  R22
002022 2777      	CLR  R23
002023 915f      	POP  R21
002024 9508      	RET
                 
                 __MINRES:
002025 efef      	SER  R30
002026 efff      	SER  R31
002027 e76f      	LDI  R22,0x7F
002028 ef7f      	SER  R23
002029 915f      	POP  R21
00202a 9508      	RET
                 
                 __MAXRES:
00202b efef      	SER  R30
00202c efff      	SER  R31
00202d e76f      	LDI  R22,0x7F
00202e e77f      	LDI  R23,0x7F
00202f 915f      	POP  R21
002030 9508      	RET
                 
                 __MULF12:
002031 935f      	PUSH R21
002032 df2f      	RCALL __UNPACK
002033 3870      	CPI  R23,0x80
002034 f351      	BREQ __ZERORES
002035 3890      	CPI  R25,0x80
002036 f341      	BREQ __ZERORES
002037 2401      	EOR  R0,R1
002038 9408      	SEC
002039 1f79      	ADC  R23,R25
00203a f423      	BRVC __MULF124
00203b f31c      	BRLT __ZERORES
                 __MULF125:
00203c 2000      	TST  R0
00203d f33a      	BRMI __MINRES
00203e cfec      	RJMP __MAXRES
                 __MULF124:
00203f 920f      	PUSH R0
002040 931f      	PUSH R17
002041 932f      	PUSH R18
002042 933f      	PUSH R19
002043 934f      	PUSH R20
002044 2711      	CLR  R17
002045 2722      	CLR  R18
002046 2799      	CLR  R25
002047 9f68      	MUL  R22,R24
002048 01a0      	MOVW R20,R0
002049 9f8f      	MUL  R24,R31
00204a 2d30      	MOV  R19,R0
00204b 0d41      	ADD  R20,R1
00204c 1f59      	ADC  R21,R25
00204d 9f6b      	MUL  R22,R27
00204e 0d30      	ADD  R19,R0
00204f 1d41      	ADC  R20,R1
002050 1f59      	ADC  R21,R25
002051 9f8e      	MUL  R24,R30
002052 d027      	RCALL __MULF126
002053 9fbf      	MUL  R27,R31
002054 d025      	RCALL __MULF126
002055 9f6a      	MUL  R22,R26
002056 d023      	RCALL __MULF126
002057 9fbe      	MUL  R27,R30
002058 d01d      	RCALL __MULF127
002059 9faf      	MUL  R26,R31
00205a d01b      	RCALL __MULF127
00205b 9fae      	MUL  R26,R30
00205c 0d11      	ADD  R17,R1
00205d 1f29      	ADC  R18,R25
00205e 1f39      	ADC  R19,R25
00205f 1f49      	ADC  R20,R25
002060 1f59      	ADC  R21,R25
002061 2fe3      	MOV  R30,R19
002062 2ff4      	MOV  R31,R20
002063 2f65      	MOV  R22,R21
002064 2f52      	MOV  R21,R18
002065 914f      	POP  R20
002066 913f      	POP  R19
002067 912f      	POP  R18
002068 911f      	POP  R17
002069 900f      	POP  R0
00206a 2366      	TST  R22
00206b f02a      	BRMI __MULF122
00206c 0f55      	LSL  R21
00206d 1fee      	ROL  R30
00206e 1fff      	ROL  R31
00206f 1f66      	ROL  R22
002070 c002      	RJMP __MULF123
                 __MULF122:
002071 9573      	INC  R23
002072 f24b      	BRVS __MULF125
                 __MULF123:
002073 ded2      	RCALL __ROUND_REPACK
002074 915f      	POP  R21
002075 9508      	RET
                 
                 __MULF127:
002076 0d10      	ADD  R17,R0
002077 1d21      	ADC  R18,R1
002078 1f39      	ADC  R19,R25
002079 c002      	RJMP __MULF128
                 __MULF126:
00207a 0d20      	ADD  R18,R0
00207b 1d31      	ADC  R19,R1
                 __MULF128:
00207c 1f49      	ADC  R20,R25
00207d 1f59      	ADC  R21,R25
00207e 9508      	RET
                 
                 __DIVF21:
00207f 935f      	PUSH R21
002080 dee1      	RCALL __UNPACK
002081 3870      	CPI  R23,0x80
002082 f421      	BRNE __DIVF210
002083 2011      	TST  R1
                 __DIVF211:
002084 f40a      	BRPL __DIVF219
002085 cf9f      	RJMP __MINRES
                 __DIVF219:
002086 cfa4      	RJMP __MAXRES
                 __DIVF210:
002087 3890      	CPI  R25,0x80
002088 f409      	BRNE __DIVF218
                 __DIVF217:
002089 cf95      	RJMP __ZERORES
                 __DIVF218:
00208a 2401      	EOR  R0,R1
00208b 9408      	SEC
00208c 0b97      	SBC  R25,R23
00208d f41b      	BRVC __DIVF216
00208e f3d4      	BRLT __DIVF217
00208f 2000      	TST  R0
002090 cff3      	RJMP __DIVF211
                 __DIVF216:
002091 2f79      	MOV  R23,R25
002092 931f      	PUSH R17
002093 932f      	PUSH R18
002094 933f      	PUSH R19
002095 934f      	PUSH R20
002096 2411      	CLR  R1
002097 2711      	CLR  R17
002098 2722      	CLR  R18
002099 2733      	CLR  R19
00209a 2744      	CLR  R20
00209b 2755      	CLR  R21
00209c e290      	LDI  R25,32
                 __DIVF212:
00209d 17ae      	CP   R26,R30
00209e 07bf      	CPC  R27,R31
00209f 0786      	CPC  R24,R22
0020a0 0741      	CPC  R20,R17
0020a1 f030      	BRLO __DIVF213
0020a2 1bae      	SUB  R26,R30
0020a3 0bbf      	SBC  R27,R31
0020a4 0b86      	SBC  R24,R22
0020a5 0b41      	SBC  R20,R17
0020a6 9408      	SEC
0020a7 c001      	RJMP __DIVF214
                 __DIVF213:
0020a8 9488      	CLC
                 __DIVF214:
0020a9 1f55      	ROL  R21
0020aa 1f22      	ROL  R18
0020ab 1f33      	ROL  R19
0020ac 1c11      	ROL  R1
0020ad 1faa      	ROL  R26
0020ae 1fbb      	ROL  R27
0020af 1f88      	ROL  R24
0020b0 1f44      	ROL  R20
0020b1 959a      	DEC  R25
0020b2 f751      	BRNE __DIVF212
0020b3 01f9      	MOVW R30,R18
0020b4 2d61      	MOV  R22,R1
0020b5 914f      	POP  R20
0020b6 913f      	POP  R19
0020b7 912f      	POP  R18
0020b8 911f      	POP  R17
0020b9 2366      	TST  R22
0020ba f032      	BRMI __DIVF215
0020bb 0f55      	LSL  R21
0020bc 1fee      	ROL  R30
0020bd 1fff      	ROL  R31
0020be 1f66      	ROL  R22
0020bf 957a      	DEC  R23
0020c0 f243      	BRVS __DIVF217
                 __DIVF215:
0020c1 de84      	RCALL __ROUND_REPACK
0020c2 915f      	POP  R21
0020c3 9508      	RET
                 
                 __ADDW2R15:
0020c4 2400      	CLR  R0
0020c5 0daf      	ADD  R26,R15
0020c6 1db0      	ADC  R27,R0
0020c7 9508      	RET
                 
                 __ADDD12:
0020c8 0fea      	ADD  R30,R26
0020c9 1ffb      	ADC  R31,R27
0020ca 1f68      	ADC  R22,R24
0020cb 1f79      	ADC  R23,R25
0020cc 9508      	RET
                 
                 __ADDD21:
0020cd 0fae      	ADD  R26,R30
0020ce 1fbf      	ADC  R27,R31
0020cf 1f86      	ADC  R24,R22
0020d0 1f97      	ADC  R25,R23
0020d1 9508      	RET
                 
                 __SUBD12:
0020d2 1bea      	SUB  R30,R26
0020d3 0bfb      	SBC  R31,R27
0020d4 0b68      	SBC  R22,R24
0020d5 0b79      	SBC  R23,R25
0020d6 9508      	RET
                 
                 __SUBD21:
0020d7 1bae      	SUB  R26,R30
0020d8 0bbf      	SBC  R27,R31
0020d9 0b86      	SBC  R24,R22
0020da 0b97      	SBC  R25,R23
0020db 9508      	RET
                 
                 __ANDD12:
0020dc 23ea      	AND  R30,R26
0020dd 23fb      	AND  R31,R27
0020de 2368      	AND  R22,R24
0020df 2379      	AND  R23,R25
0020e0 9508      	RET
                 
                 __ORD12:
0020e1 2bea      	OR   R30,R26
0020e2 2bfb      	OR   R31,R27
0020e3 2b68      	OR   R22,R24
0020e4 2b79      	OR   R23,R25
0020e5 9508      	RET
                 
                 __ANEGW1:
0020e6 95f1      	NEG  R31
0020e7 95e1      	NEG  R30
0020e8 40f0      	SBCI R31,0
0020e9 9508      	RET
                 
                 __ANEGD1:
0020ea 95f0      	COM  R31
0020eb 9560      	COM  R22
0020ec 9570      	COM  R23
0020ed 95e1      	NEG  R30
0020ee 4fff      	SBCI R31,-1
0020ef 4f6f      	SBCI R22,-1
0020f0 4f7f      	SBCI R23,-1
0020f1 9508      	RET
                 
                 __LSLD12:
0020f2 23ee      	TST  R30
0020f3 2e0e      	MOV  R0,R30
0020f4 01fd      	MOVW R30,R26
0020f5 01bc      	MOVW R22,R24
0020f6 f031      	BREQ __LSLD12R
                 __LSLD12L:
0020f7 0fee      	LSL  R30
0020f8 1fff      	ROL  R31
0020f9 1f66      	ROL  R22
0020fa 1f77      	ROL  R23
0020fb 940a      	DEC  R0
0020fc f7d1      	BRNE __LSLD12L
                 __LSLD12R:
0020fd 9508      	RET
                 
                 __LSRD12:
0020fe 23ee      	TST  R30
0020ff 2e0e      	MOV  R0,R30
002100 01fd      	MOVW R30,R26
002101 01bc      	MOVW R22,R24
002102 f031      	BREQ __LSRD12R
                 __LSRD12L:
002103 9576      	LSR  R23
002104 9567      	ROR  R22
002105 95f7      	ROR  R31
002106 95e7      	ROR  R30
002107 940a      	DEC  R0
002108 f7d1      	BRNE __LSRD12L
                 __LSRD12R:
002109 9508      	RET
                 
                 __LSLW4:
00210a 0fee      	LSL  R30
00210b 1fff      	ROL  R31
                 __LSLW3:
00210c 0fee      	LSL  R30
00210d 1fff      	ROL  R31
                 __LSLW2:
00210e 0fee      	LSL  R30
00210f 1fff      	ROL  R31
002110 0fee      	LSL  R30
002111 1fff      	ROL  R31
002112 9508      	RET
                 
                 __LSRW4:
002113 95f6      	LSR  R31
002114 95e7      	ROR  R30
                 __LSRW3:
002115 95f6      	LSR  R31
002116 95e7      	ROR  R30
                 __LSRW2:
002117 95f6      	LSR  R31
002118 95e7      	ROR  R30
002119 95f6      	LSR  R31
00211a 95e7      	ROR  R30
00211b 9508      	RET
                 
                 __LSLD1:
00211c 0fee      	LSL  R30
00211d 1fff      	ROL  R31
00211e 1f66      	ROL  R22
00211f 1f77      	ROL  R23
002120 9508      	RET
                 
                 __LSRD16:
002121 2fe6      	MOV  R30,R22
002122 2ff7      	MOV  R31,R23
002123 e060      	LDI  R22,0
002124 e070      	LDI  R23,0
002125 9508      	RET
                 
                 __LSLD16:
002126 2f6e      	MOV  R22,R30
002127 2f7f      	MOV  R23,R31
002128 e0e0      	LDI  R30,0
002129 e0f0      	LDI  R31,0
00212a 9508      	RET
                 
                 __CWD1:
00212b 2f6f      	MOV  R22,R31
00212c 0f66      	ADD  R22,R22
00212d 0b66      	SBC  R22,R22
00212e 2f76      	MOV  R23,R22
00212f 9508      	RET
                 
                 __COMD1:
002130 95e0      	COM  R30
002131 95f0      	COM  R31
002132 9560      	COM  R22
002133 9570      	COM  R23
002134 9508      	RET
                 
                 __MULD12U:
002135 9f7a      	MUL  R23,R26
002136 2d70      	MOV  R23,R0
002137 9f6b      	MUL  R22,R27
002138 0d70      	ADD  R23,R0
002139 9ff8      	MUL  R31,R24
00213a 0d70      	ADD  R23,R0
00213b 9fe9      	MUL  R30,R25
00213c 0d70      	ADD  R23,R0
00213d 9f6a      	MUL  R22,R26
00213e 2d60      	MOV  R22,R0
00213f 0d71      	ADD  R23,R1
002140 9ffb      	MUL  R31,R27
002141 0d60      	ADD  R22,R0
002142 1d71      	ADC  R23,R1
002143 9fe8      	MUL  R30,R24
002144 0d60      	ADD  R22,R0
002145 1d71      	ADC  R23,R1
002146 2788      	CLR  R24
002147 9ffa      	MUL  R31,R26
002148 2df0      	MOV  R31,R0
002149 0d61      	ADD  R22,R1
00214a 1f78      	ADC  R23,R24
00214b 9feb      	MUL  R30,R27
00214c 0df0      	ADD  R31,R0
00214d 1d61      	ADC  R22,R1
00214e 1f78      	ADC  R23,R24
00214f 9fea      	MUL  R30,R26
002150 2de0      	MOV  R30,R0
002151 0df1      	ADD  R31,R1
002152 1f68      	ADC  R22,R24
002153 1f78      	ADC  R23,R24
002154 9508      	RET
                 
                 __MULB1W2U:
002155 2f6e      	MOV  R22,R30
002156 9f6a      	MUL  R22,R26
002157 01f0      	MOVW R30,R0
002158 9f6b      	MUL  R22,R27
002159 0df0      	ADD  R31,R0
00215a 9508      	RET
                 
                 __DIVW21U:
00215b 2400      	CLR  R0
00215c 2411      	CLR  R1
00215d e190      	LDI  R25,16
                 __DIVW21U1:
00215e 0faa      	LSL  R26
00215f 1fbb      	ROL  R27
002160 1c00      	ROL  R0
002161 1c11      	ROL  R1
002162 1a0e      	SUB  R0,R30
002163 0a1f      	SBC  R1,R31
002164 f418      	BRCC __DIVW21U2
002165 0e0e      	ADD  R0,R30
002166 1e1f      	ADC  R1,R31
002167 c001      	RJMP __DIVW21U3
                 __DIVW21U2:
002168 60a1      	SBR  R26,1
                 __DIVW21U3:
002169 959a      	DEC  R25
00216a f799      	BRNE __DIVW21U1
00216b 01fd      	MOVW R30,R26
00216c 01d0      	MOVW R26,R0
00216d 9508      	RET
                 
                 __DIVW21:
00216e d029      	RCALL __CHKSIGNW
00216f dfeb      	RCALL __DIVW21U
002170 f40e      	BRTC __DIVW211
002171 df74      	RCALL __ANEGW1
                 __DIVW211:
002172 9508      	RET
                 
                 __DIVD21U:
002173 933f      	PUSH R19
002174 934f      	PUSH R20
002175 935f      	PUSH R21
002176 2400      	CLR  R0
002177 2411      	CLR  R1
002178 2744      	CLR  R20
002179 2755      	CLR  R21
00217a e230      	LDI  R19,32
                 __DIVD21U1:
00217b 0faa      	LSL  R26
00217c 1fbb      	ROL  R27
00217d 1f88      	ROL  R24
00217e 1f99      	ROL  R25
00217f 1c00      	ROL  R0
002180 1c11      	ROL  R1
002181 1f44      	ROL  R20
002182 1f55      	ROL  R21
002183 1a0e      	SUB  R0,R30
002184 0a1f      	SBC  R1,R31
002185 0b46      	SBC  R20,R22
002186 0b57      	SBC  R21,R23
002187 f428      	BRCC __DIVD21U2
002188 0e0e      	ADD  R0,R30
002189 1e1f      	ADC  R1,R31
00218a 1f46      	ADC  R20,R22
00218b 1f57      	ADC  R21,R23
00218c c001      	RJMP __DIVD21U3
                 __DIVD21U2:
00218d 60a1      	SBR  R26,1
                 __DIVD21U3:
00218e 953a      	DEC  R19
00218f f759      	BRNE __DIVD21U1
002190 01fd      	MOVW R30,R26
002191 01bc      	MOVW R22,R24
002192 01d0      	MOVW R26,R0
002193 01ca      	MOVW R24,R20
002194 915f      	POP  R21
002195 914f      	POP  R20
002196 913f      	POP  R19
002197 9508      	RET
                 
                 __CHKSIGNW:
002198 94e8      	CLT
002199 fff7      	SBRS R31,7
00219a c002      	RJMP __CHKSW1
00219b df4a      	RCALL __ANEGW1
00219c 9468      	SET
                 __CHKSW1:
00219d ffb7      	SBRS R27,7
00219e c006      	RJMP __CHKSW2
00219f 95a0      	COM  R26
0021a0 95b0      	COM  R27
0021a1 9611      	ADIW R26,1
0021a2 f800      	BLD  R0,0
0021a3 9403      	INC  R0
0021a4 fa00      	BST  R0,0
                 __CHKSW2:
0021a5 9508      	RET
                 
                 __GETW1P:
0021a6 91ed      	LD   R30,X+
0021a7 91fc      	LD   R31,X
0021a8 9711      	SBIW R26,1
0021a9 9508      	RET
                 
                 __GETD1P:
0021aa 91ed      	LD   R30,X+
0021ab 91fd      	LD   R31,X+
0021ac 916d      	LD   R22,X+
0021ad 917c      	LD   R23,X
0021ae 9713      	SBIW R26,3
0021af 9508      	RET
                 
                 __GETD1P_INC:
0021b0 91ed      	LD   R30,X+
0021b1 91fd      	LD   R31,X+
0021b2 916d      	LD   R22,X+
0021b3 917d      	LD   R23,X+
0021b4 9508      	RET
                 
                 __PUTDP1:
0021b5 93ed      	ST   X+,R30
0021b6 93fd      	ST   X+,R31
0021b7 936d      	ST   X+,R22
0021b8 937c      	ST   X,R23
0021b9 9508      	RET
                 
                 __PUTDP1_DEC:
0021ba 937e      	ST   -X,R23
0021bb 936e      	ST   -X,R22
0021bc 93fe      	ST   -X,R31
0021bd 93ee      	ST   -X,R30
0021be 9508      	RET
                 
                 __GETW1PF:
0021bf 9005      	LPM  R0,Z+
0021c0 91f4      	LPM  R31,Z
0021c1 2de0      	MOV  R30,R0
0021c2 9508      	RET
                 
                 __GETD1S0:
0021c3 81e8      	LD   R30,Y
0021c4 81f9      	LDD  R31,Y+1
0021c5 816a      	LDD  R22,Y+2
0021c6 817b      	LDD  R23,Y+3
0021c7 9508      	RET
                 
                 __GETD2S0:
0021c8 81a8      	LD   R26,Y
0021c9 81b9      	LDD  R27,Y+1
0021ca 818a      	LDD  R24,Y+2
0021cb 819b      	LDD  R25,Y+3
0021cc 9508      	RET
                 
                 __PUTD1S0:
0021cd 83e8      	ST   Y,R30
0021ce 83f9      	STD  Y+1,R31
0021cf 836a      	STD  Y+2,R22
0021d0 837b      	STD  Y+3,R23
0021d1 9508      	RET
                 
                 __PUTDZ20:
0021d2 83a0      	ST   Z,R26
0021d3 83b1      	STD  Z+1,R27
0021d4 8382      	STD  Z+2,R24
0021d5 8393      	STD  Z+3,R25
0021d6 9508      	RET
                 
                 __PUTPARD1:
0021d7 937a      	ST   -Y,R23
0021d8 936a      	ST   -Y,R22
0021d9 93fa      	ST   -Y,R31
0021da 93ea      	ST   -Y,R30
0021db 9508      	RET
                 
                 __PUTPARD2:
0021dc 939a      	ST   -Y,R25
0021dd 938a      	ST   -Y,R24
0021de 93ba      	ST   -Y,R27
0021df 93aa      	ST   -Y,R26
0021e0 9508      	RET
                 
                 __SWAPD12:
0021e1 2e18      	MOV  R1,R24
0021e2 2f86      	MOV  R24,R22
0021e3 2d61      	MOV  R22,R1
0021e4 2e19      	MOV  R1,R25
0021e5 2f97      	MOV  R25,R23
0021e6 2d71      	MOV  R23,R1
                 
                 __SWAPW12:
0021e7 2e1b      	MOV  R1,R27
0021e8 2fbf      	MOV  R27,R31
0021e9 2df1      	MOV  R31,R1
                 
                 __SWAPB12:
0021ea 2e1a      	MOV  R1,R26
0021eb 2fae      	MOV  R26,R30
0021ec 2de1      	MOV  R30,R1
0021ed 9508      	RET
                 
                 __CPD10:
0021ee 9730      	SBIW R30,0
0021ef 4060      	SBCI R22,0
0021f0 4070      	SBCI R23,0
0021f1 9508      	RET
                 
                 __CPD02:
0021f2 2400      	CLR  R0
0021f3 160a      	CP   R0,R26
0021f4 060b      	CPC  R0,R27
0021f5 0608      	CPC  R0,R24
0021f6 0609      	CPC  R0,R25
0021f7 9508      	RET
                 
                 __CPD12:
0021f8 17ea      	CP   R30,R26
0021f9 07fb      	CPC  R31,R27
0021fa 0768      	CPC  R22,R24
0021fb 0779      	CPC  R23,R25
0021fc 9508      	RET
                 
                 __CPD21:
0021fd 17ae      	CP   R26,R30
0021fe 07bf      	CPC  R27,R31
0021ff 0786      	CPC  R24,R22
002200 0797      	CPC  R25,R23
002201 9508      	RET
                 
                 __SAVELOCR6:
002202 935a      	ST   -Y,R21
                 __SAVELOCR5:
002203 934a      	ST   -Y,R20
                 __SAVELOCR4:
002204 933a      	ST   -Y,R19
                 __SAVELOCR3:
002205 932a      	ST   -Y,R18
                 __SAVELOCR2:
002206 931a      	ST   -Y,R17
002207 930a      	ST   -Y,R16
002208 9508      	RET
                 
                 __LOADLOCR6:
002209 815d      	LDD  R21,Y+5
                 __LOADLOCR5:
00220a 814c      	LDD  R20,Y+4
                 __LOADLOCR4:
00220b 813b      	LDD  R19,Y+3
                 __LOADLOCR3:
00220c 812a      	LDD  R18,Y+2
                 __LOADLOCR2:
00220d 8119      	LDD  R17,Y+1
00220e 8108      	LD   R16,Y
00220f 9508      	RET
                 
                 __INITLOCB:
                 __INITLOCW:
002210 0fac      	ADD  R26,R28
002211 1fbd      	ADC  R27,R29
                 __INITLOC0:
002212 9005      	LPM  R0,Z+
002213 920d      	ST   X+,R0
002214 958a      	DEC  R24
002215 f7e1      	BRNE __INITLOC0
002216 9508      	RET
                 
                 ;END OF CODE MARKER
                 __END_OF_CODE:


RESOURCE USE INFORMATION
------------------------

Notice:
The register and instruction counts are symbol table hit counts,
and hence implicitly used resources are not counted, eg, the
'lpm' instruction without operands implicitly uses r0 and z,
none of which are counted.

x,y,z are separate entities in the symbol table and are
counted separately from r26..r31 here.

.dseg memory usage only counts static data declared with .byte

AT90USB1286 register use summary:
r0 : 103 r1 :  49 r2 :   0 r3 :   0 r4 :   0 r5 :   0 r6 :   0 r7 :   0 
r8 :   0 r9 :   0 r10:   0 r11:   0 r12:   0 r13:   0 r14:   0 r15:   6 
r16: 235 r17: 153 r18: 109 r19:  90 r20:  72 r21:  83 r22: 233 r23: 197 
r24: 197 r25: 148 r26: 991 r27: 484 r28:  85 r29:   2 r30:1794 r31: 617 
x  : 161 y  :1610 z  : 160 
Registers used: 22 out of 35 (62.9%)

AT90USB1286 instruction use summary:
.lds  :   0 .lds.l:   0 .sts  :   0 .sts.l:   0 adc   :  62 add   :  57 
adiw  : 251 and   :   8 andi  : 105 asr   :   1 bclr  :   0 bld   :   2 
brbc  :   0 brbs  :   0 brcc  :   8 brcs  :   0 break :   0 breq  : 184 
brge  :   0 brhc  :   0 brhs  :   0 brid  :   0 brie  :   0 brlo  :  56 
brlt  :   3 brmi  :   9 brne  : 199 brpl  :   7 brsh  :  27 brtc  :   2 
brts  :   1 brvc  :   4 brvs  :   4 bset  :   0 bst   :   1 call  : 954 
cbi   :  19 cbr   :   0 clc   :   2 clh   :   0 cli   :   1 cln   :   0 
clr   : 114 cls   :   0 clt   :   3 clv   :   0 clz   :   0 com   :  14 
cp    :  21 cpc   :  55 cpi   : 247 cpse  :   0 dec   :  22 des   :   0 
elpm  :   0 eor   :   9 fmul  :   0 fmuls :   0 fmulsu:   0 icall :   4 
ijmp  :   0 in    :  43 inc   :   4 jmp   :  65 ld    : 124 ldd   :1151 
ldi   : 728 lds   : 119 lpm   :  21 lsl   :  34 lsr   :  18 mov   : 223 
movw  : 154 mul   :  23 muls  :   0 mulsu :   0 neg   :   4 nop   :   4 
or    :  13 ori   :  31 out   :  47 pop   :  86 push  :  85 rcall : 125 
ret   : 249 reti  :   1 rjmp  : 393 rol   :  49 ror   :  24 sbc   :  22 
sbci  :  70 sbi   :  23 sbic  :   9 sbis  :   1 sbiw  :  60 sbr   :   2 
sbrc  :   5 sbrs  :  44 sec   :   4 seh   :   0 sei   :   1 sen   :   0 
ser   :   8 ses   :   0 set   :   3 sev   :   0 sez   :   0 sleep :   0 
spm   :   0 st    : 458 std   : 182 sts   :  55 sub   :  14 subi  :  95 
swap  :   7 tst   :  20 wdr   :   1 
Instructions used: 80 out of 117 (68.4%)

AT90USB1286 memory use summary [bytes]:
Segment   Begin    End      Code   Data   Used    Size   Use%
---------------------------------------------------------------
[.cseg] 0x000000 0x00442e  17092    362  17454  131072  13.3%
[.dseg] 0x000100 0x000e40      0   1344   1344    8192  16.4%
[.eseg] 0x000000 0x000000      0      0      0    4096   0.0%

Assembly complete, 0 errors, 6 warnings
